;
; File generated by cc65 v 2.18 - N/A
;
	.fopt		compiler,"cc65 v 2.18 - N/A"
	.setcpu		"6502"
	.smart		on
	.autoimport	on
	.case		on
	.debuginfo	off
	.importzp	sp, sreg, regsave, regbank
	.importzp	tmp1, tmp2, tmp3, tmp4, ptr1, ptr2, ptr3, ptr4
	.macpack	longbranch
	.forceimport	__STARTUP__
	.import		_pal_bg
	.import		_pal_spr
	.import		_pal_bright
	.import		_ppu_wait_nmi
	.import		_ppu_off
	.import		_ppu_on_all
	.import		_ppu_mask
	.import		_oam_clear
	.import		_oam_meta_spr
	.import		_music_play
	.import		_music_stop
	.import		_sfx_play
	.import		_pad_poll
	.import		_bank_spr
	.import		_memcpy
	.import		_zap_shoot
	.import		_zap_read
	.import		_read_powerpad
	.import		_set_vram_buffer
	.import		_one_vram_buffer
	.import		_multi_vram_buffer_horz
	.import		_clear_vram_buffer
	.import		_get_pad_new
	.import		_set_music_speed
	.import		_pal_fade_to
	.import		_set_scroll_x
	.import		_set_scroll_y
	.import		_get_ppu_addr
	.import		_set_data_pointer
	.import		_set_mt_pointer
	.import		_buffer_4_mt
	.import		_flush_vram_update2
	.export		_perrystandright_data
	.export		_perrystandleft_data
	.export		_perrywalkright0_data
	.export		_perrywalkright1_data
	.export		_perrywalkright2_data
	.export		_perrywalkleft0_data
	.export		_perrywalkleft1_data
	.export		_perrywalkleft2_data
	.export		_perrywalkdown0_data
	.export		_perrywalkdown1_data
	.export		_perrywalkdown2_data
	.export		_perrywalkup0_data
	.export		_perrywalkup1_data
	.export		_perrywalkup2_data
	.export		_nudeman_data
	.export		_Duck_data
	.export		_switchleft_data
	.export		_switchright_data
	.export		_lighton_data
	.export		_lightoff_data
	.export		_rock_data
	.export		_perryflag0_data
	.export		_perryflag1_data
	.export		_perryflag2_data
	.export		_perryflagwhite0_data
	.export		_perryflagwhite1_data
	.export		_perryflagwhite2_data
	.export		_blankflag0_data
	.export		_blankflag1_data
	.export		_blankflag2_data
	.export		_blankflagwhite0_data
	.export		_blankflagwhite1_data
	.export		_blankflagwhite2_data
	.export		_flagpole_data
	.export		_flagpolelong_data
	.export		_tailwag0_data
	.export		_tailwag1_data
	.export		_tailwag2_data
	.export		_tonguewag0_data
	.export		_tonguewag1_data
	.export		_tonguewag2_data
	.export		_eyewag0_data
	.export		_eyewag1_data
	.export		_eyewag2_data
	.export		_eyewag3_data
	.export		_perryshrink0_data
	.export		_perryshrink1_data
	.export		_perryshrink2_data
	.export		_floateyes0_data
	.export		_floateyes1_data
	.export		_floateyes2_data
	.export		_bigdoor0_data
	.export		_bigdoor1_data
	.export		_bigdoor2_data
	.export		_bigdoor3_data
	.export		_bigdoor4_data
	.export		_bigdoor5_data
	.export		_bigdoor6_data
	.export		_bigdoor7_data
	.export		_gamepad_data
	.export		_advantage_data
	.export		_powerpad_data
	.export		_zapper_data
	.export		_arrowdown0_data
	.export		_arrowdown1_data
	.export		_arrowup0_data
	.export		_arrowup1_data
	.export		_arrowright0_data
	.export		_arrowright1_data
	.export		_arrowleft_data
	.export		_arrowleft1_data
	.export		_button0_data
	.export		_button1_data
	.export		_widebutton0_data
	.export		_widebutton0__1_data
	.export		_mower0_data
	.export		_mower1_data
	.export		_buddywalkeft0_data
	.export		_buddywalkleft1_data
	.export		_buddywalkeft0__1_data
	.export		_buddywalkleft1__1_data
	.export		_buddywalkdown0_data
	.export		_buddywalkdown1_data
	.export		_unnamed_data
	.export		_unnamed__3_data
	.export		_lock_data
	.export		_pitopen0_data
	.export		_pitopen1_data
	.export		_pitopen2_data
	.export		_pitopen3_data
	.export		_redarrow_data
	.export		_whitebox24x24_data
	.export		_housemaskingsprite_data
	.export		_bifglagred0_data
	.export		_bigflagred1_data
	.export		_biflagred2_data
	.export		_bigflagred3_data
	.export		_bifglagwhite0_data
	.export		_bigflagwhite1_data
	.export		_bigflagwhite2_data
	.export		_bigflagwhite3_data
	.export		_White_perry_data
	.export		_White_duck_data
	.export		_last_level1
	.export		_last_level2
	.export		_last_level3
	.export		_last_level4
	.export		_last_level5
	.export		_last_level6
	.export		_last_level7
	.export		_last_level8
	.export		_game_genie_code
	.export		_pad2_zapper
	.export		_zapper_ready
	.export		_hit_detected
	.export		_player_moving
	.export		_powerpad_cur
	.export		_powerpad_old
	.export		_powerpad_new
	.export		_powerpad_old_button
	.export		_amount_to_move
	.export		_nametable_to_use
	.export		_user_input_new
	.export		_pad1
	.export		_pad1_new
	.export		_pad2
	.export		_pad2_new
	.export		_collision
	.export		_collision_L
	.export		_collision_R
	.export		_collision_U
	.export		_collision_D
	.export		_collision2
	.export		_level
	.export		_p_maps
	.export		_coordinates
	.export		_temp1
	.export		_temp2
	.export		_temp3
	.export		_temp4
	.export		_temp_x
	.export		_temp_y
	.export		_game_mode
	.export		_show_text
	.export		_has_moved
	.export		_is_moving
	.export		_player_moved_frames
	.export		_frame_count
	.export		_frame_count2
	.export		_frame_count3
	.export		_frame_count4
	.export		_duck_exists
	.export		_scroll_x
	.export		_a_entering
	.export		_b_entering
	.export		_a_exiting
	.export		_b_exiting
	.export		_a_flag
	.export		_b_flag
	.export		_ending
	.export		_flag_a_pos
	.export		_flag_b_pos
	.export		_flag_a
	.export		_flag_b
	.export		_turbo_a_rate
	.export		_turbo_b_rate
	.export		_last_turbo_a_rate
	.export		_last_turbo_b_rate
	.export		_local_left
	.export		_local_right
	.export		_local_up
	.export		_local_down
	.export		_pointer2
	.export		_player_x
	.export		_player_y
	.export		_fade_on
	.export		_song
	.export		_Generic
	.export		_Generic2
	.export		_address
	.export		_x
	.export		_y
	.export		_index
	.export		_index2
	.export		_c_map
	.export		_BoxGuy1
	.export		_level1_0
	.export		_level2
	.export		_level3
	.export		_level4_0
	.export		_level5_0
	.export		_level6_0
	.export		_level7_0
	.export		_level8_0
	.export		_level9_0
	.export		_level10_0
	.export		_level11_0
	.export		_level12_0
	.export		_level13_0
	.export		_level14_0
	.export		_level15_0
	.export		_level16_0
	.export		_level17_0
	.export		_level18_0
	.export		_bigperry_0
	.export		_perrygetout_0
	.export		_perryshouse_0
	.export		_blackmap
	.export		_level17opennes
	.export		_level17closedfence
	.export		_Level_List
	.export		_level_text
	.export		_level_text_length
	.export		_level_player_x
	.export		_level_player_y
	.export		_palette_perrytileset_a
	.export		_palette_perrytilesetnintendocolors_a
	.export		_palette_perrytilesetcutscenecolors_a
	.export		_title_bg_palette
	.export		_palette_perrypuzzlesprites_a
	.export		_palette_perrypuzzlesprites_b
	.export		_metatile_colision_map
	.export		_draw_bg
	.export		_draw_sprites
	.export		_movement
	.export		_bg_collision
	.export		_sprite_collision
	.export		_level_up
	.export		_init_level
	.export		_set_direction
	.export		_draw_player_sprite
	.export		_init_mode_title
	.export		_title_cutscene
	.export		_init_mode_level_end
	.export		_draw_shootable_box
	.export		_process_powerpad
	.export		_movement_user_direction
	.export		_movement_user_forward
	.export		_init_mode_game
	.export		_init_mode_introcutscene
	.export		_intro_cutscene_one
	.export		_intro_cutscene_two
	.export		_perrytiles
	.export		_titletiles
	.export		_main
	.export		_title_0

.segment	"DATA"

_index:
	.byte	$00
_BoxGuy1:
	.byte	$40
	.byte	$50
	.byte	$0C
	.byte	$0C
	.byte	$00

.segment	"RODATA"

_perrystandright_data:
	.byte	$07
	.byte	$02
	.byte	$30
	.byte	$00
	.byte	$00
	.byte	$00
	.byte	$40
	.byte	$01
	.byte	$08
	.byte	$00
	.byte	$41
	.byte	$01
	.byte	$00
	.byte	$08
	.byte	$50
	.byte	$01
	.byte	$08
	.byte	$08
	.byte	$51
	.byte	$01
	.byte	$80
_perrystandleft_data:
	.byte	$01
	.byte	$02
	.byte	$30
	.byte	$40
	.byte	$00
	.byte	$00
	.byte	$41
	.byte	$41
	.byte	$08
	.byte	$00
	.byte	$40
	.byte	$41
	.byte	$08
	.byte	$08
	.byte	$50
	.byte	$41
	.byte	$00
	.byte	$08
	.byte	$51
	.byte	$41
	.byte	$80
_perrywalkright0_data:
	.byte	$07
	.byte	$02
	.byte	$30
	.byte	$00
	.byte	$00
	.byte	$00
	.byte	$40
	.byte	$01
	.byte	$08
	.byte	$00
	.byte	$41
	.byte	$01
	.byte	$00
	.byte	$08
	.byte	$54
	.byte	$01
	.byte	$08
	.byte	$08
	.byte	$55
	.byte	$01
	.byte	$80
_perrywalkright1_data:
	.byte	$07
	.byte	$02
	.byte	$30
	.byte	$00
	.byte	$00
	.byte	$00
	.byte	$40
	.byte	$01
	.byte	$08
	.byte	$00
	.byte	$41
	.byte	$01
	.byte	$00
	.byte	$08
	.byte	$52
	.byte	$01
	.byte	$08
	.byte	$08
	.byte	$53
	.byte	$01
	.byte	$80
_perrywalkright2_data:
	.byte	$07
	.byte	$02
	.byte	$30
	.byte	$00
	.byte	$00
	.byte	$00
	.byte	$40
	.byte	$01
	.byte	$08
	.byte	$00
	.byte	$41
	.byte	$01
	.byte	$00
	.byte	$08
	.byte	$56
	.byte	$01
	.byte	$08
	.byte	$08
	.byte	$57
	.byte	$01
	.byte	$80
_perrywalkleft0_data:
	.byte	$01
	.byte	$02
	.byte	$30
	.byte	$40
	.byte	$08
	.byte	$00
	.byte	$40
	.byte	$41
	.byte	$00
	.byte	$00
	.byte	$41
	.byte	$41
	.byte	$08
	.byte	$08
	.byte	$54
	.byte	$41
	.byte	$00
	.byte	$08
	.byte	$55
	.byte	$41
	.byte	$80
_perrywalkleft1_data:
	.byte	$01
	.byte	$02
	.byte	$30
	.byte	$40
	.byte	$08
	.byte	$00
	.byte	$40
	.byte	$41
	.byte	$00
	.byte	$00
	.byte	$41
	.byte	$41
	.byte	$08
	.byte	$08
	.byte	$52
	.byte	$41
	.byte	$00
	.byte	$08
	.byte	$53
	.byte	$41
	.byte	$80
_perrywalkleft2_data:
	.byte	$01
	.byte	$02
	.byte	$30
	.byte	$40
	.byte	$08
	.byte	$00
	.byte	$40
	.byte	$41
	.byte	$00
	.byte	$00
	.byte	$41
	.byte	$41
	.byte	$08
	.byte	$08
	.byte	$56
	.byte	$41
	.byte	$00
	.byte	$08
	.byte	$57
	.byte	$41
	.byte	$80
_perrywalkdown0_data:
	.byte	$02
	.byte	$02
	.byte	$31
	.byte	$00
	.byte	$00
	.byte	$00
	.byte	$60
	.byte	$01
	.byte	$08
	.byte	$00
	.byte	$61
	.byte	$01
	.byte	$00
	.byte	$08
	.byte	$72
	.byte	$01
	.byte	$08
	.byte	$08
	.byte	$73
	.byte	$01
	.byte	$80
_perrywalkdown1_data:
	.byte	$02
	.byte	$02
	.byte	$31
	.byte	$00
	.byte	$00
	.byte	$00
	.byte	$60
	.byte	$01
	.byte	$08
	.byte	$00
	.byte	$61
	.byte	$01
	.byte	$00
	.byte	$08
	.byte	$70
	.byte	$01
	.byte	$08
	.byte	$08
	.byte	$71
	.byte	$01
	.byte	$80
_perrywalkdown2_data:
	.byte	$02
	.byte	$02
	.byte	$31
	.byte	$00
	.byte	$00
	.byte	$00
	.byte	$60
	.byte	$01
	.byte	$08
	.byte	$00
	.byte	$61
	.byte	$01
	.byte	$00
	.byte	$08
	.byte	$74
	.byte	$01
	.byte	$08
	.byte	$08
	.byte	$75
	.byte	$01
	.byte	$80
_perrywalkup0_data:
	.byte	$00
	.byte	$00
	.byte	$80
	.byte	$01
	.byte	$08
	.byte	$00
	.byte	$81
	.byte	$01
	.byte	$00
	.byte	$08
	.byte	$90
	.byte	$01
	.byte	$08
	.byte	$08
	.byte	$93
	.byte	$01
	.byte	$80
_perrywalkup1_data:
	.byte	$00
	.byte	$00
	.byte	$80
	.byte	$01
	.byte	$08
	.byte	$00
	.byte	$81
	.byte	$01
	.byte	$00
	.byte	$08
	.byte	$90
	.byte	$01
	.byte	$08
	.byte	$08
	.byte	$91
	.byte	$01
	.byte	$80
_perrywalkup2_data:
	.byte	$00
	.byte	$00
	.byte	$80
	.byte	$01
	.byte	$08
	.byte	$00
	.byte	$81
	.byte	$01
	.byte	$00
	.byte	$08
	.byte	$92
	.byte	$01
	.byte	$08
	.byte	$08
	.byte	$91
	.byte	$01
	.byte	$80
_nudeman_data:
	.byte	$08
	.byte	$00
	.byte	$0D
	.byte	$01
	.byte	$10
	.byte	$00
	.byte	$0E
	.byte	$01
	.byte	$10
	.byte	$00
	.byte	$0F
	.byte	$01
	.byte	$08
	.byte	$08
	.byte	$1D
	.byte	$01
	.byte	$10
	.byte	$08
	.byte	$1E
	.byte	$01
	.byte	$10
	.byte	$08
	.byte	$1F
	.byte	$01
	.byte	$10
	.byte	$10
	.byte	$2E
	.byte	$01
	.byte	$18
	.byte	$10
	.byte	$2F
	.byte	$01
	.byte	$10
	.byte	$18
	.byte	$3E
	.byte	$01
	.byte	$10
	.byte	$18
	.byte	$3F
	.byte	$01
	.byte	$10
	.byte	$20
	.byte	$4E
	.byte	$01
	.byte	$18
	.byte	$20
	.byte	$4F
	.byte	$01
	.byte	$18
	.byte	$18
	.byte	$3F
	.byte	$01
	.byte	$08
	.byte	$10
	.byte	$2D
	.byte	$01
	.byte	$00
	.byte	$10
	.byte	$2C
	.byte	$01
	.byte	$00
	.byte	$08
	.byte	$1C
	.byte	$01
	.byte	$00
	.byte	$00
	.byte	$0C
	.byte	$01
	.byte	$08
	.byte	$18
	.byte	$3D
	.byte	$01
	.byte	$08
	.byte	$20
	.byte	$4D
	.byte	$01
	.byte	$08
	.byte	$28
	.byte	$5D
	.byte	$01
	.byte	$10
	.byte	$28
	.byte	$5E
	.byte	$01
	.byte	$08
	.byte	$30
	.byte	$6D
	.byte	$01
	.byte	$10
	.byte	$30
	.byte	$6E
	.byte	$01
	.byte	$18
	.byte	$30
	.byte	$6F
	.byte	$01
	.byte	$18
	.byte	$38
	.byte	$7F
	.byte	$01
	.byte	$10
	.byte	$38
	.byte	$7E
	.byte	$01
	.byte	$08
	.byte	$38
	.byte	$7D
	.byte	$01
	.byte	$00
	.byte	$38
	.byte	$7C
	.byte	$01
	.byte	$00
	.byte	$30
	.byte	$6C
	.byte	$01
	.byte	$80
_Duck_data:
	.byte	$08
	.byte	$00
	.byte	$BD
	.byte	$01
	.byte	$10
	.byte	$00
	.byte	$BE
	.byte	$01
	.byte	$08
	.byte	$08
	.byte	$CD
	.byte	$01
	.byte	$10
	.byte	$08
	.byte	$CE
	.byte	$01
	.byte	$18
	.byte	$08
	.byte	$CF
	.byte	$01
	.byte	$18
	.byte	$10
	.byte	$DF
	.byte	$01
	.byte	$10
	.byte	$10
	.byte	$DE
	.byte	$01
	.byte	$08
	.byte	$10
	.byte	$DD
	.byte	$01
	.byte	$00
	.byte	$10
	.byte	$DC
	.byte	$01
	.byte	$00
	.byte	$08
	.byte	$CC
	.byte	$01
	.byte	$00
	.byte	$18
	.byte	$EC
	.byte	$01
	.byte	$08
	.byte	$18
	.byte	$ED
	.byte	$01
	.byte	$10
	.byte	$18
	.byte	$EE
	.byte	$01
	.byte	$18
	.byte	$18
	.byte	$EF
	.byte	$01
	.byte	$18
	.byte	$20
	.byte	$FF
	.byte	$01
	.byte	$10
	.byte	$20
	.byte	$FE
	.byte	$01
	.byte	$08
	.byte	$20
	.byte	$FD
	.byte	$01
	.byte	$00
	.byte	$20
	.byte	$FC
	.byte	$01
	.byte	$80
_switchleft_data:
	.byte	$00
	.byte	$00
	.byte	$C0
	.byte	$00
	.byte	$00
	.byte	$08
	.byte	$D0
	.byte	$00
	.byte	$08
	.byte	$08
	.byte	$D1
	.byte	$00
	.byte	$80
_switchright_data:
	.byte	$08
	.byte	$00
	.byte	$C0
	.byte	$40
	.byte	$08
	.byte	$08
	.byte	$D0
	.byte	$40
	.byte	$00
	.byte	$08
	.byte	$D1
	.byte	$40
	.byte	$80
_lighton_data:
	.byte	$00
	.byte	$00
	.byte	$A2
	.byte	$00
	.byte	$08
	.byte	$00
	.byte	$A3
	.byte	$00
	.byte	$00
	.byte	$08
	.byte	$B2
	.byte	$00
	.byte	$08
	.byte	$08
	.byte	$B3
	.byte	$00
	.byte	$80
_lightoff_data:
	.byte	$00
	.byte	$00
	.byte	$C2
	.byte	$00
	.byte	$08
	.byte	$00
	.byte	$C3
	.byte	$00
	.byte	$00
	.byte	$08
	.byte	$D2
	.byte	$00
	.byte	$08
	.byte	$08
	.byte	$D3
	.byte	$00
	.byte	$80
_rock_data:
	.byte	$00
	.byte	$00
	.byte	$E0
	.byte	$02
	.byte	$08
	.byte	$00
	.byte	$E1
	.byte	$02
	.byte	$00
	.byte	$08
	.byte	$F0
	.byte	$02
	.byte	$08
	.byte	$08
	.byte	$F1
	.byte	$02
	.byte	$80
_perryflag0_data:
	.byte	$00
	.byte	$00
	.byte	$04
	.byte	$00
	.byte	$80
_perryflag1_data:
	.byte	$00
	.byte	$00
	.byte	$05
	.byte	$00
	.byte	$80
_perryflag2_data:
	.byte	$00
	.byte	$00
	.byte	$06
	.byte	$00
	.byte	$80
_perryflagwhite0_data:
	.byte	$00
	.byte	$00
	.byte	$04
	.byte	$01
	.byte	$80
_perryflagwhite1_data:
	.byte	$00
	.byte	$00
	.byte	$05
	.byte	$01
	.byte	$80
_perryflagwhite2_data:
	.byte	$00
	.byte	$00
	.byte	$05
	.byte	$01
	.byte	$80
_blankflag0_data:
	.byte	$00
	.byte	$00
	.byte	$07
	.byte	$00
	.byte	$80
_blankflag1_data:
	.byte	$00
	.byte	$00
	.byte	$08
	.byte	$00
	.byte	$80
_blankflag2_data:
	.byte	$00
	.byte	$00
	.byte	$09
	.byte	$00
	.byte	$80
_blankflagwhite0_data:
	.byte	$00
	.byte	$00
	.byte	$07
	.byte	$01
	.byte	$80
_blankflagwhite1_data:
	.byte	$00
	.byte	$00
	.byte	$08
	.byte	$01
	.byte	$80
_blankflagwhite2_data:
	.byte	$00
	.byte	$00
	.byte	$09
	.byte	$01
	.byte	$80
_flagpole_data:
	.byte	$03
	.byte	$00
	.byte	$14
	.byte	$00
	.byte	$80
_flagpolelong_data:
	.byte	$03
	.byte	$08
	.byte	$14
	.byte	$00
	.byte	$03
	.byte	$10
	.byte	$14
	.byte	$00
	.byte	$03
	.byte	$00
	.byte	$14
	.byte	$00
	.byte	$03
	.byte	$F8
	.byte	$14
	.byte	$00
	.byte	$03
	.byte	$18
	.byte	$14
	.byte	$00
	.byte	$03
	.byte	$20
	.byte	$14
	.byte	$00
	.byte	$03
	.byte	$F0
	.byte	$14
	.byte	$00
	.byte	$03
	.byte	$E8
	.byte	$14
	.byte	$00
	.byte	$03
	.byte	$E0
	.byte	$14
	.byte	$00
	.byte	$03
	.byte	$D8
	.byte	$14
	.byte	$00
	.byte	$03
	.byte	$28
	.byte	$14
	.byte	$00
	.byte	$03
	.byte	$30
	.byte	$14
	.byte	$00
	.byte	$03
	.byte	$D0
	.byte	$14
	.byte	$00
	.byte	$03
	.byte	$38
	.byte	$14
	.byte	$00
	.byte	$03
	.byte	$C8
	.byte	$14
	.byte	$00
	.byte	$00
	.byte	$C0
	.byte	$25
	.byte	$00
	.byte	$80
_tailwag0_data:
	.byte	$00
	.byte	$00
	.byte	$15
	.byte	$01
	.byte	$80
_tailwag1_data:
	.byte	$00
	.byte	$00
	.byte	$16
	.byte	$01
	.byte	$80
_tailwag2_data:
	.byte	$00
	.byte	$00
	.byte	$15
	.byte	$41
	.byte	$80
_tonguewag0_data:
	.byte	$00
	.byte	$00
	.byte	$11
	.byte	$00
	.byte	$80
_tonguewag1_data:
	.byte	$00
	.byte	$00
	.byte	$12
	.byte	$00
	.byte	$80
_tonguewag2_data:
	.byte	$00
	.byte	$00
	.byte	$13
	.byte	$00
	.byte	$80
_eyewag0_data:
	.byte	$00
	.byte	$00
	.byte	$20
	.byte	$00
	.byte	$08
	.byte	$00
	.byte	$20
	.byte	$00
	.byte	$80
_eyewag1_data:
	.byte	$00
	.byte	$00
	.byte	$23
	.byte	$01
	.byte	$08
	.byte	$00
	.byte	$23
	.byte	$01
	.byte	$00
	.byte	$00
	.byte	$20
	.byte	$00
	.byte	$08
	.byte	$00
	.byte	$20
	.byte	$00
	.byte	$80
_eyewag2_data:
	.byte	$00
	.byte	$00
	.byte	$22
	.byte	$01
	.byte	$08
	.byte	$00
	.byte	$22
	.byte	$01
	.byte	$00
	.byte	$00
	.byte	$20
	.byte	$00
	.byte	$08
	.byte	$00
	.byte	$20
	.byte	$00
	.byte	$80
_eyewag3_data:
	.byte	$00
	.byte	$00
	.byte	$21
	.byte	$01
	.byte	$08
	.byte	$00
	.byte	$21
	.byte	$01
	.byte	$80
_perryshrink0_data:
	.byte	$04
	.byte	$02
	.byte	$32
	.byte	$01
	.byte	$04
	.byte	$0A
	.byte	$42
	.byte	$01
	.byte	$80
_perryshrink1_data:
	.byte	$06
	.byte	$04
	.byte	$33
	.byte	$01
	.byte	$80
_perryshrink2_data:
	.byte	$06
	.byte	$04
	.byte	$34
	.byte	$01
	.byte	$80
_floateyes0_data:
	.byte	$FF
	.byte	$00
	.byte	$35
	.byte	$00
	.byte	$00
	.byte	$00
	.byte	$43
	.byte	$01
	.byte	$80
_floateyes1_data:
	.byte	$FF
	.byte	$00
	.byte	$35
	.byte	$00
	.byte	$00
	.byte	$00
	.byte	$44
	.byte	$01
	.byte	$80
_floateyes2_data:
	.byte	$FF
	.byte	$00
	.byte	$35
	.byte	$00
	.byte	$00
	.byte	$00
	.byte	$45
	.byte	$01
	.byte	$80
_bigdoor0_data:
	.byte	$00
	.byte	$00
	.byte	$A4
	.byte	$00
	.byte	$80
_bigdoor1_data:
	.byte	$FF
	.byte	$FA
	.byte	$94
	.byte	$00
	.byte	$07
	.byte	$FA
	.byte	$95
	.byte	$00
	.byte	$FF
	.byte	$02
	.byte	$02
	.byte	$00
	.byte	$07
	.byte	$02
	.byte	$A5
	.byte	$00
	.byte	$80
_bigdoor2_data:
	.byte	$FC
	.byte	$FC
	.byte	$96
	.byte	$00
	.byte	$04
	.byte	$FC
	.byte	$96
	.byte	$40
	.byte	$FE
	.byte	$04
	.byte	$02
	.byte	$00
	.byte	$02
	.byte	$04
	.byte	$02
	.byte	$00
	.byte	$80
_bigdoor3_data:
	.byte	$FC
	.byte	$06
	.byte	$02
	.byte	$00
	.byte	$04
	.byte	$06
	.byte	$02
	.byte	$00
	.byte	$FC
	.byte	$FE
	.byte	$02
	.byte	$00
	.byte	$04
	.byte	$FE
	.byte	$02
	.byte	$00
	.byte	$FC
	.byte	$F6
	.byte	$A6
	.byte	$00
	.byte	$04
	.byte	$F6
	.byte	$A6
	.byte	$40
	.byte	$80
_bigdoor4_data:
	.byte	$FA
	.byte	$08
	.byte	$02
	.byte	$00
	.byte	$06
	.byte	$08
	.byte	$02
	.byte	$00
	.byte	$FA
	.byte	$00
	.byte	$02
	.byte	$00
	.byte	$06
	.byte	$00
	.byte	$02
	.byte	$00
	.byte	$FD
	.byte	$F4
	.byte	$A6
	.byte	$00
	.byte	$04
	.byte	$F5
	.byte	$96
	.byte	$40
	.byte	$00
	.byte	$08
	.byte	$02
	.byte	$00
	.byte	$01
	.byte	$00
	.byte	$02
	.byte	$00
	.byte	$F9
	.byte	$F5
	.byte	$96
	.byte	$00
	.byte	$07
	.byte	$F5
	.byte	$96
	.byte	$40
	.byte	$00
	.byte	$F8
	.byte	$02
	.byte	$00
	.byte	$FA
	.byte	$FC
	.byte	$02
	.byte	$00
	.byte	$06
	.byte	$FC
	.byte	$02
	.byte	$00
	.byte	$FE
	.byte	$EF
	.byte	$94
	.byte	$00
	.byte	$06
	.byte	$F4
	.byte	$A5
	.byte	$00
	.byte	$08
	.byte	$EF
	.byte	$95
	.byte	$00
	.byte	$80
_bigdoor5_data:
	.byte	$F8
	.byte	$0A
	.byte	$02
	.byte	$00
	.byte	$08
	.byte	$0A
	.byte	$02
	.byte	$00
	.byte	$F8
	.byte	$02
	.byte	$02
	.byte	$00
	.byte	$08
	.byte	$02
	.byte	$02
	.byte	$00
	.byte	$00
	.byte	$0A
	.byte	$02
	.byte	$00
	.byte	$00
	.byte	$02
	.byte	$02
	.byte	$00
	.byte	$00
	.byte	$FC
	.byte	$02
	.byte	$00
	.byte	$F8
	.byte	$FC
	.byte	$02
	.byte	$00
	.byte	$08
	.byte	$FC
	.byte	$02
	.byte	$00
	.byte	$FF
	.byte	$F5
	.byte	$02
	.byte	$00
	.byte	$F7
	.byte	$F4
	.byte	$96
	.byte	$00
	.byte	$09
	.byte	$F4
	.byte	$96
	.byte	$40
	.byte	$03
	.byte	$F5
	.byte	$02
	.byte	$00
	.byte	$FB
	.byte	$F0
	.byte	$A6
	.byte	$00
	.byte	$05
	.byte	$F0
	.byte	$A6
	.byte	$40
	.byte	$00
	.byte	$F2
	.byte	$02
	.byte	$00
	.byte	$80
_bigdoor6_data:
	.byte	$F6
	.byte	$0C
	.byte	$02
	.byte	$00
	.byte	$0A
	.byte	$0C
	.byte	$02
	.byte	$00
	.byte	$F6
	.byte	$04
	.byte	$02
	.byte	$00
	.byte	$0A
	.byte	$04
	.byte	$02
	.byte	$00
	.byte	$FD
	.byte	$0C
	.byte	$02
	.byte	$00
	.byte	$03
	.byte	$FC
	.byte	$02
	.byte	$00
	.byte	$FD
	.byte	$04
	.byte	$02
	.byte	$00
	.byte	$FE
	.byte	$FC
	.byte	$02
	.byte	$00
	.byte	$F6
	.byte	$FC
	.byte	$02
	.byte	$00
	.byte	$04
	.byte	$F4
	.byte	$02
	.byte	$00
	.byte	$0A
	.byte	$FC
	.byte	$02
	.byte	$00
	.byte	$0B
	.byte	$F4
	.byte	$96
	.byte	$40
	.byte	$FD
	.byte	$F4
	.byte	$02
	.byte	$00
	.byte	$F5
	.byte	$F4
	.byte	$96
	.byte	$00
	.byte	$F7
	.byte	$F0
	.byte	$96
	.byte	$00
	.byte	$09
	.byte	$F0
	.byte	$96
	.byte	$40
	.byte	$FE
	.byte	$F0
	.byte	$02
	.byte	$00
	.byte	$03
	.byte	$0C
	.byte	$02
	.byte	$00
	.byte	$04
	.byte	$04
	.byte	$02
	.byte	$00
	.byte	$02
	.byte	$F0
	.byte	$02
	.byte	$00
	.byte	$80
_bigdoor7_data:
	.byte	$F4
	.byte	$0E
	.byte	$02
	.byte	$00
	.byte	$0C
	.byte	$0E
	.byte	$02
	.byte	$00
	.byte	$F4
	.byte	$06
	.byte	$02
	.byte	$00
	.byte	$0C
	.byte	$06
	.byte	$02
	.byte	$00
	.byte	$FC
	.byte	$0E
	.byte	$02
	.byte	$00
	.byte	$FC
	.byte	$06
	.byte	$02
	.byte	$00
	.byte	$FC
	.byte	$FE
	.byte	$02
	.byte	$00
	.byte	$F4
	.byte	$FE
	.byte	$02
	.byte	$00
	.byte	$0C
	.byte	$FE
	.byte	$02
	.byte	$00
	.byte	$04
	.byte	$FE
	.byte	$02
	.byte	$00
	.byte	$0B
	.byte	$FA
	.byte	$02
	.byte	$00
	.byte	$F7
	.byte	$EE
	.byte	$96
	.byte	$00
	.byte	$09
	.byte	$EE
	.byte	$96
	.byte	$40
	.byte	$FE
	.byte	$EE
	.byte	$02
	.byte	$00
	.byte	$0C
	.byte	$F2
	.byte	$96
	.byte	$40
	.byte	$04
	.byte	$0E
	.byte	$02
	.byte	$00
	.byte	$04
	.byte	$06
	.byte	$02
	.byte	$00
	.byte	$F5
	.byte	$FA
	.byte	$02
	.byte	$00
	.byte	$02
	.byte	$EE
	.byte	$02
	.byte	$00
	.byte	$F4
	.byte	$F2
	.byte	$96
	.byte	$00
	.byte	$FC
	.byte	$F6
	.byte	$02
	.byte	$00
	.byte	$04
	.byte	$F6
	.byte	$02
	.byte	$00
	.byte	$80
_gamepad_data:
	.byte	$00
	.byte	$00
	.byte	$F4
	.byte	$03
	.byte	$08
	.byte	$00
	.byte	$F9
	.byte	$00
	.byte	$08
	.byte	$00
	.byte	$F5
	.byte	$03
	.byte	$80
_advantage_data:
	.byte	$07
	.byte	$00
	.byte	$F8
	.byte	$00
	.byte	$00
	.byte	$00
	.byte	$F6
	.byte	$03
	.byte	$08
	.byte	$00
	.byte	$F7
	.byte	$03
	.byte	$08
	.byte	$F8
	.byte	$E7
	.byte	$03
	.byte	$00
	.byte	$F8
	.byte	$E6
	.byte	$03
	.byte	$80
_powerpad_data:
	.byte	$01
	.byte	$06
	.byte	$E5
	.byte	$00
	.byte	$08
	.byte	$06
	.byte	$E5
	.byte	$00
	.byte	$00
	.byte	$00
	.byte	$D4
	.byte	$03
	.byte	$08
	.byte	$00
	.byte	$D4
	.byte	$43
	.byte	$00
	.byte	$08
	.byte	$E4
	.byte	$03
	.byte	$08
	.byte	$08
	.byte	$E4
	.byte	$43
	.byte	$80
_zapper_data:
	.byte	$08
	.byte	$00
	.byte	$F2
	.byte	$00
	.byte	$00
	.byte	$00
	.byte	$E2
	.byte	$03
	.byte	$08
	.byte	$00
	.byte	$E3
	.byte	$03
	.byte	$08
	.byte	$08
	.byte	$F3
	.byte	$03
	.byte	$80
_arrowdown0_data:
	.byte	$00
	.byte	$08
	.byte	$19
	.byte	$80
	.byte	$00
	.byte	$00
	.byte	$2A
	.byte	$80
	.byte	$08
	.byte	$08
	.byte	$19
	.byte	$C0
	.byte	$08
	.byte	$00
	.byte	$2A
	.byte	$C0
	.byte	$00
	.byte	$08
	.byte	$28
	.byte	$00
	.byte	$08
	.byte	$08
	.byte	$28
	.byte	$40
	.byte	$80
_arrowdown1_data:
	.byte	$00
	.byte	$09
	.byte	$19
	.byte	$80
	.byte	$00
	.byte	$01
	.byte	$2A
	.byte	$80
	.byte	$08
	.byte	$09
	.byte	$19
	.byte	$C0
	.byte	$08
	.byte	$01
	.byte	$2A
	.byte	$C0
	.byte	$00
	.byte	$08
	.byte	$28
	.byte	$00
	.byte	$08
	.byte	$08
	.byte	$28
	.byte	$40
	.byte	$80
_arrowup0_data:
	.byte	$00
	.byte	$00
	.byte	$19
	.byte	$00
	.byte	$00
	.byte	$08
	.byte	$29
	.byte	$00
	.byte	$08
	.byte	$00
	.byte	$19
	.byte	$40
	.byte	$08
	.byte	$08
	.byte	$29
	.byte	$40
	.byte	$80
_arrowup1_data:
	.byte	$00
	.byte	$01
	.byte	$19
	.byte	$00
	.byte	$00
	.byte	$08
	.byte	$2A
	.byte	$00
	.byte	$08
	.byte	$01
	.byte	$19
	.byte	$40
	.byte	$08
	.byte	$08
	.byte	$2A
	.byte	$40
	.byte	$80
_arrowright0_data:
	.byte	$08
	.byte	$08
	.byte	$19
	.byte	$C0
	.byte	$08
	.byte	$00
	.byte	$19
	.byte	$40
	.byte	$00
	.byte	$09
	.byte	$18
	.byte	$40
	.byte	$00
	.byte	$01
	.byte	$17
	.byte	$C0
	.byte	$08
	.byte	$08
	.byte	$28
	.byte	$40
	.byte	$80
_arrowright1_data:
	.byte	$08
	.byte	$09
	.byte	$19
	.byte	$C0
	.byte	$08
	.byte	$01
	.byte	$19
	.byte	$40
	.byte	$00
	.byte	$09
	.byte	$17
	.byte	$40
	.byte	$00
	.byte	$02
	.byte	$17
	.byte	$C0
	.byte	$80
_arrowleft_data:
	.byte	$00
	.byte	$08
	.byte	$19
	.byte	$80
	.byte	$00
	.byte	$00
	.byte	$19
	.byte	$00
	.byte	$08
	.byte	$08
	.byte	$18
	.byte	$00
	.byte	$08
	.byte	$00
	.byte	$17
	.byte	$80
	.byte	$00
	.byte	$08
	.byte	$28
	.byte	$00
	.byte	$80
_arrowleft1_data:
	.byte	$00
	.byte	$09
	.byte	$19
	.byte	$80
	.byte	$00
	.byte	$01
	.byte	$19
	.byte	$00
	.byte	$08
	.byte	$09
	.byte	$17
	.byte	$00
	.byte	$08
	.byte	$01
	.byte	$17
	.byte	$80
	.byte	$80
_button0_data:
	.byte	$00
	.byte	$00
	.byte	$0A
	.byte	$00
	.byte	$08
	.byte	$00
	.byte	$0A
	.byte	$40
	.byte	$00
	.byte	$08
	.byte	$1A
	.byte	$00
	.byte	$08
	.byte	$08
	.byte	$1A
	.byte	$40
	.byte	$80
_button1_data:
	.byte	$00
	.byte	$02
	.byte	$0A
	.byte	$00
	.byte	$08
	.byte	$02
	.byte	$0A
	.byte	$40
	.byte	$00
	.byte	$08
	.byte	$0A
	.byte	$80
	.byte	$08
	.byte	$08
	.byte	$0A
	.byte	$C0
	.byte	$80
_widebutton0_data:
	.byte	$04
	.byte	$02
	.byte	$18
	.byte	$40
	.byte	$FF
	.byte	$02
	.byte	$18
	.byte	$40
	.byte	$00
	.byte	$01
	.byte	$17
	.byte	$00
	.byte	$05
	.byte	$01
	.byte	$17
	.byte	$00
	.byte	$80
_widebutton0__1_data:
	.byte	$00
	.byte	$02
	.byte	$17
	.byte	$00
	.byte	$05
	.byte	$02
	.byte	$17
	.byte	$00
	.byte	$80
_mower0_data:
	.byte	$00
	.byte	$08
	.byte	$46
	.byte	$00
	.byte	$08
	.byte	$08
	.byte	$47
	.byte	$00
	.byte	$08
	.byte	$00
	.byte	$37
	.byte	$00
	.byte	$80
_mower1_data:
	.byte	$00
	.byte	$08
	.byte	$48
	.byte	$00
	.byte	$08
	.byte	$08
	.byte	$49
	.byte	$00
	.byte	$07
	.byte	$00
	.byte	$37
	.byte	$00
	.byte	$80
_buddywalkeft0_data:
	.byte	$02
	.byte	$06
	.byte	$9D
	.byte	$01
	.byte	$00
	.byte	$00
	.byte	$8E
	.byte	$00
	.byte	$08
	.byte	$00
	.byte	$8F
	.byte	$00
	.byte	$00
	.byte	$08
	.byte	$9E
	.byte	$00
	.byte	$08
	.byte	$08
	.byte	$9F
	.byte	$00
	.byte	$00
	.byte	$10
	.byte	$AE
	.byte	$00
	.byte	$08
	.byte	$10
	.byte	$AF
	.byte	$00
	.byte	$80
_buddywalkleft1_data:
	.byte	$02
	.byte	$06
	.byte	$9D
	.byte	$01
	.byte	$00
	.byte	$00
	.byte	$8E
	.byte	$00
	.byte	$08
	.byte	$00
	.byte	$8F
	.byte	$00
	.byte	$00
	.byte	$08
	.byte	$9E
	.byte	$00
	.byte	$08
	.byte	$08
	.byte	$9F
	.byte	$00
	.byte	$00
	.byte	$10
	.byte	$AC
	.byte	$00
	.byte	$08
	.byte	$10
	.byte	$AD
	.byte	$00
	.byte	$80
_buddywalkeft0__1_data:
	.byte	$06
	.byte	$06
	.byte	$9D
	.byte	$41
	.byte	$08
	.byte	$00
	.byte	$8E
	.byte	$40
	.byte	$00
	.byte	$00
	.byte	$8F
	.byte	$40
	.byte	$08
	.byte	$08
	.byte	$9E
	.byte	$40
	.byte	$00
	.byte	$08
	.byte	$9F
	.byte	$40
	.byte	$08
	.byte	$10
	.byte	$AE
	.byte	$40
	.byte	$00
	.byte	$10
	.byte	$AF
	.byte	$40
	.byte	$80
_buddywalkleft1__1_data:
	.byte	$06
	.byte	$06
	.byte	$9D
	.byte	$41
	.byte	$08
	.byte	$00
	.byte	$8E
	.byte	$40
	.byte	$00
	.byte	$00
	.byte	$8F
	.byte	$40
	.byte	$08
	.byte	$08
	.byte	$9E
	.byte	$40
	.byte	$00
	.byte	$08
	.byte	$9F
	.byte	$40
	.byte	$08
	.byte	$10
	.byte	$AC
	.byte	$40
	.byte	$00
	.byte	$10
	.byte	$AD
	.byte	$40
	.byte	$80
_buddywalkdown0_data:
	.byte	$04
	.byte	$07
	.byte	$9C
	.byte	$01
	.byte	$00
	.byte	$00
	.byte	$8A
	.byte	$00
	.byte	$08
	.byte	$00
	.byte	$8B
	.byte	$00
	.byte	$00
	.byte	$08
	.byte	$9A
	.byte	$00
	.byte	$08
	.byte	$08
	.byte	$9B
	.byte	$00
	.byte	$00
	.byte	$10
	.byte	$AA
	.byte	$00
	.byte	$08
	.byte	$10
	.byte	$AB
	.byte	$00
	.byte	$80
_buddywalkdown1_data:
	.byte	$04
	.byte	$07
	.byte	$9C
	.byte	$01
	.byte	$00
	.byte	$00
	.byte	$8A
	.byte	$00
	.byte	$08
	.byte	$00
	.byte	$8B
	.byte	$00
	.byte	$00
	.byte	$08
	.byte	$9A
	.byte	$00
	.byte	$08
	.byte	$08
	.byte	$9B
	.byte	$00
	.byte	$00
	.byte	$10
	.byte	$A8
	.byte	$00
	.byte	$08
	.byte	$10
	.byte	$A9
	.byte	$00
	.byte	$80
_unnamed_data:
	.byte	$00
	.byte	$00
	.byte	$88
	.byte	$00
	.byte	$08
	.byte	$00
	.byte	$89
	.byte	$00
	.byte	$00
	.byte	$08
	.byte	$98
	.byte	$00
	.byte	$08
	.byte	$08
	.byte	$99
	.byte	$00
	.byte	$00
	.byte	$10
	.byte	$78
	.byte	$00
	.byte	$08
	.byte	$10
	.byte	$79
	.byte	$00
	.byte	$80
_unnamed__3_data:
	.byte	$00
	.byte	$00
	.byte	$88
	.byte	$00
	.byte	$08
	.byte	$00
	.byte	$89
	.byte	$00
	.byte	$00
	.byte	$08
	.byte	$98
	.byte	$00
	.byte	$08
	.byte	$08
	.byte	$99
	.byte	$00
	.byte	$00
	.byte	$10
	.byte	$7A
	.byte	$00
	.byte	$08
	.byte	$10
	.byte	$7B
	.byte	$00
	.byte	$80
_lock_data:
	.byte	$00
	.byte	$00
	.byte	$B4
	.byte	$03
	.byte	$08
	.byte	$00
	.byte	$B5
	.byte	$03
	.byte	$00
	.byte	$08
	.byte	$C4
	.byte	$03
	.byte	$08
	.byte	$08
	.byte	$C5
	.byte	$03
	.byte	$80
_pitopen0_data:
	.byte	$04
	.byte	$04
	.byte	$24
	.byte	$00
	.byte	$80
_pitopen1_data:
	.byte	$04
	.byte	$04
	.byte	$25
	.byte	$00
	.byte	$80
_pitopen2_data:
	.byte	$01
	.byte	$01
	.byte	$26
	.byte	$00
	.byte	$07
	.byte	$01
	.byte	$26
	.byte	$40
	.byte	$01
	.byte	$07
	.byte	$26
	.byte	$80
	.byte	$07
	.byte	$07
	.byte	$26
	.byte	$C0
	.byte	$80
_pitopen3_data:
	.byte	$00
	.byte	$00
	.byte	$26
	.byte	$00
	.byte	$08
	.byte	$00
	.byte	$26
	.byte	$40
	.byte	$00
	.byte	$08
	.byte	$26
	.byte	$80
	.byte	$08
	.byte	$08
	.byte	$26
	.byte	$C0
	.byte	$80
_redarrow_data:
	.byte	$00
	.byte	$08
	.byte	$0B
	.byte	$00
	.byte	$08
	.byte	$00
	.byte	$0B
	.byte	$00
	.byte	$08
	.byte	$08
	.byte	$01
	.byte	$00
	.byte	$08
	.byte	$10
	.byte	$01
	.byte	$00
	.byte	$08
	.byte	$18
	.byte	$0B
	.byte	$80
	.byte	$00
	.byte	$10
	.byte	$0B
	.byte	$80
	.byte	$10
	.byte	$10
	.byte	$01
	.byte	$00
	.byte	$18
	.byte	$10
	.byte	$01
	.byte	$00
	.byte	$10
	.byte	$08
	.byte	$01
	.byte	$00
	.byte	$18
	.byte	$08
	.byte	$01
	.byte	$00
	.byte	$80
_whitebox24x24_data:
	.byte	$FC
	.byte	$FC
	.byte	$01
	.byte	$01
	.byte	$04
	.byte	$FC
	.byte	$01
	.byte	$01
	.byte	$0C
	.byte	$FC
	.byte	$01
	.byte	$01
	.byte	$FC
	.byte	$04
	.byte	$01
	.byte	$01
	.byte	$FC
	.byte	$0C
	.byte	$01
	.byte	$01
	.byte	$04
	.byte	$04
	.byte	$01
	.byte	$01
	.byte	$0C
	.byte	$04
	.byte	$01
	.byte	$01
	.byte	$0C
	.byte	$0C
	.byte	$01
	.byte	$01
	.byte	$04
	.byte	$0C
	.byte	$01
	.byte	$01
	.byte	$80
_housemaskingsprite_data:
	.byte	$00
	.byte	$00
	.byte	$D8
	.byte	$03
	.byte	$00
	.byte	$08
	.byte	$E8
	.byte	$03
	.byte	$08
	.byte	$00
	.byte	$D8
	.byte	$43
	.byte	$08
	.byte	$08
	.byte	$E8
	.byte	$43
	.byte	$80
_bifglagred0_data:
	.byte	$00
	.byte	$00
	.byte	$B6
	.byte	$00
	.byte	$08
	.byte	$00
	.byte	$B7
	.byte	$00
	.byte	$00
	.byte	$08
	.byte	$C6
	.byte	$00
	.byte	$08
	.byte	$08
	.byte	$C7
	.byte	$00
	.byte	$80
_bigflagred1_data:
	.byte	$00
	.byte	$00
	.byte	$B6
	.byte	$00
	.byte	$08
	.byte	$00
	.byte	$B8
	.byte	$00
	.byte	$00
	.byte	$08
	.byte	$C6
	.byte	$00
	.byte	$08
	.byte	$08
	.byte	$C8
	.byte	$00
	.byte	$80
_biflagred2_data:
	.byte	$00
	.byte	$00
	.byte	$B6
	.byte	$00
	.byte	$08
	.byte	$00
	.byte	$B9
	.byte	$00
	.byte	$00
	.byte	$08
	.byte	$C6
	.byte	$00
	.byte	$08
	.byte	$08
	.byte	$C9
	.byte	$00
	.byte	$80
_bigflagred3_data:
	.byte	$00
	.byte	$00
	.byte	$BA
	.byte	$00
	.byte	$00
	.byte	$08
	.byte	$CA
	.byte	$00
	.byte	$80
_bifglagwhite0_data:
	.byte	$00
	.byte	$00
	.byte	$B6
	.byte	$01
	.byte	$08
	.byte	$00
	.byte	$B7
	.byte	$01
	.byte	$00
	.byte	$08
	.byte	$C6
	.byte	$01
	.byte	$08
	.byte	$08
	.byte	$C7
	.byte	$01
	.byte	$80
_bigflagwhite1_data:
	.byte	$00
	.byte	$00
	.byte	$B6
	.byte	$01
	.byte	$08
	.byte	$00
	.byte	$B8
	.byte	$01
	.byte	$00
	.byte	$08
	.byte	$C6
	.byte	$01
	.byte	$08
	.byte	$08
	.byte	$C8
	.byte	$01
	.byte	$80
_bigflagwhite2_data:
	.byte	$00
	.byte	$00
	.byte	$B6
	.byte	$01
	.byte	$08
	.byte	$00
	.byte	$B9
	.byte	$01
	.byte	$00
	.byte	$08
	.byte	$C6
	.byte	$01
	.byte	$08
	.byte	$08
	.byte	$C9
	.byte	$01
	.byte	$80
_bigflagwhite3_data:
	.byte	$00
	.byte	$00
	.byte	$BA
	.byte	$01
	.byte	$00
	.byte	$08
	.byte	$CA
	.byte	$01
	.byte	$80
_White_perry_data:
	.byte	$00
	.byte	$00
	.byte	$01
	.byte	$01
	.byte	$08
	.byte	$00
	.byte	$01
	.byte	$01
	.byte	$10
	.byte	$00
	.byte	$01
	.byte	$01
	.byte	$00
	.byte	$08
	.byte	$01
	.byte	$01
	.byte	$00
	.byte	$10
	.byte	$01
	.byte	$01
	.byte	$08
	.byte	$08
	.byte	$01
	.byte	$01
	.byte	$10
	.byte	$08
	.byte	$01
	.byte	$01
	.byte	$10
	.byte	$10
	.byte	$01
	.byte	$01
	.byte	$08
	.byte	$10
	.byte	$01
	.byte	$01
	.byte	$80
_White_duck_data:
	.byte	$08
	.byte	$00
	.byte	$03
	.byte	$00
	.byte	$10
	.byte	$00
	.byte	$03
	.byte	$00
	.byte	$08
	.byte	$08
	.byte	$03
	.byte	$00
	.byte	$10
	.byte	$08
	.byte	$03
	.byte	$00
	.byte	$18
	.byte	$08
	.byte	$03
	.byte	$00
	.byte	$18
	.byte	$10
	.byte	$03
	.byte	$00
	.byte	$10
	.byte	$10
	.byte	$03
	.byte	$00
	.byte	$08
	.byte	$10
	.byte	$03
	.byte	$00
	.byte	$00
	.byte	$10
	.byte	$03
	.byte	$00
	.byte	$00
	.byte	$08
	.byte	$03
	.byte	$00
	.byte	$00
	.byte	$18
	.byte	$03
	.byte	$00
	.byte	$08
	.byte	$18
	.byte	$03
	.byte	$00
	.byte	$10
	.byte	$18
	.byte	$03
	.byte	$00
	.byte	$18
	.byte	$18
	.byte	$03
	.byte	$00
	.byte	$18
	.byte	$20
	.byte	$03
	.byte	$00
	.byte	$10
	.byte	$20
	.byte	$03
	.byte	$00
	.byte	$08
	.byte	$20
	.byte	$03
	.byte	$00
	.byte	$00
	.byte	$20
	.byte	$03
	.byte	$00
	.byte	$80
_level1_0:
	.byte	$A0
	.byte	$A0
	.byte	$A0
	.byte	$A0
	.byte	$A0
	.byte	$A0
	.byte	$A0
	.byte	$A0
	.byte	$A0
	.byte	$A0
	.byte	$A0
	.byte	$A0
	.byte	$A0
	.byte	$A0
	.byte	$A0
	.byte	$A0
	.byte	$A0
	.byte	$A0
	.byte	$A0
	.byte	$A0
	.byte	$A0
	.byte	$A0
	.byte	$A0
	.byte	$A0
	.byte	$A0
	.byte	$A0
	.byte	$A0
	.byte	$A0
	.byte	$A0
	.byte	$A0
	.byte	$A0
	.byte	$A0
	.byte	$34
	.byte	$31
	.byte	$32
	.byte	$31
	.byte	$31
	.byte	$31
	.byte	$32
	.byte	$31
	.byte	$31
	.byte	$32
	.byte	$31
	.byte	$31
	.byte	$32
	.byte	$31
	.byte	$31
	.byte	$33
	.byte	$35
	.byte	$04
	.byte	$02
	.byte	$03
	.byte	$04
	.byte	$05
	.byte	$06
	.byte	$07
	.byte	$08
	.byte	$04
	.byte	$0A
	.byte	$21
	.byte	$04
	.byte	$0A
	.byte	$26
	.byte	$36
	.byte	$35
	.byte	$00
	.byte	$00
	.byte	$07
	.byte	$2B
	.byte	$00
	.byte	$00
	.byte	$00
	.byte	$00
	.byte	$00
	.byte	$00
	.byte	$00
	.byte	$0A
	.byte	$07
	.byte	$00
	.byte	$36
	.byte	$35
	.byte	$06
	.byte	$00
	.byte	$2C
	.byte	$09
	.byte	$0A
	.byte	$00
	.byte	$06
	.byte	$00
	.byte	$04
	.byte	$00
	.byte	$07
	.byte	$00
	.byte	$07
	.byte	$1B
	.byte	$36
	.byte	$35
	.byte	$25
	.byte	$07
	.byte	$0A
	.byte	$00
	.byte	$00
	.byte	$00
	.byte	$07
	.byte	$00
	.byte	$00
	.byte	$00
	.byte	$00
	.byte	$00
	.byte	$00
	.byte	$04
	.byte	$36
	.byte	$35
	.byte	$00
	.byte	$07
	.byte	$00
	.byte	$00
	.byte	$03
	.byte	$00
	.byte	$00
	.byte	$00
	.byte	$07
	.byte	$00
	.byte	$07
	.byte	$03
	.byte	$00
	.byte	$26
	.byte	$36
	.byte	$35
	.byte	$03
	.byte	$00
	.byte	$00
	.byte	$04
	.byte	$00
	.byte	$07
	.byte	$00
	.byte	$00
	.byte	$00
	.byte	$00
	.byte	$00
	.byte	$00
	.byte	$00
	.byte	$07
	.byte	$36
	.byte	$35
	.byte	$25
	.byte	$2B
	.byte	$00
	.byte	$00
	.byte	$00
	.byte	$07
	.byte	$00
	.byte	$07
	.byte	$00
	.byte	$0A
	.byte	$00
	.byte	$00
	.byte	$07
	.byte	$00
	.byte	$36
	.byte	$35
	.byte	$02
	.byte	$00
	.byte	$09
	.byte	$0A
	.byte	$00
	.byte	$00
	.byte	$00
	.byte	$00
	.byte	$00
	.byte	$00
	.byte	$2C
	.byte	$2B
	.byte	$00
	.byte	$00
	.byte	$36
	.byte	$35
	.byte	$00
	.byte	$06
	.byte	$00
	.byte	$00
	.byte	$00
	.byte	$00
	.byte	$09
	.byte	$0A
	.byte	$00
	.byte	$07
	.byte	$2B
	.byte	$4B
	.byte	$2A
	.byte	$07
	.byte	$36
	.byte	$35
	.byte	$14
	.byte	$17
	.byte	$00
	.byte	$09
	.byte	$0A
	.byte	$00
	.byte	$00
	.byte	$00
	.byte	$07
	.byte	$00
	.byte	$00
	.byte	$22
	.byte	$00
	.byte	$00
	.byte	$36
	.byte	$35
	.byte	$01
	.byte	$17
	.byte	$19
	.byte	$00
	.byte	$03
	.byte	$00
	.byte	$07
	.byte	$00
	.byte	$23
	.byte	$00
	.byte	$00
	.byte	$07
	.byte	$07
	.byte	$00
	.byte	$36
	.byte	$39
	.byte	$37
	.byte	$37
	.byte	$37
	.byte	$37
	.byte	$37
	.byte	$37
	.byte	$37
	.byte	$37
	.byte	$37
	.byte	$37
	.byte	$37
	.byte	$37
	.byte	$37
	.byte	$37
	.byte	$38
_level2:
	.byte	$A0
	.byte	$A0
	.byte	$A0
	.byte	$A0
	.byte	$A0
	.byte	$A0
	.byte	$A0
	.byte	$A0
	.byte	$A0
	.byte	$A0
	.byte	$A0
	.byte	$A0
	.byte	$A0
	.byte	$A0
	.byte	$A0
	.byte	$A0
	.byte	$A0
	.byte	$A0
	.byte	$A0
	.byte	$A0
	.byte	$A0
	.byte	$A0
	.byte	$A0
	.byte	$A0
	.byte	$A0
	.byte	$A0
	.byte	$A0
	.byte	$A0
	.byte	$A0
	.byte	$A0
	.byte	$A0
	.byte	$A0
	.byte	$34
	.byte	$31
	.byte	$31
	.byte	$32
	.byte	$31
	.byte	$31
	.byte	$31
	.byte	$32
	.byte	$31
	.byte	$31
	.byte	$31
	.byte	$32
	.byte	$31
	.byte	$31
	.byte	$31
	.byte	$33
	.byte	$35
	.byte	$04
	.byte	$02
	.byte	$03
	.byte	$04
	.byte	$05
	.byte	$06
	.byte	$07
	.byte	$08
	.byte	$04
	.byte	$0A
	.byte	$00
	.byte	$04
	.byte	$3A
	.byte	$26
	.byte	$36
	.byte	$35
	.byte	$00
	.byte	$00
	.byte	$07
	.byte	$00
	.byte	$00
	.byte	$00
	.byte	$00
	.byte	$3C
	.byte	$3C
	.byte	$3C
	.byte	$3C
	.byte	$0A
	.byte	$3B
	.byte	$4B
	.byte	$36
	.byte	$35
	.byte	$03
	.byte	$00
	.byte	$00
	.byte	$09
	.byte	$0A
	.byte	$00
	.byte	$06
	.byte	$21
	.byte	$04
	.byte	$22
	.byte	$3C
	.byte	$00
	.byte	$3A
	.byte	$22
	.byte	$36
	.byte	$35
	.byte	$00
	.byte	$3A
	.byte	$00
	.byte	$00
	.byte	$00
	.byte	$00
	.byte	$07
	.byte	$3A
	.byte	$3C
	.byte	$3C
	.byte	$3C
	.byte	$00
	.byte	$3A
	.byte	$00
	.byte	$36
	.byte	$35
	.byte	$07
	.byte	$3C
	.byte	$3A
	.byte	$3C
	.byte	$3A
	.byte	$3C
	.byte	$3C
	.byte	$3C
	.byte	$07
	.byte	$00
	.byte	$07
	.byte	$00
	.byte	$3A
	.byte	$00
	.byte	$36
	.byte	$35
	.byte	$00
	.byte	$21
	.byte	$3A
	.byte	$04
	.byte	$3A
	.byte	$21
	.byte	$21
	.byte	$22
	.byte	$00
	.byte	$00
	.byte	$00
	.byte	$00
	.byte	$3B
	.byte	$07
	.byte	$36
	.byte	$35
	.byte	$00
	.byte	$3C
	.byte	$3B
	.byte	$04
	.byte	$3C
	.byte	$07
	.byte	$3A
	.byte	$07
	.byte	$00
	.byte	$0A
	.byte	$00
	.byte	$00
	.byte	$3B
	.byte	$00
	.byte	$36
	.byte	$35
	.byte	$0A
	.byte	$21
	.byte	$3A
	.byte	$04
	.byte	$00
	.byte	$00
	.byte	$3B
	.byte	$00
	.byte	$3A
	.byte	$3C
	.byte	$3C
	.byte	$3C
	.byte	$3A
	.byte	$00
	.byte	$36
	.byte	$35
	.byte	$00
	.byte	$3C
	.byte	$3A
	.byte	$00
	.byte	$3C
	.byte	$3C
	.byte	$3B
	.byte	$0A
	.byte	$3A
	.byte	$25
	.byte	$08
	.byte	$22
	.byte	$3C
	.byte	$07
	.byte	$36
	.byte	$35
	.byte	$00
	.byte	$07
	.byte	$3C
	.byte	$09
	.byte	$0A
	.byte	$00
	.byte	$3A
	.byte	$00
	.byte	$3C
	.byte	$00
	.byte	$3A
	.byte	$00
	.byte	$00
	.byte	$00
	.byte	$36
	.byte	$35
	.byte	$07
	.byte	$00
	.byte	$21
	.byte	$00
	.byte	$00
	.byte	$00
	.byte	$3B
	.byte	$00
	.byte	$22
	.byte	$08
	.byte	$3B
	.byte	$07
	.byte	$07
	.byte	$00
	.byte	$36
	.byte	$39
	.byte	$37
	.byte	$37
	.byte	$37
	.byte	$37
	.byte	$37
	.byte	$37
	.byte	$37
	.byte	$37
	.byte	$37
	.byte	$37
	.byte	$37
	.byte	$37
	.byte	$37
	.byte	$37
	.byte	$38
_level3:
	.byte	$A0
	.byte	$A0
	.byte	$A0
	.byte	$A0
	.byte	$A0
	.byte	$A0
	.byte	$A0
	.byte	$A0
	.byte	$A0
	.byte	$A0
	.byte	$A0
	.byte	$A0
	.byte	$A0
	.byte	$A0
	.byte	$A0
	.byte	$A0
	.byte	$A0
	.byte	$A0
	.byte	$A0
	.byte	$A0
	.byte	$A0
	.byte	$A0
	.byte	$A0
	.byte	$A0
	.byte	$A0
	.byte	$A0
	.byte	$A0
	.byte	$A0
	.byte	$A0
	.byte	$A0
	.byte	$A0
	.byte	$A0
	.byte	$1C
	.byte	$1C
	.byte	$1C
	.byte	$00
	.byte	$1E
	.byte	$1F
	.byte	$00
	.byte	$77
	.byte	$68
	.byte	$1C
	.byte	$0E
	.byte	$1D
	.byte	$0F
	.byte	$0C
	.byte	$0F
	.byte	$00
	.byte	$1C
	.byte	$1C
	.byte	$1C
	.byte	$1C
	.byte	$0E
	.byte	$0C
	.byte	$00
	.byte	$67
	.byte	$78
	.byte	$00
	.byte	$00
	.byte	$1D
	.byte	$1D
	.byte	$0D
	.byte	$00
	.byte	$00
	.byte	$1C
	.byte	$0E
	.byte	$1C
	.byte	$1C
	.byte	$00
	.byte	$0E
	.byte	$00
	.byte	$67
	.byte	$68
	.byte	$00
	.byte	$00
	.byte	$00
	.byte	$00
	.byte	$0E
	.byte	$1F
	.byte	$00
	.byte	$2B
	.byte	$2A
	.byte	$1C
	.byte	$1C
	.byte	$1C
	.byte	$00
	.byte	$1E
	.byte	$77
	.byte	$68
	.byte	$1F
	.byte	$00
	.byte	$00
	.byte	$00
	.byte	$00
	.byte	$00
	.byte	$00
	.byte	$00
	.byte	$1B
	.byte	$00
	.byte	$1C
	.byte	$00
	.byte	$00
	.byte	$0E
	.byte	$67
	.byte	$68
	.byte	$0E
	.byte	$1F
	.byte	$00
	.byte	$00
	.byte	$00
	.byte	$00
	.byte	$1D
	.byte	$1C
	.byte	$00
	.byte	$1D
	.byte	$1C
	.byte	$00
	.byte	$00
	.byte	$00
	.byte	$67
	.byte	$4D
	.byte	$25
	.byte	$00
	.byte	$00
	.byte	$00
	.byte	$00
	.byte	$00
	.byte	$0E
	.byte	$00
	.byte	$00
	.byte	$00
	.byte	$0E
	.byte	$1F
	.byte	$00
	.byte	$1D
	.byte	$67
	.byte	$68
	.byte	$1C
	.byte	$00
	.byte	$00
	.byte	$00
	.byte	$00
	.byte	$00
	.byte	$00
	.byte	$00
	.byte	$00
	.byte	$00
	.byte	$00
	.byte	$00
	.byte	$00
	.byte	$26
	.byte	$4D
	.byte	$68
	.byte	$1D
	.byte	$00
	.byte	$1D
	.byte	$00
	.byte	$00
	.byte	$00
	.byte	$00
	.byte	$0E
	.byte	$00
	.byte	$00
	.byte	$00
	.byte	$00
	.byte	$1D
	.byte	$00
	.byte	$67
	.byte	$68
	.byte	$00
	.byte	$00
	.byte	$0E
	.byte	$0C
	.byte	$00
	.byte	$00
	.byte	$00
	.byte	$00
	.byte	$1D
	.byte	$00
	.byte	$00
	.byte	$00
	.byte	$0C
	.byte	$1C
	.byte	$77
	.byte	$78
	.byte	$2B
	.byte	$4B
	.byte	$2A
	.byte	$0D
	.byte	$0C
	.byte	$00
	.byte	$00
	.byte	$0F
	.byte	$1C
	.byte	$1D
	.byte	$00
	.byte	$1E
	.byte	$0F
	.byte	$00
	.byte	$67
	.byte	$68
	.byte	$1F
	.byte	$21
	.byte	$00
	.byte	$1C
	.byte	$0E
	.byte	$0C
	.byte	$00
	.byte	$2A
	.byte	$1D
	.byte	$0C
	.byte	$1F
	.byte	$00
	.byte	$00
	.byte	$00
	.byte	$67
	.byte	$68
	.byte	$0F
	.byte	$2B
	.byte	$00
	.byte	$00
	.byte	$1D
	.byte	$0F
	.byte	$1D
	.byte	$93
	.byte	$93
	.byte	$93
	.byte	$92
	.byte	$93
	.byte	$93
	.byte	$93
	.byte	$A3
	.byte	$A3
	.byte	$93
	.byte	$92
	.byte	$93
	.byte	$93
	.byte	$93
	.byte	$92
	.byte	$93
_level4_0:
	.byte	$A0
	.byte	$A0
	.byte	$A0
	.byte	$A0
	.byte	$A0
	.byte	$A0
	.byte	$A0
	.byte	$A0
	.byte	$A0
	.byte	$A0
	.byte	$A0
	.byte	$A0
	.byte	$A0
	.byte	$A0
	.byte	$A0
	.byte	$A0
	.byte	$A0
	.byte	$A0
	.byte	$A0
	.byte	$A0
	.byte	$A0
	.byte	$A0
	.byte	$A0
	.byte	$A0
	.byte	$A0
	.byte	$A0
	.byte	$A0
	.byte	$A0
	.byte	$A0
	.byte	$A0
	.byte	$A0
	.byte	$A0
	.byte	$32
	.byte	$A0
	.byte	$32
	.byte	$31
	.byte	$4C
	.byte	$0E
	.byte	$1C
	.byte	$3B
	.byte	$3A
	.byte	$0A
	.byte	$11
	.byte	$4C
	.byte	$31
	.byte	$31
	.byte	$A0
	.byte	$31
	.byte	$0E
	.byte	$1C
	.byte	$00
	.byte	$1D
	.byte	$0C
	.byte	$0E
	.byte	$0E
	.byte	$3A
	.byte	$3A
	.byte	$11
	.byte	$02
	.byte	$0A
	.byte	$02
	.byte	$11
	.byte	$0A
	.byte	$11
	.byte	$0E
	.byte	$0D
	.byte	$1F
	.byte	$1C
	.byte	$00
	.byte	$0E
	.byte	$0E
	.byte	$3A
	.byte	$3A
	.byte	$0A
	.byte	$0A
	.byte	$11
	.byte	$11
	.byte	$0A
	.byte	$0A
	.byte	$0A
	.byte	$3E
	.byte	$3E
	.byte	$3E
	.byte	$3E
	.byte	$1F
	.byte	$00
	.byte	$0E
	.byte	$3C
	.byte	$3C
	.byte	$11
	.byte	$0A
	.byte	$0A
	.byte	$3F
	.byte	$3E
	.byte	$3E
	.byte	$3E
	.byte	$8A
	.byte	$8A
	.byte	$8B
	.byte	$8A
	.byte	$8A
	.byte	$8B
	.byte	$8A
	.byte	$AB
	.byte	$8B
	.byte	$8A
	.byte	$99
	.byte	$8B
	.byte	$AB
	.byte	$AB
	.byte	$8B
	.byte	$8C
	.byte	$6C
	.byte	$6C
	.byte	$6C
	.byte	$6C
	.byte	$6C
	.byte	$6C
	.byte	$6C
	.byte	$6C
	.byte	$6C
	.byte	$6C
	.byte	$6C
	.byte	$6C
	.byte	$6C
	.byte	$6C
	.byte	$6C
	.byte	$8C
	.byte	$7C
	.byte	$6C
	.byte	$7C
	.byte	$6C
	.byte	$7C
	.byte	$6C
	.byte	$7C
	.byte	$6C
	.byte	$7C
	.byte	$6C
	.byte	$7C
	.byte	$6C
	.byte	$7C
	.byte	$6C
	.byte	$7C
	.byte	$8C
	.byte	$6C
	.byte	$6C
	.byte	$6C
	.byte	$6C
	.byte	$6C
	.byte	$6C
	.byte	$6C
	.byte	$6C
	.byte	$6C
	.byte	$6C
	.byte	$6C
	.byte	$6C
	.byte	$6C
	.byte	$6C
	.byte	$6C
	.byte	$8C
	.byte	$7B
	.byte	$69
	.byte	$6A
	.byte	$7B
	.byte	$69
	.byte	$69
	.byte	$7B
	.byte	$69
	.byte	$9A
	.byte	$7B
	.byte	$A9
	.byte	$69
	.byte	$7B
	.byte	$69
	.byte	$7B
	.byte	$8C
	.byte	$3D
	.byte	$3E
	.byte	$3D
	.byte	$3D
	.byte	$0A
	.byte	$00
	.byte	$00
	.byte	$3A
	.byte	$3A
	.byte	$00
	.byte	$04
	.byte	$08
	.byte	$3F
	.byte	$3E
	.byte	$3D
	.byte	$3E
	.byte	$21
	.byte	$21
	.byte	$00
	.byte	$22
	.byte	$00
	.byte	$00
	.byte	$00
	.byte	$3B
	.byte	$3A
	.byte	$1B
	.byte	$4B
	.byte	$2C
	.byte	$08
	.byte	$00
	.byte	$00
	.byte	$22
	.byte	$00
	.byte	$00
	.byte	$00
	.byte	$09
	.byte	$00
	.byte	$09
	.byte	$08
	.byte	$3A
	.byte	$3A
	.byte	$2A
	.byte	$22
	.byte	$2B
	.byte	$2C
	.byte	$08
	.byte	$00
	.byte	$00
	.byte	$3C
	.byte	$3C
	.byte	$3C
	.byte	$3C
	.byte	$3C
	.byte	$3C
	.byte	$3C
	.byte	$3C
	.byte	$3C
	.byte	$3C
	.byte	$3C
	.byte	$3C
	.byte	$3C
	.byte	$3C
	.byte	$3C
	.byte	$3C
_level5_0:
	.byte	$A0
	.byte	$A0
	.byte	$A0
	.byte	$A0
	.byte	$A0
	.byte	$A0
	.byte	$A0
	.byte	$A0
	.byte	$A0
	.byte	$A0
	.byte	$A0
	.byte	$A0
	.byte	$A0
	.byte	$A0
	.byte	$A0
	.byte	$A0
	.byte	$A0
	.byte	$A0
	.byte	$A0
	.byte	$A0
	.byte	$A0
	.byte	$A0
	.byte	$A0
	.byte	$A0
	.byte	$A0
	.byte	$A0
	.byte	$A0
	.byte	$A0
	.byte	$A0
	.byte	$A0
	.byte	$A0
	.byte	$A0
	.byte	$3E
	.byte	$3D
	.byte	$3F
	.byte	$3E
	.byte	$3E
	.byte	$3E
	.byte	$3E
	.byte	$3E
	.byte	$3E
	.byte	$3E
	.byte	$3F
	.byte	$3E
	.byte	$3F
	.byte	$3E
	.byte	$3E
	.byte	$3E
	.byte	$03
	.byte	$04
	.byte	$22
	.byte	$00
	.byte	$00
	.byte	$22
	.byte	$04
	.byte	$01
	.byte	$00
	.byte	$00
	.byte	$00
	.byte	$00
	.byte	$21
	.byte	$08
	.byte	$00
	.byte	$0A
	.byte	$08
	.byte	$01
	.byte	$0A
	.byte	$00
	.byte	$00
	.byte	$04
	.byte	$00
	.byte	$00
	.byte	$04
	.byte	$00
	.byte	$00
	.byte	$0A
	.byte	$00
	.byte	$00
	.byte	$04
	.byte	$00
	.byte	$00
	.byte	$08
	.byte	$01
	.byte	$00
	.byte	$00
	.byte	$63
	.byte	$64
	.byte	$64
	.byte	$64
	.byte	$64
	.byte	$65
	.byte	$00
	.byte	$0A
	.byte	$0A
	.byte	$00
	.byte	$00
	.byte	$00
	.byte	$00
	.byte	$00
	.byte	$00
	.byte	$00
	.byte	$73
	.byte	$0C
	.byte	$4B
	.byte	$0D
	.byte	$0C
	.byte	$75
	.byte	$00
	.byte	$00
	.byte	$01
	.byte	$04
	.byte	$00
	.byte	$04
	.byte	$0A
	.byte	$0A
	.byte	$00
	.byte	$00
	.byte	$66
	.byte	$1E
	.byte	$0C
	.byte	$1F
	.byte	$0E
	.byte	$66
	.byte	$00
	.byte	$08
	.byte	$00
	.byte	$0A
	.byte	$00
	.byte	$00
	.byte	$00
	.byte	$04
	.byte	$06
	.byte	$00
	.byte	$76
	.byte	$0C
	.byte	$0D
	.byte	$0C
	.byte	$0C
	.byte	$75
	.byte	$00
	.byte	$00
	.byte	$0A
	.byte	$00
	.byte	$00
	.byte	$00
	.byte	$05
	.byte	$01
	.byte	$01
	.byte	$00
	.byte	$83
	.byte	$86
	.byte	$0C
	.byte	$0D
	.byte	$87
	.byte	$85
	.byte	$00
	.byte	$00
	.byte	$00
	.byte	$00
	.byte	$00
	.byte	$00
	.byte	$00
	.byte	$00
	.byte	$0A
	.byte	$00
	.byte	$00
	.byte	$4C
	.byte	$0E
	.byte	$0F
	.byte	$4C
	.byte	$00
	.byte	$00
	.byte	$1E
	.byte	$1F
	.byte	$1D
	.byte	$1C
	.byte	$00
	.byte	$01
	.byte	$00
	.byte	$00
	.byte	$00
	.byte	$00
	.byte	$22
	.byte	$00
	.byte	$1D
	.byte	$21
	.byte	$00
	.byte	$1E
	.byte	$0C
	.byte	$0D
	.byte	$0C
	.byte	$0C
	.byte	$0A
	.byte	$00
	.byte	$00
	.byte	$00
	.byte	$0A
	.byte	$00
	.byte	$00
	.byte	$00
	.byte	$00
	.byte	$00
	.byte	$00
	.byte	$0C
	.byte	$0F
	.byte	$00
	.byte	$0E
	.byte	$0C
	.byte	$00
	.byte	$00
	.byte	$00
	.byte	$00
	.byte	$00
	.byte	$00
	.byte	$0A
	.byte	$01
	.byte	$00
	.byte	$00
	.byte	$00
	.byte	$1D
	.byte	$1C
	.byte	$1D
	.byte	$1E
	.byte	$0D
	.byte	$93
	.byte	$92
	.byte	$92
	.byte	$92
	.byte	$93
	.byte	$93
	.byte	$93
	.byte	$93
	.byte	$93
	.byte	$93
	.byte	$93
	.byte	$92
	.byte	$93
	.byte	$92
	.byte	$93
	.byte	$92
_level6_0:
	.byte	$A0
	.byte	$A0
	.byte	$A0
	.byte	$A0
	.byte	$A0
	.byte	$A0
	.byte	$A0
	.byte	$A0
	.byte	$A0
	.byte	$A0
	.byte	$A0
	.byte	$A0
	.byte	$A0
	.byte	$A0
	.byte	$A0
	.byte	$A0
	.byte	$A0
	.byte	$A0
	.byte	$A0
	.byte	$A0
	.byte	$A0
	.byte	$A0
	.byte	$A0
	.byte	$A0
	.byte	$A0
	.byte	$A0
	.byte	$A0
	.byte	$A0
	.byte	$A0
	.byte	$A0
	.byte	$A0
	.byte	$A0
	.byte	$32
	.byte	$31
	.byte	$32
	.byte	$31
	.byte	$32
	.byte	$31
	.byte	$31
	.byte	$32
	.byte	$32
	.byte	$31
	.byte	$32
	.byte	$32
	.byte	$31
	.byte	$32
	.byte	$32
	.byte	$31
	.byte	$02
	.byte	$01
	.byte	$0A
	.byte	$07
	.byte	$07
	.byte	$02
	.byte	$0A
	.byte	$4C
	.byte	$4C
	.byte	$0C
	.byte	$0C
	.byte	$1C
	.byte	$0A
	.byte	$01
	.byte	$0A
	.byte	$01
	.byte	$08
	.byte	$00
	.byte	$00
	.byte	$07
	.byte	$07
	.byte	$08
	.byte	$00
	.byte	$4C
	.byte	$4C
	.byte	$0C
	.byte	$1F
	.byte	$00
	.byte	$00
	.byte	$00
	.byte	$0A
	.byte	$02
	.byte	$3D
	.byte	$4E
	.byte	$4E
	.byte	$4E
	.byte	$4E
	.byte	$3F
	.byte	$3D
	.byte	$4E
	.byte	$4E
	.byte	$4E
	.byte	$4E
	.byte	$4E
	.byte	$3A
	.byte	$00
	.byte	$01
	.byte	$3A
	.byte	$0C
	.byte	$0F
	.byte	$22
	.byte	$00
	.byte	$21
	.byte	$00
	.byte	$02
	.byte	$22
	.byte	$00
	.byte	$21
	.byte	$0E
	.byte	$0D
	.byte	$3B
	.byte	$00
	.byte	$08
	.byte	$3A
	.byte	$0E
	.byte	$07
	.byte	$00
	.byte	$00
	.byte	$0A
	.byte	$00
	.byte	$00
	.byte	$00
	.byte	$02
	.byte	$00
	.byte	$1D
	.byte	$0E
	.byte	$3A
	.byte	$06
	.byte	$00
	.byte	$3B
	.byte	$00
	.byte	$00
	.byte	$00
	.byte	$63
	.byte	$64
	.byte	$64
	.byte	$84
	.byte	$64
	.byte	$84
	.byte	$65
	.byte	$00
	.byte	$00
	.byte	$3C
	.byte	$00
	.byte	$00
	.byte	$3A
	.byte	$00
	.byte	$00
	.byte	$00
	.byte	$66
	.byte	$2B
	.byte	$2A
	.byte	$04
	.byte	$03
	.byte	$2C
	.byte	$76
	.byte	$00
	.byte	$12
	.byte	$00
	.byte	$00
	.byte	$06
	.byte	$3A
	.byte	$00
	.byte	$0A
	.byte	$00
	.byte	$4D
	.byte	$00
	.byte	$00
	.byte	$00
	.byte	$00
	.byte	$00
	.byte	$75
	.byte	$00
	.byte	$23
	.byte	$00
	.byte	$12
	.byte	$23
	.byte	$3A
	.byte	$00
	.byte	$00
	.byte	$00
	.byte	$66
	.byte	$00
	.byte	$00
	.byte	$00
	.byte	$00
	.byte	$00
	.byte	$73
	.byte	$3E
	.byte	$3E
	.byte	$3E
	.byte	$3E
	.byte	$3E
	.byte	$3E
	.byte	$0A
	.byte	$00
	.byte	$00
	.byte	$75
	.byte	$0A
	.byte	$00
	.byte	$00
	.byte	$00
	.byte	$00
	.byte	$66
	.byte	$0A
	.byte	$0A
	.byte	$1B
	.byte	$4B
	.byte	$2B
	.byte	$01
	.byte	$00
	.byte	$00
	.byte	$00
	.byte	$66
	.byte	$00
	.byte	$00
	.byte	$00
	.byte	$00
	.byte	$07
	.byte	$4D
	.byte	$12
	.byte	$07
	.byte	$1B
	.byte	$00
	.byte	$2A
	.byte	$01
	.byte	$93
	.byte	$92
	.byte	$93
	.byte	$A3
	.byte	$93
	.byte	$92
	.byte	$93
	.byte	$93
	.byte	$92
	.byte	$A3
	.byte	$93
	.byte	$92
	.byte	$93
	.byte	$93
	.byte	$93
	.byte	$92
_level7_0:
	.byte	$A0
	.byte	$A0
	.byte	$A0
	.byte	$A0
	.byte	$A0
	.byte	$A0
	.byte	$A0
	.byte	$A0
	.byte	$A0
	.byte	$A0
	.byte	$A0
	.byte	$A0
	.byte	$A0
	.byte	$A0
	.byte	$A0
	.byte	$A0
	.byte	$A0
	.byte	$A0
	.byte	$A0
	.byte	$A0
	.byte	$A0
	.byte	$A0
	.byte	$A0
	.byte	$A0
	.byte	$A0
	.byte	$A0
	.byte	$A0
	.byte	$A0
	.byte	$A0
	.byte	$A0
	.byte	$A0
	.byte	$A0
	.byte	$3A
	.byte	$03
	.byte	$00
	.byte	$00
	.byte	$00
	.byte	$00
	.byte	$02
	.byte	$03
	.byte	$04
	.byte	$05
	.byte	$1D
	.byte	$1D
	.byte	$1C
	.byte	$00
	.byte	$0E
	.byte	$3A
	.byte	$3B
	.byte	$00
	.byte	$00
	.byte	$00
	.byte	$00
	.byte	$00
	.byte	$00
	.byte	$00
	.byte	$00
	.byte	$00
	.byte	$1E
	.byte	$0C
	.byte	$0D
	.byte	$1F
	.byte	$1E
	.byte	$3A
	.byte	$3B
	.byte	$06
	.byte	$07
	.byte	$08
	.byte	$00
	.byte	$00
	.byte	$07
	.byte	$08
	.byte	$00
	.byte	$0A
	.byte	$31
	.byte	$32
	.byte	$31
	.byte	$31
	.byte	$32
	.byte	$31
	.byte	$4E
	.byte	$4E
	.byte	$3D
	.byte	$4E
	.byte	$4E
	.byte	$4E
	.byte	$00
	.byte	$00
	.byte	$00
	.byte	$00
	.byte	$00
	.byte	$21
	.byte	$21
	.byte	$21
	.byte	$06
	.byte	$3A
	.byte	$3A
	.byte	$04
	.byte	$00
	.byte	$07
	.byte	$0A
	.byte	$5F
	.byte	$00
	.byte	$00
	.byte	$00
	.byte	$03
	.byte	$04
	.byte	$00
	.byte	$46
	.byte	$00
	.byte	$08
	.byte	$3A
	.byte	$3A
	.byte	$00
	.byte	$60
	.byte	$61
	.byte	$62
	.byte	$5F
	.byte	$08
	.byte	$00
	.byte	$00
	.byte	$00
	.byte	$00
	.byte	$00
	.byte	$21
	.byte	$00
	.byte	$00
	.byte	$3A
	.byte	$3A
	.byte	$08
	.byte	$70
	.byte	$71
	.byte	$72
	.byte	$5F
	.byte	$06
	.byte	$00
	.byte	$00
	.byte	$00
	.byte	$05
	.byte	$06
	.byte	$07
	.byte	$08
	.byte	$00
	.byte	$3A
	.byte	$3B
	.byte	$00
	.byte	$80
	.byte	$81
	.byte	$82
	.byte	$5F
	.byte	$25
	.byte	$00
	.byte	$00
	.byte	$00
	.byte	$63
	.byte	$87
	.byte	$84
	.byte	$86
	.byte	$64
	.byte	$84
	.byte	$3A
	.byte	$06
	.byte	$07
	.byte	$08
	.byte	$00
	.byte	$5F
	.byte	$00
	.byte	$08
	.byte	$0A
	.byte	$00
	.byte	$75
	.byte	$0A
	.byte	$07
	.byte	$08
	.byte	$01
	.byte	$3A
	.byte	$3D
	.byte	$3D
	.byte	$3D
	.byte	$3D
	.byte	$3D
	.byte	$3D
	.byte	$00
	.byte	$08
	.byte	$08
	.byte	$00
	.byte	$73
	.byte	$00
	.byte	$2B
	.byte	$4B
	.byte	$1B
	.byte	$3B
	.byte	$3B
	.byte	$21
	.byte	$02
	.byte	$03
	.byte	$04
	.byte	$22
	.byte	$06
	.byte	$07
	.byte	$08
	.byte	$26
	.byte	$4D
	.byte	$25
	.byte	$07
	.byte	$2A
	.byte	$2C
	.byte	$3A
	.byte	$3A
	.byte	$00
	.byte	$00
	.byte	$06
	.byte	$07
	.byte	$08
	.byte	$00
	.byte	$00
	.byte	$00
	.byte	$00
	.byte	$73
	.byte	$00
	.byte	$00
	.byte	$00
	.byte	$09
	.byte	$3A
	.byte	$3C
	.byte	$3C
	.byte	$3C
	.byte	$3C
	.byte	$3C
	.byte	$3C
	.byte	$3C
	.byte	$3C
	.byte	$3C
	.byte	$3C
	.byte	$73
	.byte	$3C
	.byte	$3C
	.byte	$3C
	.byte	$3C
	.byte	$3C
_level8_0:
	.byte	$A0
	.byte	$A0
	.byte	$A0
	.byte	$A0
	.byte	$A0
	.byte	$A0
	.byte	$A0
	.byte	$A0
	.byte	$A0
	.byte	$A0
	.byte	$A0
	.byte	$A0
	.byte	$A0
	.byte	$A0
	.byte	$A0
	.byte	$A0
	.byte	$A0
	.byte	$A0
	.byte	$A0
	.byte	$A0
	.byte	$A0
	.byte	$A0
	.byte	$A0
	.byte	$A0
	.byte	$A0
	.byte	$A0
	.byte	$A0
	.byte	$A0
	.byte	$A0
	.byte	$A0
	.byte	$A0
	.byte	$A0
	.byte	$32
	.byte	$32
	.byte	$32
	.byte	$32
	.byte	$32
	.byte	$32
	.byte	$32
	.byte	$32
	.byte	$32
	.byte	$32
	.byte	$32
	.byte	$32
	.byte	$32
	.byte	$32
	.byte	$32
	.byte	$32
	.byte	$0A
	.byte	$01
	.byte	$01
	.byte	$01
	.byte	$01
	.byte	$01
	.byte	$01
	.byte	$06
	.byte	$00
	.byte	$00
	.byte	$00
	.byte	$05
	.byte	$01
	.byte	$01
	.byte	$01
	.byte	$0A
	.byte	$01
	.byte	$01
	.byte	$06
	.byte	$00
	.byte	$00
	.byte	$00
	.byte	$00
	.byte	$00
	.byte	$00
	.byte	$00
	.byte	$08
	.byte	$01
	.byte	$01
	.byte	$0A
	.byte	$01
	.byte	$01
	.byte	$0A
	.byte	$01
	.byte	$01
	.byte	$01
	.byte	$07
	.byte	$00
	.byte	$3F
	.byte	$3F
	.byte	$3D
	.byte	$3D
	.byte	$00
	.byte	$08
	.byte	$01
	.byte	$01
	.byte	$01
	.byte	$01
	.byte	$07
	.byte	$01
	.byte	$01
	.byte	$01
	.byte	$01
	.byte	$00
	.byte	$4F
	.byte	$4B
	.byte	$1D
	.byte	$5F
	.byte	$00
	.byte	$00
	.byte	$00
	.byte	$00
	.byte	$08
	.byte	$01
	.byte	$03
	.byte	$01
	.byte	$01
	.byte	$01
	.byte	$06
	.byte	$00
	.byte	$3F
	.byte	$00
	.byte	$4E
	.byte	$3D
	.byte	$00
	.byte	$05
	.byte	$01
	.byte	$01
	.byte	$01
	.byte	$01
	.byte	$01
	.byte	$02
	.byte	$00
	.byte	$00
	.byte	$00
	.byte	$00
	.byte	$00
	.byte	$21
	.byte	$00
	.byte	$00
	.byte	$08
	.byte	$01
	.byte	$01
	.byte	$01
	.byte	$01
	.byte	$01
	.byte	$01
	.byte	$00
	.byte	$3F
	.byte	$3D
	.byte	$3D
	.byte	$00
	.byte	$05
	.byte	$01
	.byte	$01
	.byte	$07
	.byte	$00
	.byte	$00
	.byte	$00
	.byte	$00
	.byte	$00
	.byte	$01
	.byte	$0A
	.byte	$00
	.byte	$4F
	.byte	$47
	.byte	$5F
	.byte	$00
	.byte	$01
	.byte	$01
	.byte	$01
	.byte	$07
	.byte	$00
	.byte	$3F
	.byte	$3E
	.byte	$3D
	.byte	$00
	.byte	$0A
	.byte	$01
	.byte	$00
	.byte	$3F
	.byte	$3D
	.byte	$3D
	.byte	$00
	.byte	$03
	.byte	$01
	.byte	$01
	.byte	$01
	.byte	$00
	.byte	$4F
	.byte	$47
	.byte	$5F
	.byte	$00
	.byte	$01
	.byte	$06
	.byte	$00
	.byte	$00
	.byte	$00
	.byte	$00
	.byte	$00
	.byte	$00
	.byte	$04
	.byte	$01
	.byte	$0A
	.byte	$00
	.byte	$3F
	.byte	$3E
	.byte	$3D
	.byte	$00
	.byte	$03
	.byte	$07
	.byte	$05
	.byte	$01
	.byte	$07
	.byte	$09
	.byte	$07
	.byte	$00
	.byte	$05
	.byte	$01
	.byte	$01
	.byte	$00
	.byte	$00
	.byte	$00
	.byte	$00
	.byte	$00
	.byte	$01
	.byte	$37
	.byte	$37
	.byte	$37
	.byte	$37
	.byte	$37
	.byte	$37
	.byte	$37
	.byte	$37
	.byte	$37
	.byte	$37
	.byte	$37
	.byte	$37
	.byte	$37
	.byte	$37
	.byte	$37
	.byte	$37
_level9_0:
	.byte	$A0
	.byte	$A0
	.byte	$A0
	.byte	$A0
	.byte	$A0
	.byte	$A0
	.byte	$A0
	.byte	$A0
	.byte	$A0
	.byte	$A0
	.byte	$A0
	.byte	$A0
	.byte	$A0
	.byte	$A0
	.byte	$A0
	.byte	$A0
	.byte	$A0
	.byte	$A0
	.byte	$A0
	.byte	$A0
	.byte	$A0
	.byte	$A0
	.byte	$A0
	.byte	$A0
	.byte	$A0
	.byte	$A0
	.byte	$A0
	.byte	$A0
	.byte	$A0
	.byte	$A0
	.byte	$A0
	.byte	$A0
	.byte	$31
	.byte	$32
	.byte	$31
	.byte	$31
	.byte	$32
	.byte	$32
	.byte	$31
	.byte	$31
	.byte	$32
	.byte	$31
	.byte	$31
	.byte	$31
	.byte	$32
	.byte	$31
	.byte	$32
	.byte	$31
	.byte	$04
	.byte	$0A
	.byte	$00
	.byte	$00
	.byte	$00
	.byte	$07
	.byte	$00
	.byte	$07
	.byte	$00
	.byte	$07
	.byte	$00
	.byte	$05
	.byte	$01
	.byte	$07
	.byte	$00
	.byte	$00
	.byte	$00
	.byte	$00
	.byte	$07
	.byte	$02
	.byte	$05
	.byte	$05
	.byte	$00
	.byte	$00
	.byte	$07
	.byte	$00
	.byte	$03
	.byte	$00
	.byte	$07
	.byte	$02
	.byte	$00
	.byte	$03
	.byte	$00
	.byte	$00
	.byte	$00
	.byte	$00
	.byte	$00
	.byte	$07
	.byte	$05
	.byte	$00
	.byte	$00
	.byte	$02
	.byte	$09
	.byte	$07
	.byte	$00
	.byte	$00
	.byte	$03
	.byte	$05
	.byte	$04
	.byte	$0A
	.byte	$00
	.byte	$07
	.byte	$00
	.byte	$00
	.byte	$00
	.byte	$00
	.byte	$00
	.byte	$00
	.byte	$02
	.byte	$07
	.byte	$00
	.byte	$02
	.byte	$00
	.byte	$00
	.byte	$09
	.byte	$0A
	.byte	$00
	.byte	$00
	.byte	$09
	.byte	$00
	.byte	$04
	.byte	$08
	.byte	$09
	.byte	$04
	.byte	$00
	.byte	$00
	.byte	$00
	.byte	$00
	.byte	$02
	.byte	$00
	.byte	$00
	.byte	$04
	.byte	$00
	.byte	$00
	.byte	$24
	.byte	$24
	.byte	$00
	.byte	$00
	.byte	$00
	.byte	$08
	.byte	$04
	.byte	$09
	.byte	$00
	.byte	$24
	.byte	$23
	.byte	$00
	.byte	$3C
	.byte	$3C
	.byte	$3C
	.byte	$3C
	.byte	$21
	.byte	$21
	.byte	$3C
	.byte	$3C
	.byte	$3C
	.byte	$3A
	.byte	$00
	.byte	$00
	.byte	$09
	.byte	$3A
	.byte	$3C
	.byte	$3C
	.byte	$21
	.byte	$07
	.byte	$00
	.byte	$02
	.byte	$21
	.byte	$21
	.byte	$02
	.byte	$04
	.byte	$21
	.byte	$3C
	.byte	$3C
	.byte	$3C
	.byte	$3C
	.byte	$3C
	.byte	$03
	.byte	$03
	.byte	$0A
	.byte	$03
	.byte	$00
	.byte	$00
	.byte	$00
	.byte	$00
	.byte	$00
	.byte	$00
	.byte	$00
	.byte	$00
	.byte	$21
	.byte	$00
	.byte	$2B
	.byte	$1B
	.byte	$00
	.byte	$00
	.byte	$0A
	.byte	$06
	.byte	$03
	.byte	$00
	.byte	$06
	.byte	$00
	.byte	$00
	.byte	$06
	.byte	$02
	.byte	$00
	.byte	$07
	.byte	$00
	.byte	$2B
	.byte	$4B
	.byte	$2A
	.byte	$00
	.byte	$00
	.byte	$00
	.byte	$03
	.byte	$00
	.byte	$00
	.byte	$03
	.byte	$00
	.byte	$00
	.byte	$00
	.byte	$06
	.byte	$00
	.byte	$02
	.byte	$07
	.byte	$22
	.byte	$00
	.byte	$06
	.byte	$37
	.byte	$37
	.byte	$37
	.byte	$37
	.byte	$37
	.byte	$37
	.byte	$37
	.byte	$37
	.byte	$37
	.byte	$37
	.byte	$37
	.byte	$37
	.byte	$37
	.byte	$37
	.byte	$37
	.byte	$37
_level10_0:
	.byte	$A0
	.byte	$A0
	.byte	$A0
	.byte	$A0
	.byte	$A0
	.byte	$A0
	.byte	$A0
	.byte	$A0
	.byte	$A0
	.byte	$A0
	.byte	$A0
	.byte	$A0
	.byte	$A0
	.byte	$A0
	.byte	$A0
	.byte	$A0
	.byte	$A0
	.byte	$A0
	.byte	$A0
	.byte	$A0
	.byte	$A0
	.byte	$A0
	.byte	$A0
	.byte	$A0
	.byte	$A0
	.byte	$A0
	.byte	$A0
	.byte	$A0
	.byte	$A0
	.byte	$A0
	.byte	$A0
	.byte	$A0
	.byte	$06
	.byte	$14
	.byte	$14
	.byte	$0A
	.byte	$04
	.byte	$0A
	.byte	$24
	.byte	$08
	.byte	$4C
	.byte	$3C
	.byte	$3C
	.byte	$4C
	.byte	$4C
	.byte	$3C
	.byte	$3C
	.byte	$4C
	.byte	$AA
	.byte	$6A
	.byte	$AA
	.byte	$7B
	.byte	$8C
	.byte	$8C
	.byte	$8C
	.byte	$8C
	.byte	$79
	.byte	$AA
	.byte	$9B
	.byte	$7B
	.byte	$AA
	.byte	$7A
	.byte	$AA
	.byte	$7B
	.byte	$69
	.byte	$69
	.byte	$7A
	.byte	$7B
	.byte	$6C
	.byte	$6C
	.byte	$6C
	.byte	$8C
	.byte	$79
	.byte	$9B
	.byte	$69
	.byte	$7B
	.byte	$69
	.byte	$69
	.byte	$9B
	.byte	$7B
	.byte	$8A
	.byte	$8A
	.byte	$99
	.byte	$8B
	.byte	$6C
	.byte	$6C
	.byte	$6C
	.byte	$8C
	.byte	$89
	.byte	$8A
	.byte	$8A
	.byte	$8B
	.byte	$8A
	.byte	$8A
	.byte	$8A
	.byte	$8B
	.byte	$6C
	.byte	$6C
	.byte	$6C
	.byte	$6C
	.byte	$6C
	.byte	$6C
	.byte	$6C
	.byte	$6C
	.byte	$6C
	.byte	$6C
	.byte	$6C
	.byte	$8C
	.byte	$6C
	.byte	$6C
	.byte	$6C
	.byte	$6C
	.byte	$7C
	.byte	$6C
	.byte	$7C
	.byte	$6C
	.byte	$7C
	.byte	$6C
	.byte	$7C
	.byte	$6C
	.byte	$7C
	.byte	$6C
	.byte	$7C
	.byte	$8C
	.byte	$7C
	.byte	$6C
	.byte	$7C
	.byte	$6C
	.byte	$8C
	.byte	$8C
	.byte	$8C
	.byte	$8C
	.byte	$8C
	.byte	$8C
	.byte	$8C
	.byte	$8C
	.byte	$8C
	.byte	$8C
	.byte	$8C
	.byte	$8C
	.byte	$6C
	.byte	$6C
	.byte	$6C
	.byte	$6C
	.byte	$7A
	.byte	$9B
	.byte	$A9
	.byte	$7B
	.byte	$A9
	.byte	$69
	.byte	$9B
	.byte	$7B
	.byte	$69
	.byte	$9A
	.byte	$A9
	.byte	$7B
	.byte	$69
	.byte	$A9
	.byte	$6A
	.byte	$7B
	.byte	$69
	.byte	$69
	.byte	$69
	.byte	$7B
	.byte	$9B
	.byte	$69
	.byte	$69
	.byte	$7B
	.byte	$69
	.byte	$69
	.byte	$69
	.byte	$7B
	.byte	$69
	.byte	$69
	.byte	$6B
	.byte	$7B
	.byte	$8A
	.byte	$8A
	.byte	$8A
	.byte	$8B
	.byte	$8A
	.byte	$8A
	.byte	$99
	.byte	$8B
	.byte	$8A
	.byte	$8A
	.byte	$8A
	.byte	$8B
	.byte	$8A
	.byte	$8A
	.byte	$8A
	.byte	$8B
	.byte	$1E
	.byte	$0D
	.byte	$0C
	.byte	$1C
	.byte	$3F
	.byte	$3F
	.byte	$3F
	.byte	$3F
	.byte	$3F
	.byte	$3F
	.byte	$3F
	.byte	$3F
	.byte	$3D
	.byte	$4E
	.byte	$4E
	.byte	$3F
	.byte	$0C
	.byte	$0C
	.byte	$0D
	.byte	$0C
	.byte	$00
	.byte	$00
	.byte	$00
	.byte	$00
	.byte	$01
	.byte	$0A
	.byte	$01
	.byte	$0A
	.byte	$2B
	.byte	$1B
	.byte	$4B
	.byte	$2A
	.byte	$37
	.byte	$37
	.byte	$37
	.byte	$37
	.byte	$37
	.byte	$37
	.byte	$37
	.byte	$37
	.byte	$37
	.byte	$37
	.byte	$37
	.byte	$37
	.byte	$37
	.byte	$37
	.byte	$37
	.byte	$37
_level11_0:
	.byte	$A0
	.byte	$A0
	.byte	$A0
	.byte	$A0
	.byte	$A0
	.byte	$A0
	.byte	$A0
	.byte	$A0
	.byte	$A0
	.byte	$A0
	.byte	$A0
	.byte	$A0
	.byte	$A0
	.byte	$A0
	.byte	$A0
	.byte	$A0
	.byte	$A0
	.byte	$A0
	.byte	$A0
	.byte	$A0
	.byte	$A0
	.byte	$A0
	.byte	$A0
	.byte	$A0
	.byte	$A0
	.byte	$A0
	.byte	$A0
	.byte	$A0
	.byte	$A0
	.byte	$A0
	.byte	$A0
	.byte	$A0
	.byte	$3A
	.byte	$3C
	.byte	$3C
	.byte	$3C
	.byte	$3C
	.byte	$3C
	.byte	$3C
	.byte	$3C
	.byte	$3C
	.byte	$3C
	.byte	$3C
	.byte	$3C
	.byte	$3C
	.byte	$3C
	.byte	$3C
	.byte	$3A
	.byte	$3A
	.byte	$1E
	.byte	$4B
	.byte	$5F
	.byte	$06
	.byte	$09
	.byte	$0A
	.byte	$04
	.byte	$21
	.byte	$09
	.byte	$00
	.byte	$0A
	.byte	$22
	.byte	$19
	.byte	$0A
	.byte	$3A
	.byte	$3B
	.byte	$3F
	.byte	$00
	.byte	$3D
	.byte	$00
	.byte	$31
	.byte	$31
	.byte	$06
	.byte	$00
	.byte	$31
	.byte	$31
	.byte	$00
	.byte	$04
	.byte	$31
	.byte	$32
	.byte	$3A
	.byte	$3B
	.byte	$09
	.byte	$0A
	.byte	$00
	.byte	$0A
	.byte	$00
	.byte	$09
	.byte	$00
	.byte	$00
	.byte	$09
	.byte	$00
	.byte	$00
	.byte	$00
	.byte	$21
	.byte	$18
	.byte	$3A
	.byte	$3B
	.byte	$00
	.byte	$00
	.byte	$06
	.byte	$03
	.byte	$04
	.byte	$00
	.byte	$06
	.byte	$00
	.byte	$00
	.byte	$07
	.byte	$17
	.byte	$00
	.byte	$06
	.byte	$00
	.byte	$3A
	.byte	$3B
	.byte	$19
	.byte	$09
	.byte	$00
	.byte	$00
	.byte	$32
	.byte	$31
	.byte	$0A
	.byte	$00
	.byte	$31
	.byte	$31
	.byte	$00
	.byte	$00
	.byte	$31
	.byte	$32
	.byte	$3A
	.byte	$3B
	.byte	$00
	.byte	$08
	.byte	$02
	.byte	$00
	.byte	$06
	.byte	$03
	.byte	$00
	.byte	$00
	.byte	$07
	.byte	$01
	.byte	$00
	.byte	$06
	.byte	$22
	.byte	$04
	.byte	$3A
	.byte	$3B
	.byte	$25
	.byte	$00
	.byte	$00
	.byte	$00
	.byte	$00
	.byte	$00
	.byte	$09
	.byte	$18
	.byte	$01
	.byte	$06
	.byte	$00
	.byte	$00
	.byte	$00
	.byte	$00
	.byte	$3A
	.byte	$3B
	.byte	$09
	.byte	$00
	.byte	$03
	.byte	$06
	.byte	$31
	.byte	$31
	.byte	$00
	.byte	$00
	.byte	$32
	.byte	$31
	.byte	$00
	.byte	$00
	.byte	$31
	.byte	$31
	.byte	$3A
	.byte	$3B
	.byte	$09
	.byte	$02
	.byte	$03
	.byte	$00
	.byte	$06
	.byte	$00
	.byte	$00
	.byte	$0A
	.byte	$22
	.byte	$03
	.byte	$00
	.byte	$0A
	.byte	$00
	.byte	$19
	.byte	$3A
	.byte	$3B
	.byte	$00
	.byte	$00
	.byte	$00
	.byte	$0A
	.byte	$00
	.byte	$17
	.byte	$09
	.byte	$09
	.byte	$00
	.byte	$00
	.byte	$05
	.byte	$00
	.byte	$00
	.byte	$0A
	.byte	$3A
	.byte	$3A
	.byte	$04
	.byte	$0A
	.byte	$03
	.byte	$23
	.byte	$31
	.byte	$31
	.byte	$00
	.byte	$08
	.byte	$32
	.byte	$31
	.byte	$24
	.byte	$24
	.byte	$31
	.byte	$31
	.byte	$3A
	.byte	$3C
	.byte	$3C
	.byte	$3C
	.byte	$3C
	.byte	$3C
	.byte	$3C
	.byte	$3C
	.byte	$3C
	.byte	$3C
	.byte	$3C
	.byte	$3C
	.byte	$3C
	.byte	$3C
	.byte	$3C
	.byte	$3C
	.byte	$3C
_level12_0:
	.byte	$A0
	.byte	$A0
	.byte	$A0
	.byte	$A0
	.byte	$A0
	.byte	$A0
	.byte	$A0
	.byte	$A0
	.byte	$A0
	.byte	$A0
	.byte	$A0
	.byte	$A0
	.byte	$A0
	.byte	$A0
	.byte	$A0
	.byte	$A0
	.byte	$A0
	.byte	$A0
	.byte	$A0
	.byte	$A0
	.byte	$A0
	.byte	$A0
	.byte	$A0
	.byte	$A0
	.byte	$A0
	.byte	$A0
	.byte	$A0
	.byte	$A0
	.byte	$A0
	.byte	$A0
	.byte	$A0
	.byte	$A0
	.byte	$01
	.byte	$0A
	.byte	$01
	.byte	$01
	.byte	$01
	.byte	$0A
	.byte	$01
	.byte	$17
	.byte	$05
	.byte	$1A
	.byte	$01
	.byte	$01
	.byte	$01
	.byte	$1A
	.byte	$01
	.byte	$17
	.byte	$01
	.byte	$01
	.byte	$17
	.byte	$01
	.byte	$1A
	.byte	$01
	.byte	$01
	.byte	$01
	.byte	$1A
	.byte	$01
	.byte	$01
	.byte	$0A
	.byte	$07
	.byte	$01
	.byte	$04
	.byte	$03
	.byte	$1A
	.byte	$01
	.byte	$01
	.byte	$01
	.byte	$07
	.byte	$01
	.byte	$1A
	.byte	$01
	.byte	$01
	.byte	$01
	.byte	$01
	.byte	$01
	.byte	$01
	.byte	$01
	.byte	$02
	.byte	$1E
	.byte	$1A
	.byte	$1A
	.byte	$01
	.byte	$01
	.byte	$01
	.byte	$01
	.byte	$3F
	.byte	$3F
	.byte	$3D
	.byte	$3D
	.byte	$07
	.byte	$01
	.byte	$0A
	.byte	$02
	.byte	$1D
	.byte	$0D
	.byte	$01
	.byte	$01
	.byte	$01
	.byte	$01
	.byte	$07
	.byte	$1A
	.byte	$4F
	.byte	$2C
	.byte	$4B
	.byte	$5F
	.byte	$01
	.byte	$08
	.byte	$01
	.byte	$01
	.byte	$07
	.byte	$0E
	.byte	$08
	.byte	$01
	.byte	$01
	.byte	$01
	.byte	$01
	.byte	$01
	.byte	$3F
	.byte	$3E
	.byte	$00
	.byte	$3D
	.byte	$07
	.byte	$07
	.byte	$01
	.byte	$01
	.byte	$01
	.byte	$0A
	.byte	$01
	.byte	$01
	.byte	$0A
	.byte	$01
	.byte	$01
	.byte	$01
	.byte	$01
	.byte	$1A
	.byte	$00
	.byte	$07
	.byte	$1A
	.byte	$01
	.byte	$01
	.byte	$0A
	.byte	$01
	.byte	$0A
	.byte	$07
	.byte	$01
	.byte	$0A
	.byte	$09
	.byte	$1A
	.byte	$01
	.byte	$01
	.byte	$0A
	.byte	$00
	.byte	$06
	.byte	$01
	.byte	$01
	.byte	$01
	.byte	$01
	.byte	$01
	.byte	$01
	.byte	$01
	.byte	$01
	.byte	$01
	.byte	$01
	.byte	$1A
	.byte	$01
	.byte	$01
	.byte	$06
	.byte	$1E
	.byte	$1F
	.byte	$06
	.byte	$01
	.byte	$01
	.byte	$0A
	.byte	$01
	.byte	$01
	.byte	$01
	.byte	$01
	.byte	$01
	.byte	$01
	.byte	$0A
	.byte	$0A
	.byte	$0A
	.byte	$1E
	.byte	$0D
	.byte	$0D
	.byte	$09
	.byte	$01
	.byte	$1A
	.byte	$01
	.byte	$01
	.byte	$0A
	.byte	$07
	.byte	$1A
	.byte	$00
	.byte	$1A
	.byte	$09
	.byte	$01
	.byte	$1A
	.byte	$0E
	.byte	$0F
	.byte	$09
	.byte	$09
	.byte	$01
	.byte	$01
	.byte	$01
	.byte	$01
	.byte	$01
	.byte	$01
	.byte	$07
	.byte	$09
	.byte	$09
	.byte	$01
	.byte	$01
	.byte	$01
	.byte	$07
	.byte	$05
	.byte	$1A
	.byte	$01
	.byte	$01
	.byte	$0A
	.byte	$01
	.byte	$01
	.byte	$07
	.byte	$4E
	.byte	$3F
	.byte	$3E
	.byte	$3E
	.byte	$3E
	.byte	$3E
	.byte	$3D
	.byte	$3F
	.byte	$3E
	.byte	$3E
	.byte	$3E
	.byte	$3F
	.byte	$3E
	.byte	$3E
	.byte	$3E
	.byte	$3F
_level13_0:
	.byte	$A0
	.byte	$A0
	.byte	$A0
	.byte	$A0
	.byte	$A0
	.byte	$A0
	.byte	$A0
	.byte	$A0
	.byte	$A0
	.byte	$A0
	.byte	$A0
	.byte	$A0
	.byte	$A0
	.byte	$A0
	.byte	$A0
	.byte	$A0
	.byte	$A0
	.byte	$A0
	.byte	$A0
	.byte	$A0
	.byte	$A0
	.byte	$A0
	.byte	$A0
	.byte	$A0
	.byte	$A0
	.byte	$A0
	.byte	$A0
	.byte	$A0
	.byte	$A0
	.byte	$A0
	.byte	$A0
	.byte	$A0
	.byte	$31
	.byte	$32
	.byte	$31
	.byte	$31
	.byte	$31
	.byte	$32
	.byte	$31
	.byte	$31
	.byte	$31
	.byte	$32
	.byte	$32
	.byte	$31
	.byte	$32
	.byte	$32
	.byte	$31
	.byte	$31
	.byte	$0E
	.byte	$0E
	.byte	$0E
	.byte	$0F
	.byte	$0F
	.byte	$0D
	.byte	$1F
	.byte	$1D
	.byte	$0D
	.byte	$0C
	.byte	$0D
	.byte	$0D
	.byte	$0C
	.byte	$3C
	.byte	$0D
	.byte	$0C
	.byte	$0D
	.byte	$1F
	.byte	$0E
	.byte	$3C
	.byte	$1C
	.byte	$1D
	.byte	$0C
	.byte	$0C
	.byte	$1F
	.byte	$0C
	.byte	$0E
	.byte	$0C
	.byte	$0D
	.byte	$0E
	.byte	$0C
	.byte	$0D
	.byte	$0D
	.byte	$0C
	.byte	$00
	.byte	$00
	.byte	$00
	.byte	$00
	.byte	$1D
	.byte	$1C
	.byte	$1D
	.byte	$1C
	.byte	$00
	.byte	$0E
	.byte	$1C
	.byte	$1D
	.byte	$4C
	.byte	$0C
	.byte	$0C
	.byte	$1F
	.byte	$4C
	.byte	$1F
	.byte	$1E
	.byte	$1F
	.byte	$0D
	.byte	$0E
	.byte	$0D
	.byte	$0C
	.byte	$0D
	.byte	$3C
	.byte	$0D
	.byte	$4C
	.byte	$0D
	.byte	$0D
	.byte	$0D
	.byte	$0D
	.byte	$4B
	.byte	$0C
	.byte	$0D
	.byte	$0D
	.byte	$0D
	.byte	$1F
	.byte	$0D
	.byte	$0D
	.byte	$0D
	.byte	$0C
	.byte	$0D
	.byte	$0D
	.byte	$0D
	.byte	$1F
	.byte	$3C
	.byte	$0C
	.byte	$0C
	.byte	$0E
	.byte	$0E
	.byte	$0E
	.byte	$0C
	.byte	$0C
	.byte	$0D
	.byte	$0E
	.byte	$0C
	.byte	$0F
	.byte	$0E
	.byte	$0C
	.byte	$0D
	.byte	$0D
	.byte	$3C
	.byte	$0C
	.byte	$0E
	.byte	$0D
	.byte	$0F
	.byte	$0C
	.byte	$1F
	.byte	$0C
	.byte	$0E
	.byte	$0C
	.byte	$0D
	.byte	$1F
	.byte	$3A
	.byte	$0D
	.byte	$0C
	.byte	$0C
	.byte	$1F
	.byte	$0D
	.byte	$0E
	.byte	$0D
	.byte	$1F
	.byte	$1E
	.byte	$1F
	.byte	$0E
	.byte	$0E
	.byte	$0E
	.byte	$0E
	.byte	$0C
	.byte	$3C
	.byte	$0D
	.byte	$1F
	.byte	$0C
	.byte	$0D
	.byte	$3C
	.byte	$0E
	.byte	$0C
	.byte	$0D
	.byte	$0C
	.byte	$1F
	.byte	$0D
	.byte	$0E
	.byte	$3C
	.byte	$0E
	.byte	$0D
	.byte	$1D
	.byte	$0C
	.byte	$0C
	.byte	$0D
	.byte	$0C
	.byte	$0F
	.byte	$3C
	.byte	$3C
	.byte	$0D
	.byte	$0D
	.byte	$0E
	.byte	$0E
	.byte	$3C
	.byte	$1D
	.byte	$0D
	.byte	$0C
	.byte	$0D
	.byte	$0D
	.byte	$0D
	.byte	$0D
	.byte	$0C
	.byte	$1F
	.byte	$00
	.byte	$1E
	.byte	$0C
	.byte	$0C
	.byte	$0D
	.byte	$0D
	.byte	$1C
	.byte	$1E
	.byte	$0C
	.byte	$0D
	.byte	$0C
	.byte	$1F
	.byte	$1F
	.byte	$4C
	.byte	$3C
	.byte	$3C
	.byte	$3C
	.byte	$3C
	.byte	$3C
	.byte	$3C
	.byte	$3C
	.byte	$3C
	.byte	$3C
	.byte	$3C
	.byte	$3C
	.byte	$3C
	.byte	$3C
	.byte	$3C
	.byte	$3C
	.byte	$3C
_level14_0:
	.byte	$A0
	.byte	$A0
	.byte	$A0
	.byte	$A0
	.byte	$A0
	.byte	$A0
	.byte	$A0
	.byte	$A0
	.byte	$A0
	.byte	$A0
	.byte	$A0
	.byte	$A0
	.byte	$A0
	.byte	$A0
	.byte	$A0
	.byte	$A0
	.byte	$A0
	.byte	$A0
	.byte	$A0
	.byte	$A0
	.byte	$A0
	.byte	$A0
	.byte	$A0
	.byte	$A0
	.byte	$A0
	.byte	$A0
	.byte	$A0
	.byte	$A0
	.byte	$A0
	.byte	$A0
	.byte	$A0
	.byte	$A0
	.byte	$00
	.byte	$00
	.byte	$1D
	.byte	$0F
	.byte	$0E
	.byte	$1F
	.byte	$1E
	.byte	$0E
	.byte	$0E
	.byte	$0C
	.byte	$0E
	.byte	$0E
	.byte	$0E
	.byte	$0E
	.byte	$0D
	.byte	$36
	.byte	$00
	.byte	$00
	.byte	$00
	.byte	$1D
	.byte	$0F
	.byte	$0C
	.byte	$0E
	.byte	$0D
	.byte	$0C
	.byte	$0C
	.byte	$0D
	.byte	$0F
	.byte	$00
	.byte	$00
	.byte	$0E
	.byte	$36
	.byte	$3C
	.byte	$3C
	.byte	$3C
	.byte	$3C
	.byte	$3C
	.byte	$3C
	.byte	$3C
	.byte	$3C
	.byte	$3C
	.byte	$3C
	.byte	$3C
	.byte	$3C
	.byte	$3C
	.byte	$00
	.byte	$00
	.byte	$36
	.byte	$0F
	.byte	$00
	.byte	$22
	.byte	$21
	.byte	$00
	.byte	$0E
	.byte	$3E
	.byte	$0F
	.byte	$22
	.byte	$00
	.byte	$22
	.byte	$0E
	.byte	$3E
	.byte	$00
	.byte	$1D
	.byte	$36
	.byte	$00
	.byte	$00
	.byte	$1E
	.byte	$3E
	.byte	$1F
	.byte	$00
	.byte	$21
	.byte	$00
	.byte	$1D
	.byte	$3E
	.byte	$1F
	.byte	$00
	.byte	$21
	.byte	$00
	.byte	$1E
	.byte	$36
	.byte	$00
	.byte	$00
	.byte	$3C
	.byte	$3C
	.byte	$3C
	.byte	$3C
	.byte	$3C
	.byte	$3C
	.byte	$3C
	.byte	$3C
	.byte	$3C
	.byte	$3C
	.byte	$3C
	.byte	$3C
	.byte	$3C
	.byte	$36
	.byte	$00
	.byte	$00
	.byte	$77
	.byte	$68
	.byte	$1D
	.byte	$0C
	.byte	$67
	.byte	$78
	.byte	$0F
	.byte	$0E
	.byte	$4D
	.byte	$4D
	.byte	$0F
	.byte	$0E
	.byte	$0C
	.byte	$36
	.byte	$00
	.byte	$00
	.byte	$4D
	.byte	$4D
	.byte	$00
	.byte	$1C
	.byte	$77
	.byte	$78
	.byte	$00
	.byte	$00
	.byte	$67
	.byte	$78
	.byte	$00
	.byte	$00
	.byte	$1E
	.byte	$36
	.byte	$1F
	.byte	$1D
	.byte	$77
	.byte	$68
	.byte	$1D
	.byte	$0C
	.byte	$4D
	.byte	$4D
	.byte	$1F
	.byte	$1D
	.byte	$77
	.byte	$68
	.byte	$1F
	.byte	$00
	.byte	$0E
	.byte	$36
	.byte	$3C
	.byte	$3C
	.byte	$3C
	.byte	$3C
	.byte	$3C
	.byte	$3C
	.byte	$3C
	.byte	$3C
	.byte	$3C
	.byte	$3C
	.byte	$3C
	.byte	$3C
	.byte	$3C
	.byte	$00
	.byte	$1D
	.byte	$36
	.byte	$0F
	.byte	$4B
	.byte	$2A
	.byte	$2C
	.byte	$1B
	.byte	$2A
	.byte	$2B
	.byte	$1D
	.byte	$0D
	.byte	$0F
	.byte	$22
	.byte	$21
	.byte	$21
	.byte	$00
	.byte	$0C
	.byte	$36
	.byte	$1C
	.byte	$2A
	.byte	$2B
	.byte	$1C
	.byte	$1B
	.byte	$2C
	.byte	$00
	.byte	$2C
	.byte	$00
	.byte	$00
	.byte	$00
	.byte	$1C
	.byte	$1D
	.byte	$1E
	.byte	$0C
	.byte	$36
	.byte	$3C
	.byte	$3C
	.byte	$3C
	.byte	$3C
	.byte	$3C
	.byte	$3C
	.byte	$3C
	.byte	$3C
	.byte	$3C
	.byte	$3C
	.byte	$3C
	.byte	$3C
	.byte	$3C
	.byte	$3C
	.byte	$3C
	.byte	$36
_level15_0:
	.byte	$A0
	.byte	$A0
	.byte	$A0
	.byte	$A0
	.byte	$A0
	.byte	$A0
	.byte	$A0
	.byte	$A0
	.byte	$A0
	.byte	$A0
	.byte	$A0
	.byte	$A0
	.byte	$A0
	.byte	$A0
	.byte	$A0
	.byte	$A0
	.byte	$A0
	.byte	$A0
	.byte	$A0
	.byte	$A0
	.byte	$A0
	.byte	$A0
	.byte	$A0
	.byte	$A0
	.byte	$A0
	.byte	$A0
	.byte	$A0
	.byte	$A0
	.byte	$A0
	.byte	$A0
	.byte	$A0
	.byte	$A0
	.byte	$6D
	.byte	$5E
	.byte	$5E
	.byte	$5E
	.byte	$5E
	.byte	$5E
	.byte	$5E
	.byte	$5E
	.byte	$5E
	.byte	$5E
	.byte	$5E
	.byte	$5E
	.byte	$5E
	.byte	$5E
	.byte	$5E
	.byte	$6E
	.byte	$6D
	.byte	$6C
	.byte	$6C
	.byte	$A3
	.byte	$6C
	.byte	$6C
	.byte	$7E
	.byte	$7E
	.byte	$7E
	.byte	$7E
	.byte	$6C
	.byte	$6C
	.byte	$6C
	.byte	$6C
	.byte	$6C
	.byte	$6E
	.byte	$6D
	.byte	$6C
	.byte	$A3
	.byte	$A3
	.byte	$A3
	.byte	$6C
	.byte	$7E
	.byte	$7E
	.byte	$7E
	.byte	$7E
	.byte	$6C
	.byte	$6C
	.byte	$6C
	.byte	$6C
	.byte	$6C
	.byte	$6E
	.byte	$6D
	.byte	$6C
	.byte	$6C
	.byte	$A3
	.byte	$6C
	.byte	$6C
	.byte	$A3
	.byte	$A3
	.byte	$A3
	.byte	$A3
	.byte	$6C
	.byte	$A3
	.byte	$6C
	.byte	$A3
	.byte	$6C
	.byte	$6E
	.byte	$6D
	.byte	$5D
	.byte	$5D
	.byte	$5D
	.byte	$5D
	.byte	$5D
	.byte	$5D
	.byte	$5D
	.byte	$5D
	.byte	$5D
	.byte	$5D
	.byte	$5D
	.byte	$5D
	.byte	$5D
	.byte	$5D
	.byte	$6E
	.byte	$3A
	.byte	$3E
	.byte	$3F
	.byte	$3D
	.byte	$3E
	.byte	$3D
	.byte	$3E
	.byte	$3E
	.byte	$3E
	.byte	$3E
	.byte	$3D
	.byte	$3E
	.byte	$3D
	.byte	$3D
	.byte	$3E
	.byte	$3A
	.byte	$3A
	.byte	$21
	.byte	$1E
	.byte	$3A
	.byte	$0F
	.byte	$0D
	.byte	$0F
	.byte	$00
	.byte	$1C
	.byte	$0E
	.byte	$00
	.byte	$4C
	.byte	$4C
	.byte	$0C
	.byte	$0C
	.byte	$3A
	.byte	$3B
	.byte	$1E
	.byte	$0D
	.byte	$3A
	.byte	$00
	.byte	$4B
	.byte	$00
	.byte	$00
	.byte	$00
	.byte	$00
	.byte	$00
	.byte	$00
	.byte	$1D
	.byte	$0E
	.byte	$0D
	.byte	$3A
	.byte	$3A
	.byte	$0D
	.byte	$0C
	.byte	$3C
	.byte	$1C
	.byte	$00
	.byte	$1D
	.byte	$1C
	.byte	$00
	.byte	$00
	.byte	$00
	.byte	$00
	.byte	$00
	.byte	$00
	.byte	$0E
	.byte	$3A
	.byte	$3B
	.byte	$0C
	.byte	$0D
	.byte	$0C
	.byte	$1F
	.byte	$00
	.byte	$00
	.byte	$00
	.byte	$00
	.byte	$00
	.byte	$00
	.byte	$00
	.byte	$1C
	.byte	$1D
	.byte	$00
	.byte	$3B
	.byte	$3B
	.byte	$0C
	.byte	$3A
	.byte	$3C
	.byte	$3C
	.byte	$3A
	.byte	$1F
	.byte	$00
	.byte	$1D
	.byte	$00
	.byte	$1E
	.byte	$3C
	.byte	$1E
	.byte	$0C
	.byte	$1F
	.byte	$3A
	.byte	$3A
	.byte	$0D
	.byte	$3A
	.byte	$4C
	.byte	$4C
	.byte	$3A
	.byte	$0C
	.byte	$1F
	.byte	$00
	.byte	$1E
	.byte	$0D
	.byte	$3C
	.byte	$0C
	.byte	$0C
	.byte	$0C
	.byte	$3A
	.byte	$3C
	.byte	$3C
	.byte	$3C
	.byte	$3C
	.byte	$3C
	.byte	$3C
	.byte	$3C
	.byte	$3C
	.byte	$3C
	.byte	$3C
	.byte	$3C
	.byte	$3C
	.byte	$3C
	.byte	$3C
	.byte	$3C
	.byte	$3C
_level16_0:
	.byte	$A0
	.byte	$A0
	.byte	$A0
	.byte	$A0
	.byte	$A0
	.byte	$A0
	.byte	$A0
	.byte	$A0
	.byte	$A0
	.byte	$A0
	.byte	$A0
	.byte	$A0
	.byte	$A0
	.byte	$A0
	.byte	$A0
	.byte	$A0
	.byte	$A0
	.byte	$A0
	.byte	$A0
	.byte	$A0
	.byte	$A0
	.byte	$A0
	.byte	$A0
	.byte	$A0
	.byte	$A0
	.byte	$A0
	.byte	$A0
	.byte	$A0
	.byte	$A0
	.byte	$A0
	.byte	$A0
	.byte	$A0
	.byte	$3B
	.byte	$0C
	.byte	$C0
	.byte	$A5
	.byte	$A5
	.byte	$A5
	.byte	$A5
	.byte	$A5
	.byte	$A5
	.byte	$A5
	.byte	$A5
	.byte	$A5
	.byte	$A5
	.byte	$C1
	.byte	$0D
	.byte	$3B
	.byte	$3B
	.byte	$0E
	.byte	$C0
	.byte	$A3
	.byte	$A3
	.byte	$A3
	.byte	$A3
	.byte	$A3
	.byte	$A3
	.byte	$A3
	.byte	$A3
	.byte	$A3
	.byte	$A3
	.byte	$C1
	.byte	$0C
	.byte	$3A
	.byte	$3A
	.byte	$2A
	.byte	$C0
	.byte	$A3
	.byte	$A3
	.byte	$A3
	.byte	$50
	.byte	$51
	.byte	$52
	.byte	$A3
	.byte	$A3
	.byte	$A3
	.byte	$A3
	.byte	$C1
	.byte	$0E
	.byte	$3B
	.byte	$3B
	.byte	$00
	.byte	$C0
	.byte	$A3
	.byte	$A3
	.byte	$A3
	.byte	$53
	.byte	$54
	.byte	$55
	.byte	$A3
	.byte	$A3
	.byte	$A3
	.byte	$A3
	.byte	$C1
	.byte	$2B
	.byte	$3B
	.byte	$3A
	.byte	$1D
	.byte	$C0
	.byte	$CE
	.byte	$CE
	.byte	$CE
	.byte	$CE
	.byte	$CE
	.byte	$CE
	.byte	$CE
	.byte	$CE
	.byte	$CE
	.byte	$CE
	.byte	$C1
	.byte	$1D
	.byte	$3A
	.byte	$3B
	.byte	$00
	.byte	$B0
	.byte	$A5
	.byte	$A5
	.byte	$A5
	.byte	$A5
	.byte	$A5
	.byte	$A5
	.byte	$A5
	.byte	$A5
	.byte	$A5
	.byte	$A5
	.byte	$B1
	.byte	$00
	.byte	$3B
	.byte	$3B
	.byte	$1F
	.byte	$00
	.byte	$B0
	.byte	$A0
	.byte	$A5
	.byte	$A5
	.byte	$A5
	.byte	$A5
	.byte	$A5
	.byte	$A5
	.byte	$A0
	.byte	$B1
	.byte	$1C
	.byte	$2B
	.byte	$3B
	.byte	$3B
	.byte	$0C
	.byte	$1F
	.byte	$A0
	.byte	$A0
	.byte	$A0
	.byte	$A0
	.byte	$A0
	.byte	$A0
	.byte	$A0
	.byte	$A0
	.byte	$A0
	.byte	$A0
	.byte	$2C
	.byte	$4B
	.byte	$3B
	.byte	$3A
	.byte	$0D
	.byte	$0C
	.byte	$A0
	.byte	$A0
	.byte	$21
	.byte	$0E
	.byte	$1C
	.byte	$1E
	.byte	$0F
	.byte	$21
	.byte	$A0
	.byte	$A0
	.byte	$00
	.byte	$2A
	.byte	$3B
	.byte	$3B
	.byte	$0C
	.byte	$0C
	.byte	$C2
	.byte	$A0
	.byte	$21
	.byte	$2B
	.byte	$1D
	.byte	$0C
	.byte	$00
	.byte	$21
	.byte	$A0
	.byte	$C3
	.byte	$1D
	.byte	$0C
	.byte	$3A
	.byte	$3A
	.byte	$1E
	.byte	$46
	.byte	$00
	.byte	$A0
	.byte	$B2
	.byte	$B3
	.byte	$CB
	.byte	$CB
	.byte	$B2
	.byte	$B3
	.byte	$A0
	.byte	$1C
	.byte	$00
	.byte	$0D
	.byte	$3B
	.byte	$3A
	.byte	$1E
	.byte	$22
	.byte	$1D
	.byte	$C2
	.byte	$A0
	.byte	$A0
	.byte	$CB
	.byte	$CB
	.byte	$A0
	.byte	$A0
	.byte	$C3
	.byte	$00
	.byte	$1E
	.byte	$0D
	.byte	$3A
	.byte	$3C
	.byte	$3C
	.byte	$3C
	.byte	$3C
	.byte	$3C
	.byte	$A0
	.byte	$A0
	.byte	$A0
	.byte	$A0
	.byte	$A0
	.byte	$A0
	.byte	$3C
	.byte	$3C
	.byte	$3C
	.byte	$3C
	.byte	$3C
_level17_0:
	.byte	$A0
	.byte	$A0
	.byte	$A0
	.byte	$A0
	.byte	$A0
	.byte	$A0
	.byte	$A0
	.byte	$A0
	.byte	$A0
	.byte	$A0
	.byte	$A0
	.byte	$A0
	.byte	$A0
	.byte	$A0
	.byte	$A0
	.byte	$A0
	.byte	$A0
	.byte	$A0
	.byte	$A0
	.byte	$A0
	.byte	$A0
	.byte	$A0
	.byte	$A0
	.byte	$A0
	.byte	$A0
	.byte	$A0
	.byte	$A0
	.byte	$A0
	.byte	$A0
	.byte	$A0
	.byte	$A0
	.byte	$A0
	.byte	$3E
	.byte	$3F
	.byte	$3D
	.byte	$3E
	.byte	$3D
	.byte	$3E
	.byte	$3E
	.byte	$3D
	.byte	$3E
	.byte	$3E
	.byte	$3F
	.byte	$3E
	.byte	$3E
	.byte	$3E
	.byte	$3E
	.byte	$3F
	.byte	$01
	.byte	$00
	.byte	$04
	.byte	$08
	.byte	$02
	.byte	$00
	.byte	$06
	.byte	$04
	.byte	$01
	.byte	$00
	.byte	$00
	.byte	$0A
	.byte	$4F
	.byte	$4B
	.byte	$5F
	.byte	$11
	.byte	$00
	.byte	$0A
	.byte	$0A
	.byte	$04
	.byte	$04
	.byte	$0A
	.byte	$14
	.byte	$04
	.byte	$00
	.byte	$04
	.byte	$0A
	.byte	$01
	.byte	$4F
	.byte	$0A
	.byte	$5F
	.byte	$06
	.byte	$0A
	.byte	$00
	.byte	$0A
	.byte	$16
	.byte	$15
	.byte	$01
	.byte	$00
	.byte	$0A
	.byte	$0A
	.byte	$1A
	.byte	$00
	.byte	$14
	.byte	$3F
	.byte	$00
	.byte	$3D
	.byte	$04
	.byte	$11
	.byte	$04
	.byte	$04
	.byte	$04
	.byte	$00
	.byte	$0A
	.byte	$04
	.byte	$0A
	.byte	$01
	.byte	$00
	.byte	$04
	.byte	$00
	.byte	$0A
	.byte	$00
	.byte	$00
	.byte	$0A
	.byte	$0A
	.byte	$00
	.byte	$0A
	.byte	$11
	.byte	$16
	.byte	$16
	.byte	$01
	.byte	$00
	.byte	$0A
	.byte	$0A
	.byte	$01
	.byte	$14
	.byte	$0A
	.byte	$0A
	.byte	$00
	.byte	$01
	.byte	$3C
	.byte	$3C
	.byte	$3C
	.byte	$3C
	.byte	$3C
	.byte	$3C
	.byte	$3C
	.byte	$3C
	.byte	$3C
	.byte	$3C
	.byte	$3C
	.byte	$3C
	.byte	$3C
	.byte	$3C
	.byte	$3C
	.byte	$3C
	.byte	$A3
	.byte	$9E
	.byte	$A3
	.byte	$A3
	.byte	$A3
	.byte	$A3
	.byte	$A3
	.byte	$A3
	.byte	$A3
	.byte	$A3
	.byte	$A3
	.byte	$A3
	.byte	$6C
	.byte	$6C
	.byte	$A3
	.byte	$A3
	.byte	$A3
	.byte	$9E
	.byte	$AC
	.byte	$AD
	.byte	$AE
	.byte	$AF
	.byte	$BF
	.byte	$A3
	.byte	$A3
	.byte	$A3
	.byte	$A3
	.byte	$A3
	.byte	$6C
	.byte	$6C
	.byte	$A3
	.byte	$A3
	.byte	$9C
	.byte	$9D
	.byte	$9D
	.byte	$9D
	.byte	$9D
	.byte	$9D
	.byte	$9D
	.byte	$9D
	.byte	$9D
	.byte	$9D
	.byte	$9D
	.byte	$9D
	.byte	$CB
	.byte	$CB
	.byte	$9C
	.byte	$9C
	.byte	$69
	.byte	$69
	.byte	$8A
	.byte	$8A
	.byte	$69
	.byte	$8A
	.byte	$8A
	.byte	$69
	.byte	$69
	.byte	$69
	.byte	$69
	.byte	$69
	.byte	$6C
	.byte	$6C
	.byte	$69
	.byte	$69
	.byte	$69
	.byte	$69
	.byte	$89
	.byte	$8B
	.byte	$69
	.byte	$89
	.byte	$8B
	.byte	$69
	.byte	$69
	.byte	$69
	.byte	$69
	.byte	$69
	.byte	$7D
	.byte	$7D
	.byte	$69
	.byte	$69
	.byte	$69
	.byte	$69
	.byte	$69
	.byte	$69
	.byte	$69
	.byte	$69
	.byte	$69
	.byte	$69
	.byte	$69
	.byte	$69
	.byte	$69
	.byte	$69
	.byte	$6C
	.byte	$6C
	.byte	$69
	.byte	$69
_level18_0:
	.byte	$A0
	.byte	$A0
	.byte	$A0
	.byte	$A0
	.byte	$A0
	.byte	$A0
	.byte	$A0
	.byte	$A0
	.byte	$A0
	.byte	$A0
	.byte	$A0
	.byte	$A0
	.byte	$A0
	.byte	$A0
	.byte	$A0
	.byte	$A0
	.byte	$A0
	.byte	$A0
	.byte	$A0
	.byte	$A0
	.byte	$A0
	.byte	$A0
	.byte	$A0
	.byte	$A0
	.byte	$A0
	.byte	$A0
	.byte	$A0
	.byte	$A0
	.byte	$A0
	.byte	$A0
	.byte	$A0
	.byte	$A0
	.byte	$EA
	.byte	$EA
	.byte	$EA
	.byte	$EA
	.byte	$EA
	.byte	$EA
	.byte	$EA
	.byte	$EA
	.byte	$EA
	.byte	$EA
	.byte	$EA
	.byte	$EA
	.byte	$EA
	.byte	$8F
	.byte	$EA
	.byte	$EA
	.byte	$EA
	.byte	$26
	.byte	$E9
	.byte	$27
	.byte	$CA
	.byte	$DF
	.byte	$26
	.byte	$EE
	.byte	$EE
	.byte	$EE
	.byte	$25
	.byte	$00
	.byte	$EC
	.byte	$DF
	.byte	$EA
	.byte	$EA
	.byte	$EA
	.byte	$DF
	.byte	$DA
	.byte	$CB
	.byte	$CB
	.byte	$CB
	.byte	$CB
	.byte	$CB
	.byte	$CB
	.byte	$CB
	.byte	$25
	.byte	$DB
	.byte	$00
	.byte	$EE
	.byte	$DC
	.byte	$EA
	.byte	$EA
	.byte	$25
	.byte	$DC
	.byte	$00
	.byte	$CC
	.byte	$DC
	.byte	$BA
	.byte	$00
	.byte	$BA
	.byte	$CC
	.byte	$25
	.byte	$DB
	.byte	$DC
	.byte	$EE
	.byte	$CA
	.byte	$7F
	.byte	$EA
	.byte	$26
	.byte	$DB
	.byte	$BB
	.byte	$BD
	.byte	$BD
	.byte	$BB
	.byte	$BD
	.byte	$BD
	.byte	$BD
	.byte	$BD
	.byte	$BD
	.byte	$BD
	.byte	$BD
	.byte	$BE
	.byte	$A3
	.byte	$EA
	.byte	$EC
	.byte	$CA
	.byte	$CC
	.byte	$00
	.byte	$DF
	.byte	$CC
	.byte	$BE
	.byte	$CD
	.byte	$CD
	.byte	$CD
	.byte	$CD
	.byte	$00
	.byte	$4B
	.byte	$EC
	.byte	$A3
	.byte	$EA
	.byte	$26
	.byte	$BC
	.byte	$BD
	.byte	$BE
	.byte	$EE
	.byte	$CC
	.byte	$CC
	.byte	$DD
	.byte	$DE
	.byte	$DE
	.byte	$6C
	.byte	$E9
	.byte	$00
	.byte	$EC
	.byte	$CE
	.byte	$EA
	.byte	$6C
	.byte	$DD
	.byte	$DE
	.byte	$DE
	.byte	$6C
	.byte	$CC
	.byte	$CC
	.byte	$EE
	.byte	$CC
	.byte	$BD
	.byte	$BD
	.byte	$BD
	.byte	$BD
	.byte	$BE
	.byte	$EA
	.byte	$EA
	.byte	$ED
	.byte	$ED
	.byte	$ED
	.byte	$ED
	.byte	$ED
	.byte	$CC
	.byte	$CC
	.byte	$DF
	.byte	$CF
	.byte	$DB
	.byte	$DA
	.byte	$7F
	.byte	$EC
	.byte	$CC
	.byte	$EA
	.byte	$EA
	.byte	$DF
	.byte	$CA
	.byte	$EC
	.byte	$CA
	.byte	$DF
	.byte	$CC
	.byte	$CC
	.byte	$EE
	.byte	$EE
	.byte	$DF
	.byte	$EC
	.byte	$24
	.byte	$79
	.byte	$69
	.byte	$7B
	.byte	$EA
	.byte	$24
	.byte	$26
	.byte	$26
	.byte	$DB
	.byte	$DB
	.byte	$BB
	.byte	$BB
	.byte	$BE
	.byte	$E9
	.byte	$24
	.byte	$24
	.byte	$24
	.byte	$89
	.byte	$8A
	.byte	$8B
	.byte	$EA
	.byte	$EA
	.byte	$A0
	.byte	$EB
	.byte	$EB
	.byte	$EB
	.byte	$EB
	.byte	$EB
	.byte	$EB
	.byte	$EB
	.byte	$EB
	.byte	$A0
	.byte	$26
	.byte	$89
	.byte	$8A
	.byte	$8B
	.byte	$A0
	.byte	$A0
	.byte	$A0
	.byte	$A0
	.byte	$A0
	.byte	$A0
	.byte	$A0
	.byte	$A0
	.byte	$A0
	.byte	$A0
	.byte	$A0
	.byte	$A0
	.byte	$A0
	.byte	$A0
	.byte	$A0
	.byte	$A0
_bigperry_0:
	.byte	$A0
	.byte	$A0
	.byte	$A0
	.byte	$A0
	.byte	$A1
	.byte	$A1
	.byte	$A1
	.byte	$A1
	.byte	$A1
	.byte	$A1
	.byte	$A1
	.byte	$A0
	.byte	$A0
	.byte	$A0
	.byte	$A0
	.byte	$A0
	.byte	$A0
	.byte	$A1
	.byte	$A0
	.byte	$A1
	.byte	$A1
	.byte	$A3
	.byte	$A3
	.byte	$A1
	.byte	$A3
	.byte	$A3
	.byte	$A1
	.byte	$A1
	.byte	$A0
	.byte	$A0
	.byte	$A0
	.byte	$A0
	.byte	$A0
	.byte	$A0
	.byte	$A1
	.byte	$A1
	.byte	$A1
	.byte	$A1
	.byte	$A2
	.byte	$A1
	.byte	$A2
	.byte	$A1
	.byte	$A1
	.byte	$A1
	.byte	$A1
	.byte	$A0
	.byte	$A0
	.byte	$A0
	.byte	$A0
	.byte	$A1
	.byte	$A1
	.byte	$A1
	.byte	$A1
	.byte	$A2
	.byte	$A0
	.byte	$A1
	.byte	$A0
	.byte	$A2
	.byte	$A1
	.byte	$A1
	.byte	$A1
	.byte	$A1
	.byte	$A0
	.byte	$A0
	.byte	$A3
	.byte	$A1
	.byte	$A1
	.byte	$A1
	.byte	$A1
	.byte	$A2
	.byte	$A2
	.byte	$A1
	.byte	$A2
	.byte	$A2
	.byte	$A1
	.byte	$A1
	.byte	$A1
	.byte	$A1
	.byte	$A3
	.byte	$A0
	.byte	$A3
	.byte	$A1
	.byte	$A1
	.byte	$A1
	.byte	$A1
	.byte	$A1
	.byte	$A1
	.byte	$A1
	.byte	$A1
	.byte	$A1
	.byte	$A1
	.byte	$A1
	.byte	$A1
	.byte	$A1
	.byte	$A3
	.byte	$A0
	.byte	$A3
	.byte	$A1
	.byte	$A1
	.byte	$A3
	.byte	$A1
	.byte	$A1
	.byte	$A3
	.byte	$A3
	.byte	$A3
	.byte	$A1
	.byte	$A1
	.byte	$A3
	.byte	$A1
	.byte	$A1
	.byte	$A3
	.byte	$A0
	.byte	$A3
	.byte	$A1
	.byte	$A1
	.byte	$A1
	.byte	$A3
	.byte	$A1
	.byte	$A1
	.byte	$A3
	.byte	$A1
	.byte	$A1
	.byte	$A3
	.byte	$A1
	.byte	$A1
	.byte	$A1
	.byte	$A3
	.byte	$A0
	.byte	$A0
	.byte	$A3
	.byte	$A1
	.byte	$A1
	.byte	$A3
	.byte	$A1
	.byte	$A4
	.byte	$A4
	.byte	$A4
	.byte	$A1
	.byte	$A3
	.byte	$A1
	.byte	$A1
	.byte	$A3
	.byte	$A0
	.byte	$A0
	.byte	$A0
	.byte	$A0
	.byte	$A3
	.byte	$A3
	.byte	$A1
	.byte	$A1
	.byte	$A1
	.byte	$A4
	.byte	$A4
	.byte	$A1
	.byte	$A1
	.byte	$A3
	.byte	$A3
	.byte	$A0
	.byte	$A0
	.byte	$A0
	.byte	$A0
	.byte	$A0
	.byte	$A0
	.byte	$A1
	.byte	$A1
	.byte	$A1
	.byte	$A1
	.byte	$A1
	.byte	$A1
	.byte	$A1
	.byte	$A1
	.byte	$A1
	.byte	$A0
	.byte	$A0
	.byte	$A0
	.byte	$A0
	.byte	$A0
	.byte	$A0
	.byte	$A3
	.byte	$A1
	.byte	$A3
	.byte	$A1
	.byte	$A3
	.byte	$A1
	.byte	$A3
	.byte	$A1
	.byte	$A3
	.byte	$A1
	.byte	$A3
	.byte	$A0
	.byte	$A0
	.byte	$A0
	.byte	$A0
	.byte	$A0
	.byte	$A3
	.byte	$A1
	.byte	$A1
	.byte	$A3
	.byte	$A3
	.byte	$A1
	.byte	$A3
	.byte	$A3
	.byte	$A1
	.byte	$A1
	.byte	$A3
	.byte	$A0
	.byte	$A0
	.byte	$A0
	.byte	$A0
	.byte	$A0
	.byte	$A0
	.byte	$A3
	.byte	$A1
	.byte	$A1
	.byte	$A1
	.byte	$A1
	.byte	$A1
	.byte	$A1
	.byte	$A1
	.byte	$A3
	.byte	$A0
	.byte	$A0
	.byte	$A0
	.byte	$A0
	.byte	$A0
	.byte	$A0
	.byte	$A0
	.byte	$A0
	.byte	$A1
	.byte	$A1
	.byte	$A1
	.byte	$A0
	.byte	$A1
	.byte	$A1
	.byte	$A1
	.byte	$A0
	.byte	$A0
	.byte	$A0
	.byte	$A0
	.byte	$A0
_perrygetout_0:
	.byte	$95
	.byte	$95
	.byte	$95
	.byte	$95
	.byte	$95
	.byte	$95
	.byte	$95
	.byte	$95
	.byte	$95
	.byte	$95
	.byte	$95
	.byte	$95
	.byte	$95
	.byte	$95
	.byte	$95
	.byte	$95
	.byte	$10
	.byte	$10
	.byte	$10
	.byte	$10
	.byte	$10
	.byte	$10
	.byte	$10
	.byte	$10
	.byte	$10
	.byte	$10
	.byte	$10
	.byte	$10
	.byte	$10
	.byte	$10
	.byte	$10
	.byte	$10
	.byte	$10
	.byte	$10
	.byte	$10
	.byte	$10
	.byte	$00
	.byte	$00
	.byte	$00
	.byte	$00
	.byte	$00
	.byte	$00
	.byte	$00
	.byte	$10
	.byte	$10
	.byte	$10
	.byte	$10
	.byte	$10
	.byte	$10
	.byte	$10
	.byte	$10
	.byte	$10
	.byte	$10
	.byte	$10
	.byte	$10
	.byte	$10
	.byte	$10
	.byte	$10
	.byte	$10
	.byte	$10
	.byte	$10
	.byte	$10
	.byte	$10
	.byte	$10
	.byte	$94
	.byte	$96
	.byte	$94
	.byte	$94
	.byte	$94
	.byte	$94
	.byte	$B4
	.byte	$B5
	.byte	$B6
	.byte	$B6
	.byte	$B5
	.byte	$B9
	.byte	$10
	.byte	$10
	.byte	$10
	.byte	$10
	.byte	$A7
	.byte	$A8
	.byte	$A7
	.byte	$A7
	.byte	$A7
	.byte	$A7
	.byte	$C4
	.byte	$C5
	.byte	$C6
	.byte	$C7
	.byte	$A3
	.byte	$C9
	.byte	$10
	.byte	$10
	.byte	$10
	.byte	$10
	.byte	$32
	.byte	$32
	.byte	$32
	.byte	$32
	.byte	$32
	.byte	$32
	.byte	$D4
	.byte	$D5
	.byte	$D6
	.byte	$D7
	.byte	$D8
	.byte	$D9
	.byte	$10
	.byte	$10
	.byte	$10
	.byte	$10
	.byte	$91
	.byte	$32
	.byte	$91
	.byte	$32
	.byte	$91
	.byte	$32
	.byte	$E4
	.byte	$E5
	.byte	$10
	.byte	$10
	.byte	$10
	.byte	$00
	.byte	$10
	.byte	$10
	.byte	$10
	.byte	$10
	.byte	$32
	.byte	$32
	.byte	$32
	.byte	$32
	.byte	$32
	.byte	$32
	.byte	$10
	.byte	$10
	.byte	$10
	.byte	$10
	.byte	$10
	.byte	$10
	.byte	$10
	.byte	$10
	.byte	$10
	.byte	$10
	.byte	$91
	.byte	$32
	.byte	$91
	.byte	$32
	.byte	$91
	.byte	$32
	.byte	$10
	.byte	$10
	.byte	$10
	.byte	$10
	.byte	$10
	.byte	$10
	.byte	$10
	.byte	$10
	.byte	$10
	.byte	$10
	.byte	$32
	.byte	$32
	.byte	$32
	.byte	$32
	.byte	$91
	.byte	$32
	.byte	$3E
	.byte	$3E
	.byte	$3D
	.byte	$10
	.byte	$10
	.byte	$10
	.byte	$10
	.byte	$10
	.byte	$2B
	.byte	$3C
	.byte	$E2
	.byte	$D0
	.byte	$E0
	.byte	$89
	.byte	$8A
	.byte	$99
	.byte	$8A
	.byte	$8A
	.byte	$8A
	.byte	$8A
	.byte	$8B
	.byte	$A1
	.byte	$A1
	.byte	$A1
	.byte	$A1
	.byte	$D1
	.byte	$D0
	.byte	$E0
	.byte	$E3
	.byte	$D3
	.byte	$D1
	.byte	$E0
	.byte	$E1
	.byte	$D0
	.byte	$D1
	.byte	$E0
	.byte	$E2
	.byte	$91
	.byte	$A1
	.byte	$91
	.byte	$A1
	.byte	$E0
	.byte	$E0
	.byte	$E1
	.byte	$E2
	.byte	$E0
	.byte	$D0
	.byte	$E0
	.byte	$D0
	.byte	$E0
	.byte	$E2
	.byte	$E0
	.byte	$D0
	.byte	$91
	.byte	$A1
	.byte	$A1
	.byte	$A1
	.byte	$D3
	.byte	$E1
	.byte	$E0
	.byte	$D0
	.byte	$E3
	.byte	$E0
	.byte	$E2
	.byte	$D0
	.byte	$E1
	.byte	$E0
	.byte	$D0
	.byte	$E0
	.byte	$91
	.byte	$A1
	.byte	$91
	.byte	$A1
	.byte	$E0
_perryshouse_0:
	.byte	$95
	.byte	$95
	.byte	$95
	.byte	$95
	.byte	$95
	.byte	$95
	.byte	$95
	.byte	$95
	.byte	$95
	.byte	$95
	.byte	$95
	.byte	$95
	.byte	$95
	.byte	$95
	.byte	$95
	.byte	$95
	.byte	$10
	.byte	$10
	.byte	$10
	.byte	$10
	.byte	$10
	.byte	$10
	.byte	$10
	.byte	$10
	.byte	$10
	.byte	$10
	.byte	$10
	.byte	$10
	.byte	$10
	.byte	$10
	.byte	$10
	.byte	$10
	.byte	$10
	.byte	$10
	.byte	$10
	.byte	$10
	.byte	$00
	.byte	$00
	.byte	$00
	.byte	$00
	.byte	$00
	.byte	$00
	.byte	$00
	.byte	$10
	.byte	$10
	.byte	$10
	.byte	$10
	.byte	$10
	.byte	$10
	.byte	$10
	.byte	$10
	.byte	$10
	.byte	$10
	.byte	$10
	.byte	$00
	.byte	$10
	.byte	$10
	.byte	$10
	.byte	$10
	.byte	$10
	.byte	$10
	.byte	$10
	.byte	$10
	.byte	$10
	.byte	$94
	.byte	$96
	.byte	$94
	.byte	$94
	.byte	$94
	.byte	$94
	.byte	$00
	.byte	$00
	.byte	$00
	.byte	$00
	.byte	$00
	.byte	$00
	.byte	$00
	.byte	$10
	.byte	$10
	.byte	$10
	.byte	$A7
	.byte	$A8
	.byte	$A7
	.byte	$A7
	.byte	$A7
	.byte	$A7
	.byte	$00
	.byte	$00
	.byte	$00
	.byte	$00
	.byte	$00
	.byte	$00
	.byte	$00
	.byte	$10
	.byte	$10
	.byte	$10
	.byte	$32
	.byte	$32
	.byte	$32
	.byte	$32
	.byte	$32
	.byte	$32
	.byte	$00
	.byte	$00
	.byte	$00
	.byte	$00
	.byte	$00
	.byte	$00
	.byte	$10
	.byte	$10
	.byte	$10
	.byte	$10
	.byte	$91
	.byte	$32
	.byte	$91
	.byte	$32
	.byte	$91
	.byte	$32
	.byte	$00
	.byte	$00
	.byte	$00
	.byte	$00
	.byte	$10
	.byte	$00
	.byte	$10
	.byte	$10
	.byte	$10
	.byte	$10
	.byte	$32
	.byte	$32
	.byte	$32
	.byte	$32
	.byte	$32
	.byte	$32
	.byte	$10
	.byte	$10
	.byte	$10
	.byte	$10
	.byte	$10
	.byte	$10
	.byte	$10
	.byte	$10
	.byte	$10
	.byte	$10
	.byte	$91
	.byte	$32
	.byte	$91
	.byte	$32
	.byte	$91
	.byte	$32
	.byte	$10
	.byte	$10
	.byte	$10
	.byte	$10
	.byte	$10
	.byte	$10
	.byte	$10
	.byte	$10
	.byte	$10
	.byte	$10
	.byte	$32
	.byte	$32
	.byte	$32
	.byte	$32
	.byte	$91
	.byte	$32
	.byte	$3E
	.byte	$3E
	.byte	$3D
	.byte	$10
	.byte	$10
	.byte	$10
	.byte	$10
	.byte	$10
	.byte	$2B
	.byte	$3C
	.byte	$E2
	.byte	$D0
	.byte	$E0
	.byte	$89
	.byte	$8A
	.byte	$99
	.byte	$8A
	.byte	$8A
	.byte	$8A
	.byte	$8A
	.byte	$8B
	.byte	$A1
	.byte	$A1
	.byte	$A1
	.byte	$A1
	.byte	$D1
	.byte	$D0
	.byte	$E0
	.byte	$E3
	.byte	$D3
	.byte	$D1
	.byte	$E0
	.byte	$E1
	.byte	$D0
	.byte	$D1
	.byte	$E0
	.byte	$E2
	.byte	$91
	.byte	$A1
	.byte	$91
	.byte	$A1
	.byte	$E0
	.byte	$E0
	.byte	$E1
	.byte	$E2
	.byte	$E0
	.byte	$D0
	.byte	$E0
	.byte	$D0
	.byte	$E0
	.byte	$E2
	.byte	$E0
	.byte	$D0
	.byte	$91
	.byte	$A1
	.byte	$A1
	.byte	$A1
	.byte	$D3
	.byte	$E1
	.byte	$E0
	.byte	$D0
	.byte	$E3
	.byte	$E0
	.byte	$E2
	.byte	$D0
	.byte	$E1
	.byte	$E0
	.byte	$D0
	.byte	$E0
	.byte	$91
	.byte	$A1
	.byte	$91
	.byte	$A1
	.byte	$E0
_blackmap:
	.byte	$6C
	.byte	$6C
	.byte	$6C
	.byte	$6C
	.byte	$6C
	.byte	$6C
	.byte	$6C
	.byte	$6C
	.byte	$6C
	.byte	$6C
	.byte	$6C
	.byte	$6C
	.byte	$6C
	.byte	$6C
	.byte	$6C
	.byte	$6C
	.byte	$6C
	.byte	$6C
	.byte	$6C
	.byte	$6C
	.byte	$6C
	.byte	$6C
	.byte	$6C
	.byte	$6C
	.byte	$6C
	.byte	$6C
	.byte	$6C
	.byte	$6C
	.byte	$6C
	.byte	$6C
	.byte	$6C
	.byte	$6C
	.byte	$6C
	.byte	$6C
	.byte	$6C
	.byte	$6C
	.byte	$6C
	.byte	$6C
	.byte	$6C
	.byte	$6C
	.byte	$6C
	.byte	$6C
	.byte	$6C
	.byte	$6C
	.byte	$6C
	.byte	$6C
	.byte	$6C
	.byte	$6C
	.byte	$6C
	.byte	$6C
	.byte	$6C
	.byte	$6C
	.byte	$6C
	.byte	$6C
	.byte	$6C
	.byte	$6C
	.byte	$6C
	.byte	$6C
	.byte	$6C
	.byte	$6C
	.byte	$6C
	.byte	$6C
	.byte	$6C
	.byte	$6C
	.byte	$6C
	.byte	$6C
	.byte	$6C
	.byte	$6C
	.byte	$6C
	.byte	$6C
	.byte	$6C
	.byte	$6C
	.byte	$6C
	.byte	$6C
	.byte	$6C
	.byte	$6C
	.byte	$6C
	.byte	$6C
	.byte	$6C
	.byte	$6C
	.byte	$6C
	.byte	$6C
	.byte	$6C
	.byte	$6C
	.byte	$6C
	.byte	$6C
	.byte	$6C
	.byte	$6C
	.byte	$6C
	.byte	$6C
	.byte	$6C
	.byte	$6C
	.byte	$6C
	.byte	$6C
	.byte	$6C
	.byte	$6C
	.byte	$6C
	.byte	$6C
	.byte	$6C
	.byte	$6C
	.byte	$6C
	.byte	$6C
	.byte	$6C
	.byte	$6C
	.byte	$6C
	.byte	$6C
	.byte	$6C
	.byte	$6C
	.byte	$6C
	.byte	$6C
	.byte	$6C
	.byte	$6C
	.byte	$6C
	.byte	$6C
	.byte	$6C
	.byte	$6C
	.byte	$6C
	.byte	$6C
	.byte	$6C
	.byte	$6C
	.byte	$6C
	.byte	$6C
	.byte	$6C
	.byte	$6C
	.byte	$6C
	.byte	$6C
	.byte	$6C
	.byte	$6C
	.byte	$6C
	.byte	$6C
	.byte	$6C
	.byte	$6C
	.byte	$6C
	.byte	$6C
	.byte	$6C
	.byte	$6C
	.byte	$6C
	.byte	$6C
	.byte	$6C
	.byte	$6C
	.byte	$6C
	.byte	$6C
	.byte	$6C
	.byte	$6C
	.byte	$6C
	.byte	$6C
	.byte	$6C
	.byte	$6C
	.byte	$6C
	.byte	$6C
	.byte	$6C
	.byte	$6C
	.byte	$6C
	.byte	$6C
	.byte	$6C
	.byte	$6C
	.byte	$6C
	.byte	$6C
	.byte	$6C
	.byte	$6C
	.byte	$6C
	.byte	$6C
	.byte	$6C
	.byte	$6C
	.byte	$6C
	.byte	$6C
	.byte	$6C
	.byte	$6C
	.byte	$6C
	.byte	$6C
	.byte	$6C
	.byte	$6C
	.byte	$6C
	.byte	$6C
	.byte	$6C
	.byte	$6C
	.byte	$6C
	.byte	$6C
	.byte	$6C
	.byte	$6C
	.byte	$6C
	.byte	$6C
	.byte	$6C
	.byte	$6C
	.byte	$6C
	.byte	$6C
	.byte	$6C
	.byte	$6C
	.byte	$6C
	.byte	$6C
	.byte	$6C
	.byte	$6C
	.byte	$6C
	.byte	$6C
	.byte	$6C
	.byte	$6C
	.byte	$6C
	.byte	$6C
	.byte	$6C
	.byte	$6C
	.byte	$6C
	.byte	$6C
	.byte	$6C
	.byte	$6C
	.byte	$6C
	.byte	$6C
	.byte	$6C
	.byte	$6C
	.byte	$6C
	.byte	$6C
	.byte	$6C
	.byte	$6C
	.byte	$6C
	.byte	$6C
	.byte	$6C
	.byte	$6C
	.byte	$6C
	.byte	$6C
	.byte	$6C
	.byte	$6C
	.byte	$6C
	.byte	$6C
	.byte	$6C
	.byte	$6C
	.byte	$6C
	.byte	$6C
	.byte	$6C
	.byte	$6C
	.byte	$6C
	.byte	$6C
	.byte	$6C
	.byte	$6C
	.byte	$6C
	.byte	$6C
	.byte	$6C
	.byte	$6C
	.byte	$6C
	.byte	$6C
	.byte	$6C
	.byte	$6C
_level17opennes:
	.byte	$A0
	.byte	$A0
	.byte	$A0
	.byte	$A0
	.byte	$A0
	.byte	$A0
	.byte	$A0
	.byte	$A0
	.byte	$A0
	.byte	$A0
	.byte	$A0
	.byte	$A0
	.byte	$A0
	.byte	$A0
	.byte	$A0
	.byte	$A0
	.byte	$A0
	.byte	$A0
	.byte	$A0
	.byte	$A0
	.byte	$A0
	.byte	$A0
	.byte	$A0
	.byte	$A0
	.byte	$A0
	.byte	$A0
	.byte	$A0
	.byte	$A0
	.byte	$A0
	.byte	$A0
	.byte	$A0
	.byte	$A0
	.byte	$3E
	.byte	$3F
	.byte	$3D
	.byte	$3E
	.byte	$3D
	.byte	$3E
	.byte	$3E
	.byte	$3D
	.byte	$3E
	.byte	$3E
	.byte	$3F
	.byte	$3E
	.byte	$3E
	.byte	$3E
	.byte	$3E
	.byte	$3F
	.byte	$01
	.byte	$00
	.byte	$04
	.byte	$08
	.byte	$02
	.byte	$00
	.byte	$06
	.byte	$04
	.byte	$01
	.byte	$00
	.byte	$00
	.byte	$0A
	.byte	$00
	.byte	$00
	.byte	$00
	.byte	$11
	.byte	$00
	.byte	$0A
	.byte	$0A
	.byte	$04
	.byte	$04
	.byte	$0A
	.byte	$14
	.byte	$04
	.byte	$00
	.byte	$04
	.byte	$0A
	.byte	$01
	.byte	$00
	.byte	$0A
	.byte	$00
	.byte	$06
	.byte	$0A
	.byte	$00
	.byte	$0A
	.byte	$16
	.byte	$15
	.byte	$01
	.byte	$00
	.byte	$0A
	.byte	$0A
	.byte	$1A
	.byte	$00
	.byte	$14
	.byte	$00
	.byte	$00
	.byte	$00
	.byte	$04
	.byte	$11
	.byte	$04
	.byte	$04
	.byte	$04
	.byte	$00
	.byte	$0A
	.byte	$04
	.byte	$0A
	.byte	$01
	.byte	$00
	.byte	$04
	.byte	$00
	.byte	$0A
	.byte	$00
	.byte	$00
	.byte	$0A
	.byte	$0A
	.byte	$A3
	.byte	$A3
	.byte	$A3
	.byte	$A3
	.byte	$A3
	.byte	$A3
	.byte	$A3
	.byte	$A3
	.byte	$A3
	.byte	$A3
	.byte	$A3
	.byte	$0A
	.byte	$0A
	.byte	$00
	.byte	$01
	.byte	$3C
	.byte	$69
	.byte	$69
	.byte	$69
	.byte	$69
	.byte	$69
	.byte	$69
	.byte	$69
	.byte	$69
	.byte	$69
	.byte	$69
	.byte	$69
	.byte	$3C
	.byte	$3C
	.byte	$3C
	.byte	$3C
	.byte	$A3
	.byte	$6C
	.byte	$6C
	.byte	$6C
	.byte	$6C
	.byte	$6C
	.byte	$6C
	.byte	$6C
	.byte	$6C
	.byte	$6C
	.byte	$6C
	.byte	$6C
	.byte	$6C
	.byte	$6C
	.byte	$A3
	.byte	$A3
	.byte	$A3
	.byte	$6C
	.byte	$6C
	.byte	$4B
	.byte	$6C
	.byte	$6C
	.byte	$6C
	.byte	$6C
	.byte	$6C
	.byte	$6C
	.byte	$6C
	.byte	$6C
	.byte	$6C
	.byte	$6C
	.byte	$A3
	.byte	$A3
	.byte	$9C
	.byte	$9D
	.byte	$9D
	.byte	$9D
	.byte	$9D
	.byte	$9D
	.byte	$9D
	.byte	$9D
	.byte	$9D
	.byte	$9D
	.byte	$9D
	.byte	$9D
	.byte	$CB
	.byte	$CB
	.byte	$9C
	.byte	$9C
	.byte	$69
	.byte	$69
	.byte	$8A
	.byte	$8A
	.byte	$69
	.byte	$8A
	.byte	$8A
	.byte	$69
	.byte	$69
	.byte	$69
	.byte	$69
	.byte	$69
	.byte	$6C
	.byte	$6C
	.byte	$69
	.byte	$69
	.byte	$69
	.byte	$69
	.byte	$89
	.byte	$8B
	.byte	$69
	.byte	$89
	.byte	$8B
	.byte	$69
	.byte	$69
	.byte	$69
	.byte	$69
	.byte	$69
	.byte	$7D
	.byte	$7D
	.byte	$69
	.byte	$69
	.byte	$69
	.byte	$69
	.byte	$69
	.byte	$69
	.byte	$69
	.byte	$69
	.byte	$69
	.byte	$69
	.byte	$69
	.byte	$69
	.byte	$69
	.byte	$69
	.byte	$6C
	.byte	$6C
	.byte	$69
	.byte	$69
_level17closedfence:
	.byte	$A0
	.byte	$A0
	.byte	$A0
	.byte	$A0
	.byte	$A0
	.byte	$A0
	.byte	$A0
	.byte	$A0
	.byte	$A0
	.byte	$A0
	.byte	$A0
	.byte	$A0
	.byte	$A0
	.byte	$A0
	.byte	$A0
	.byte	$A0
	.byte	$A0
	.byte	$A0
	.byte	$A0
	.byte	$A0
	.byte	$A0
	.byte	$A0
	.byte	$A0
	.byte	$A0
	.byte	$A0
	.byte	$A0
	.byte	$A0
	.byte	$A0
	.byte	$A0
	.byte	$A0
	.byte	$A0
	.byte	$A0
	.byte	$3E
	.byte	$3F
	.byte	$3D
	.byte	$3E
	.byte	$3D
	.byte	$3E
	.byte	$3E
	.byte	$3D
	.byte	$3E
	.byte	$3E
	.byte	$3F
	.byte	$3E
	.byte	$3E
	.byte	$3E
	.byte	$3E
	.byte	$3F
	.byte	$01
	.byte	$00
	.byte	$04
	.byte	$08
	.byte	$02
	.byte	$00
	.byte	$06
	.byte	$04
	.byte	$01
	.byte	$00
	.byte	$00
	.byte	$0A
	.byte	$4F
	.byte	$4B
	.byte	$5F
	.byte	$11
	.byte	$00
	.byte	$0A
	.byte	$0A
	.byte	$04
	.byte	$04
	.byte	$0A
	.byte	$14
	.byte	$04
	.byte	$00
	.byte	$04
	.byte	$0A
	.byte	$01
	.byte	$4F
	.byte	$0A
	.byte	$5F
	.byte	$06
	.byte	$0A
	.byte	$00
	.byte	$0A
	.byte	$16
	.byte	$15
	.byte	$01
	.byte	$00
	.byte	$0A
	.byte	$0A
	.byte	$1A
	.byte	$00
	.byte	$14
	.byte	$3F
	.byte	$3D
	.byte	$3D
	.byte	$04
	.byte	$11
	.byte	$04
	.byte	$04
	.byte	$04
	.byte	$00
	.byte	$0A
	.byte	$04
	.byte	$0A
	.byte	$01
	.byte	$00
	.byte	$04
	.byte	$00
	.byte	$0A
	.byte	$00
	.byte	$00
	.byte	$0A
	.byte	$0A
	.byte	$00
	.byte	$0A
	.byte	$11
	.byte	$16
	.byte	$16
	.byte	$01
	.byte	$00
	.byte	$0A
	.byte	$0A
	.byte	$01
	.byte	$14
	.byte	$0A
	.byte	$0A
	.byte	$00
	.byte	$01
	.byte	$3C
	.byte	$3C
	.byte	$3C
	.byte	$3C
	.byte	$3C
	.byte	$3C
	.byte	$3C
	.byte	$3C
	.byte	$3C
	.byte	$3C
	.byte	$3C
	.byte	$3C
	.byte	$3C
	.byte	$3C
	.byte	$3C
	.byte	$3C
	.byte	$A3
	.byte	$9E
	.byte	$A3
	.byte	$A3
	.byte	$A3
	.byte	$A3
	.byte	$A3
	.byte	$A3
	.byte	$A3
	.byte	$A3
	.byte	$A3
	.byte	$A3
	.byte	$6C
	.byte	$6C
	.byte	$A3
	.byte	$A3
	.byte	$A3
	.byte	$9E
	.byte	$AC
	.byte	$AD
	.byte	$AE
	.byte	$AF
	.byte	$BF
	.byte	$A3
	.byte	$A3
	.byte	$A3
	.byte	$A3
	.byte	$A3
	.byte	$6C
	.byte	$6C
	.byte	$A3
	.byte	$A3
	.byte	$9C
	.byte	$9D
	.byte	$9D
	.byte	$9D
	.byte	$9D
	.byte	$9D
	.byte	$9D
	.byte	$9D
	.byte	$9D
	.byte	$9D
	.byte	$9D
	.byte	$9D
	.byte	$CB
	.byte	$CB
	.byte	$9C
	.byte	$9C
	.byte	$69
	.byte	$69
	.byte	$8A
	.byte	$8A
	.byte	$69
	.byte	$8A
	.byte	$8A
	.byte	$69
	.byte	$69
	.byte	$69
	.byte	$69
	.byte	$69
	.byte	$6C
	.byte	$6C
	.byte	$69
	.byte	$69
	.byte	$69
	.byte	$69
	.byte	$89
	.byte	$8B
	.byte	$69
	.byte	$89
	.byte	$8B
	.byte	$69
	.byte	$69
	.byte	$69
	.byte	$69
	.byte	$69
	.byte	$7D
	.byte	$7D
	.byte	$69
	.byte	$69
	.byte	$69
	.byte	$69
	.byte	$69
	.byte	$69
	.byte	$69
	.byte	$69
	.byte	$69
	.byte	$69
	.byte	$69
	.byte	$69
	.byte	$69
	.byte	$69
	.byte	$6C
	.byte	$6C
	.byte	$69
	.byte	$69
_Level_List:
	.addr	_level1_0
	.addr	_level2
	.addr	_level3
	.addr	_level4_0
	.addr	_level6_0
	.addr	_level5_0
	.addr	_level13_0
	.addr	_level7_0
	.addr	_level8_0
	.addr	_level14_0
	.addr	_level16_0
	.addr	_level17closedfence
	.addr	_level17opennes
	.addr	_level18_0
	.addr	_bigperry_0
	.addr	_perrygetout_0
	.addr	_perryshouse_0
	.addr	_blackmap
_level_text:
	.addr	L1ED3
	.addr	L1ED5
	.addr	L1ED7
	.addr	L1ED9
	.addr	L1EDB
	.addr	L1EDD
	.addr	L1EDF
	.addr	L1EE1
	.addr	L1EE3
	.addr	L1EE5
	.addr	L1EE7
	.addr	L1EE9
	.addr	L1EEB
	.addr	L1EED
_level_text_length:
	.byte	$0A
	.byte	$0A
	.byte	$0D
	.byte	$0F
	.byte	$10
	.byte	$09
	.byte	$08
	.byte	$0D
	.byte	$0F
	.byte	$0F
	.byte	$08
	.byte	$18
	.byte	$1B
	.byte	$10
_level_player_x:
	.byte	$20
	.byte	$20
	.byte	$40
	.byte	$28
	.byte	$28
	.byte	$20
	.byte	$20
	.byte	$28
	.byte	$80
	.byte	$28
	.byte	$20
	.byte	$3C
	.byte	$80
	.byte	$6C
	.byte	$44
	.byte	$44
	.byte	$20
_level_player_y:
	.byte	$40
	.byte	$40
	.byte	$78
	.byte	$3C
	.byte	$3C
	.byte	$44
	.byte	$30
	.byte	$3C
	.byte	$A0
	.byte	$28
	.byte	$B0
	.byte	$3C
	.byte	$50
	.byte	$D0
	.byte	$A4
	.byte	$A4
	.byte	$50
_palette_perrytileset_a:
	.byte	$1A
	.byte	$30
	.byte	$0F
	.byte	$00
	.byte	$1A
	.byte	$21
	.byte	$11
	.byte	$30
	.byte	$1A
	.byte	$38
	.byte	$17
	.byte	$07
	.byte	$1A
	.byte	$17
	.byte	$2A
	.byte	$0F
_palette_perrytilesetnintendocolors_a:
	.byte	$1A
	.byte	$10
	.byte	$0F
	.byte	$00
	.byte	$1A
	.byte	$15
	.byte	$10
	.byte	$30
	.byte	$1A
	.byte	$38
	.byte	$17
	.byte	$07
	.byte	$1A
	.byte	$17
	.byte	$2A
	.byte	$0F
_palette_perrytilesetcutscenecolors_a:
	.byte	$21
	.byte	$30
	.byte	$0F
	.byte	$00
	.byte	$21
	.byte	$0F
	.byte	$30
	.byte	$00
	.byte	$21
	.byte	$38
	.byte	$17
	.byte	$07
	.byte	$21
	.byte	$17
	.byte	$2A
	.byte	$1A
_title_bg_palette:
	.byte	$0F
	.byte	$30
	.byte	$1A
	.byte	$15
	.byte	$0F
	.byte	$21
	.byte	$11
	.byte	$1A
	.byte	$0F
	.byte	$38
	.byte	$17
	.byte	$07
	.byte	$0F
	.byte	$17
	.byte	$2A
	.byte	$1A
_palette_perrypuzzlesprites_a:
	.byte	$2A
	.byte	$30
	.byte	$0F
	.byte	$15
	.byte	$2A
	.byte	$11
	.byte	$21
	.byte	$30
	.byte	$2A
	.byte	$38
	.byte	$17
	.byte	$07
	.byte	$2A
	.byte	$0F
	.byte	$2D
	.byte	$10
_palette_perrypuzzlesprites_b:
	.byte	$2A
	.byte	$30
	.byte	$0F
	.byte	$15
	.byte	$2A
	.byte	$0F
	.byte	$2D
	.byte	$10
	.byte	$2A
	.byte	$38
	.byte	$17
	.byte	$07
	.byte	$2A
	.byte	$11
	.byte	$21
	.byte	$30
_metatile_colision_map:
	.byte	$00
	.byte	$00
	.byte	$00
	.byte	$00
	.byte	$00
	.byte	$00
	.byte	$00
	.byte	$00
	.byte	$00
	.byte	$00
	.byte	$00
	.byte	$00
	.byte	$00
	.byte	$00
	.byte	$00
	.byte	$00
	.byte	$00
	.byte	$00
	.byte	$00
	.byte	$00
	.byte	$00
	.byte	$00
	.byte	$00
	.byte	$00
	.byte	$00
	.byte	$00
	.byte	$00
	.byte	$00
	.byte	$00
	.byte	$00
	.byte	$00
	.byte	$00
	.byte	$00
	.byte	$00
	.byte	$00
	.byte	$00
	.byte	$00
	.byte	$00
	.byte	$00
	.byte	$00
	.byte	$00
	.byte	$00
	.byte	$00
	.byte	$00
	.byte	$00
	.byte	$00
	.byte	$00
	.byte	$00
	.byte	$00
	.byte	$01
	.byte	$01
	.byte	$01
	.byte	$01
	.byte	$01
	.byte	$01
	.byte	$01
	.byte	$01
	.byte	$01
	.byte	$01
	.byte	$01
	.byte	$01
	.byte	$01
	.byte	$01
	.byte	$01
	.byte	$00
	.byte	$00
	.byte	$00
	.byte	$00
	.byte	$00
	.byte	$00
	.byte	$01
	.byte	$01
	.byte	$00
	.byte	$00
	.byte	$00
	.byte	$02
	.byte	$01
	.byte	$00
	.byte	$01
	.byte	$01
	.byte	$01
	.byte	$01
	.byte	$01
	.byte	$01
	.byte	$01
	.byte	$01
	.byte	$01
	.byte	$01
	.byte	$01
	.byte	$00
	.byte	$00
	.byte	$00
	.byte	$00
	.byte	$00
	.byte	$00
	.byte	$01
	.byte	$00
	.byte	$00
	.byte	$00
	.byte	$01
	.byte	$01
	.byte	$01
	.byte	$01
	.byte	$01
	.byte	$01
	.byte	$00
	.byte	$00
	.byte	$00
	.byte	$00
	.byte	$00
	.byte	$00
	.byte	$00
	.byte	$00
	.byte	$00
	.byte	$00
	.byte	$01
	.byte	$00
	.byte	$01
	.byte	$01
	.byte	$01
	.byte	$01
	.byte	$00
	.byte	$00
	.byte	$00
	.byte	$00
	.byte	$00
	.byte	$00
	.byte	$00
	.byte	$00
	.byte	$00
	.byte	$00
	.byte	$01
	.byte	$01
	.byte	$01
	.byte	$01
	.byte	$01
	.byte	$01
	.byte	$00
	.byte	$00
	.byte	$00
	.byte	$01
	.byte	$00
	.byte	$00
	.byte	$00
	.byte	$00
	.byte	$00
	.byte	$01
	.byte	$01
	.byte	$00
	.byte	$01
	.byte	$00
	.byte	$01
	.byte	$01
	.byte	$00
	.byte	$00
	.byte	$00
	.byte	$00
	.byte	$00
	.byte	$00
	.byte	$00
	.byte	$01
	.byte	$00
	.byte	$00
	.byte	$00
	.byte	$00
	.byte	$00
	.byte	$00
	.byte	$00
	.byte	$00
	.byte	$00
	.byte	$00
	.byte	$00
	.byte	$00
	.byte	$00
	.byte	$00
	.byte	$00
	.byte	$01
	.byte	$01
	.byte	$01
	.byte	$01
	.byte	$00
	.byte	$00
	.byte	$00
	.byte	$00
	.byte	$00
	.byte	$00
	.byte	$00
	.byte	$00
	.byte	$00
	.byte	$00
	.byte	$00
	.byte	$00
	.byte	$01
	.byte	$01
	.byte	$01
	.byte	$01
	.byte	$00
	.byte	$00
	.byte	$00
	.byte	$00
	.byte	$00
	.byte	$00
	.byte	$00
	.byte	$00
	.byte	$00
	.byte	$00
	.byte	$00
	.byte	$00
	.byte	$00
	.byte	$00
	.byte	$00
	.byte	$00
	.byte	$00
	.byte	$00
	.byte	$00
	.byte	$00
	.byte	$00
	.byte	$00
	.byte	$00
	.byte	$00
	.byte	$00
	.byte	$00
	.byte	$00
	.byte	$00
	.byte	$00
	.byte	$00
	.byte	$00
	.byte	$00
	.byte	$00
	.byte	$00
	.byte	$00
	.byte	$00
	.byte	$00
	.byte	$00
	.byte	$00
	.byte	$00
	.byte	$00
	.byte	$00
	.byte	$00
	.byte	$00
_perrytiles:
	.byte	$00
	.byte	$00
	.byte	$00
	.byte	$00
	.byte	$01
	.byte	$1E
	.byte	$1E
	.byte	$1F
	.byte	$1E
	.byte	$03
	.byte	$1E
	.byte	$00
	.byte	$00
	.byte	$00
	.byte	$03
	.byte	$00
	.byte	$1E
	.byte	$00
	.byte	$00
	.byte	$03
	.byte	$00
	.byte	$00
	.byte	$1E
	.byte	$00
	.byte	$03
	.byte	$00
	.byte	$00
	.byte	$00
	.byte	$1E
	.byte	$03
	.byte	$1F
	.byte	$00
	.byte	$00
	.byte	$00
	.byte	$03
	.byte	$00
	.byte	$00
	.byte	$1F
	.byte	$00
	.byte	$03
	.byte	$00
	.byte	$1F
	.byte	$00
	.byte	$00
	.byte	$03
	.byte	$00
	.byte	$00
	.byte	$00
	.byte	$1F
	.byte	$03
	.byte	$1E
	.byte	$00
	.byte	$00
	.byte	$1F
	.byte	$03
	.byte	$00
	.byte	$00
	.byte	$00
	.byte	$00
	.byte	$00
	.byte	$0E
	.byte	$0E
	.byte	$0E
	.byte	$0E
	.byte	$03
	.byte	$0F
	.byte	$0F
	.byte	$0F
	.byte	$0F
	.byte	$03
	.byte	$0E
	.byte	$0E
	.byte	$00
	.byte	$0E
	.byte	$03
	.byte	$0E
	.byte	$0E
	.byte	$0E
	.byte	$00
	.byte	$03
	.byte	$00
	.byte	$00
	.byte	$00
	.byte	$00
	.byte	$00
	.byte	$0C
	.byte	$0C
	.byte	$0D
	.byte	$0C
	.byte	$03
	.byte	$0C
	.byte	$00
	.byte	$00
	.byte	$00
	.byte	$03
	.byte	$00
	.byte	$0C
	.byte	$00
	.byte	$00
	.byte	$03
	.byte	$00
	.byte	$00
	.byte	$0C
	.byte	$00
	.byte	$03
	.byte	$00
	.byte	$00
	.byte	$00
	.byte	$0C
	.byte	$03
	.byte	$0D
	.byte	$00
	.byte	$00
	.byte	$00
	.byte	$03
	.byte	$00
	.byte	$00
	.byte	$0D
	.byte	$00
	.byte	$03
	.byte	$00
	.byte	$0D
	.byte	$00
	.byte	$00
	.byte	$03
	.byte	$00
	.byte	$00
	.byte	$00
	.byte	$0D
	.byte	$03
	.byte	$0C
	.byte	$00
	.byte	$00
	.byte	$0D
	.byte	$03
	.byte	$00
	.byte	$1D
	.byte	$00
	.byte	$00
	.byte	$00
	.byte	$00
	.byte	$00
	.byte	$0E
	.byte	$00
	.byte	$03
	.byte	$00
	.byte	$00
	.byte	$00
	.byte	$0F
	.byte	$03
	.byte	$00
	.byte	$0F
	.byte	$0F
	.byte	$0F
	.byte	$03
	.byte	$0E
	.byte	$00
	.byte	$0E
	.byte	$0E
	.byte	$03
	.byte	$00
	.byte	$00
	.byte	$00
	.byte	$00
	.byte	$00
	.byte	$8D
	.byte	$9D
	.byte	$00
	.byte	$00
	.byte	$02
	.byte	$9C
	.byte	$8D
	.byte	$00
	.byte	$00
	.byte	$02
	.byte	$00
	.byte	$00
	.byte	$7C
	.byte	$7D
	.byte	$02
	.byte	$00
	.byte	$00
	.byte	$7D
	.byte	$7E
	.byte	$02
	.byte	$9D
	.byte	$00
	.byte	$9C
	.byte	$00
	.byte	$02
	.byte	$00
	.byte	$8D
	.byte	$00
	.byte	$7E
	.byte	$02
	.byte	$00
	.byte	$00
	.byte	$00
	.byte	$00
	.byte	$00
	.byte	$00
	.byte	$00
	.byte	$00
	.byte	$00
	.byte	$00
	.byte	$00
	.byte	$00
	.byte	$00
	.byte	$00
	.byte	$00
	.byte	$1C
	.byte	$00
	.byte	$00
	.byte	$00
	.byte	$02
	.byte	$00
	.byte	$00
	.byte	$00
	.byte	$1D
	.byte	$02
	.byte	$00
	.byte	$00
	.byte	$00
	.byte	$1C
	.byte	$00
	.byte	$00
	.byte	$00
	.byte	$00
	.byte	$00
	.byte	$00
	.byte	$00
	.byte	$00
	.byte	$00
	.byte	$00
	.byte	$00
	.byte	$00
	.byte	$00
	.byte	$00
	.byte	$00
	.byte	$00
	.byte	$00
	.byte	$00
	.byte	$00
	.byte	$00
	.byte	$00
	.byte	$A4
	.byte	$A5
	.byte	$B4
	.byte	$B5
	.byte	$02
	.byte	$A6
	.byte	$A7
	.byte	$B6
	.byte	$B7
	.byte	$02
	.byte	$A8
	.byte	$A9
	.byte	$B8
	.byte	$B9
	.byte	$02
	.byte	$C8
	.byte	$C9
	.byte	$D8
	.byte	$D9
	.byte	$02
	.byte	$C4
	.byte	$C5
	.byte	$D4
	.byte	$D5
	.byte	$02
	.byte	$C6
	.byte	$C7
	.byte	$D6
	.byte	$D7
	.byte	$02
	.byte	$E4
	.byte	$E5
	.byte	$F4
	.byte	$F5
	.byte	$02
	.byte	$E6
	.byte	$E7
	.byte	$F6
	.byte	$F7
	.byte	$02
	.byte	$E8
	.byte	$E9
	.byte	$F8
	.byte	$F5
	.byte	$02
	.byte	$8E
	.byte	$8F
	.byte	$9E
	.byte	$9F
	.byte	$03
	.byte	$9E
	.byte	$9F
	.byte	$8E
	.byte	$8F
	.byte	$03
	.byte	$AC
	.byte	$AD
	.byte	$BC
	.byte	$BD
	.byte	$03
	.byte	$84
	.byte	$85
	.byte	$94
	.byte	$95
	.byte	$02
	.byte	$86
	.byte	$87
	.byte	$96
	.byte	$97
	.byte	$02
	.byte	$88
	.byte	$89
	.byte	$98
	.byte	$99
	.byte	$02
	.byte	$00
	.byte	$00
	.byte	$00
	.byte	$00
	.byte	$00
	.byte	$00
	.byte	$00
	.byte	$00
	.byte	$00
	.byte	$00
	.byte	$00
	.byte	$00
	.byte	$00
	.byte	$00
	.byte	$00
	.byte	$00
	.byte	$00
	.byte	$00
	.byte	$00
	.byte	$00
	.byte	$00
	.byte	$00
	.byte	$00
	.byte	$00
	.byte	$00
	.byte	$00
	.byte	$00
	.byte	$00
	.byte	$00
	.byte	$00
	.byte	$CA
	.byte	$CB
	.byte	$DA
	.byte	$DB
	.byte	$02
	.byte	$00
	.byte	$00
	.byte	$F2
	.byte	$F3
	.byte	$00
	.byte	$00
	.byte	$00
	.byte	$10
	.byte	$12
	.byte	$02
	.byte	$00
	.byte	$00
	.byte	$12
	.byte	$11
	.byte	$02
	.byte	$00
	.byte	$00
	.byte	$12
	.byte	$12
	.byte	$02
	.byte	$AE
	.byte	$AF
	.byte	$BE
	.byte	$BF
	.byte	$00
	.byte	$C2
	.byte	$C3
	.byte	$D2
	.byte	$D3
	.byte	$03
	.byte	$C0
	.byte	$C1
	.byte	$D0
	.byte	$D1
	.byte	$02
	.byte	$8A
	.byte	$85
	.byte	$9A
	.byte	$95
	.byte	$02
	.byte	$8B
	.byte	$00
	.byte	$8B
	.byte	$00
	.byte	$02
	.byte	$02
	.byte	$47
	.byte	$02
	.byte	$02
	.byte	$01
	.byte	$41
	.byte	$4D
	.byte	$02
	.byte	$02
	.byte	$01
	.byte	$45
	.byte	$02
	.byte	$02
	.byte	$02
	.byte	$01
	.byte	$47
	.byte	$45
	.byte	$02
	.byte	$02
	.byte	$01
	.byte	$4E
	.byte	$49
	.byte	$02
	.byte	$02
	.byte	$01
	.byte	$45
	.byte	$21
	.byte	$02
	.byte	$02
	.byte	$01
	.byte	$CF
	.byte	$CF
	.byte	$02
	.byte	$02
	.byte	$01
	.byte	$CC
	.byte	$CE
	.byte	$DC
	.byte	$02
	.byte	$01
	.byte	$CE
	.byte	$CD
	.byte	$02
	.byte	$DD
	.byte	$01
	.byte	$00
	.byte	$00
	.byte	$00
	.byte	$00
	.byte	$00
	.byte	$00
	.byte	$00
	.byte	$00
	.byte	$00
	.byte	$00
	.byte	$00
	.byte	$00
	.byte	$00
	.byte	$00
	.byte	$00
	.byte	$00
	.byte	$00
	.byte	$00
	.byte	$00
	.byte	$00
	.byte	$02
	.byte	$02
	.byte	$01
	.byte	$01
	.byte	$00
	.byte	$01
	.byte	$01
	.byte	$02
	.byte	$02
	.byte	$00
	.byte	$00
	.byte	$9B
	.byte	$00
	.byte	$9B
	.byte	$02
	.byte	$CC
	.byte	$CD
	.byte	$DC
	.byte	$EE
	.byte	$02
	.byte	$CE
	.byte	$CE
	.byte	$EE
	.byte	$EE
	.byte	$02
	.byte	$CF
	.byte	$CD
	.byte	$EE
	.byte	$DD
	.byte	$02
	.byte	$CC
	.byte	$CE
	.byte	$DC
	.byte	$02
	.byte	$01
	.byte	$CF
	.byte	$CE
	.byte	$DE
	.byte	$DF
	.byte	$01
	.byte	$CF
	.byte	$CD
	.byte	$DE
	.byte	$FF
	.byte	$01
	.byte	$DC
	.byte	$DD
	.byte	$FE
	.byte	$FF
	.byte	$01
	.byte	$FE
	.byte	$02
	.byte	$DC
	.byte	$02
	.byte	$01
	.byte	$02
	.byte	$ED
	.byte	$02
	.byte	$FF
	.byte	$01
	.byte	$03
	.byte	$03
	.byte	$03
	.byte	$03
	.byte	$00
	.byte	$B3
	.byte	$03
	.byte	$03
	.byte	$03
	.byte	$00
	.byte	$82
	.byte	$83
	.byte	$03
	.byte	$03
	.byte	$00
	.byte	$02
	.byte	$02
	.byte	$02
	.byte	$02
	.byte	$00
	.byte	$02
	.byte	$01
	.byte	$02
	.byte	$01
	.byte	$00
	.byte	$01
	.byte	$02
	.byte	$01
	.byte	$02
	.byte	$00
	.byte	$00
	.byte	$00
	.byte	$00
	.byte	$00
	.byte	$01
	.byte	$DC
	.byte	$EE
	.byte	$EC
	.byte	$EE
	.byte	$02
	.byte	$EE
	.byte	$EE
	.byte	$EE
	.byte	$EE
	.byte	$02
	.byte	$EE
	.byte	$ED
	.byte	$EE
	.byte	$DD
	.byte	$02
	.byte	$EC
	.byte	$DD
	.byte	$FE
	.byte	$ED
	.byte	$01
	.byte	$00
	.byte	$00
	.byte	$00
	.byte	$00
	.byte	$00
	.byte	$DC
	.byte	$ED
	.byte	$DC
	.byte	$DD
	.byte	$01
	.byte	$FE
	.byte	$ED
	.byte	$EC
	.byte	$DD
	.byte	$01
	.byte	$DC
	.byte	$02
	.byte	$DC
	.byte	$02
	.byte	$01
	.byte	$02
	.byte	$DD
	.byte	$02
	.byte	$ED
	.byte	$01
	.byte	$92
	.byte	$03
	.byte	$92
	.byte	$03
	.byte	$00
	.byte	$03
	.byte	$B1
	.byte	$03
	.byte	$03
	.byte	$00
	.byte	$03
	.byte	$93
	.byte	$03
	.byte	$93
	.byte	$00
	.byte	$5F
	.byte	$02
	.byte	$02
	.byte	$02
	.byte	$00
	.byte	$AA
	.byte	$AB
	.byte	$BA
	.byte	$BB
	.byte	$00
	.byte	$03
	.byte	$03
	.byte	$02
	.byte	$02
	.byte	$00
	.byte	$00
	.byte	$18
	.byte	$00
	.byte	$18
	.byte	$00
	.byte	$DC
	.byte	$EE
	.byte	$FC
	.byte	$DE
	.byte	$02
	.byte	$EE
	.byte	$EE
	.byte	$DF
	.byte	$DE
	.byte	$02
	.byte	$EE
	.byte	$DD
	.byte	$DF
	.byte	$FD
	.byte	$02
	.byte	$EC
	.byte	$DD
	.byte	$FC
	.byte	$DE
	.byte	$01
	.byte	$EF
	.byte	$CF
	.byte	$DF
	.byte	$DE
	.byte	$01
	.byte	$EF
	.byte	$ED
	.byte	$DE
	.byte	$FD
	.byte	$01
	.byte	$CF
	.byte	$CD
	.byte	$DF
	.byte	$FD
	.byte	$01
	.byte	$EF
	.byte	$CE
	.byte	$FC
	.byte	$DF
	.byte	$01
	.byte	$02
	.byte	$02
	.byte	$DE
	.byte	$DF
	.byte	$01
	.byte	$92
	.byte	$03
	.byte	$A2
	.byte	$A1
	.byte	$00
	.byte	$03
	.byte	$03
	.byte	$A1
	.byte	$A1
	.byte	$00
	.byte	$03
	.byte	$93
	.byte	$A1
	.byte	$A3
	.byte	$00
	.byte	$80
	.byte	$81
	.byte	$90
	.byte	$91
	.byte	$03
	.byte	$00
	.byte	$00
	.byte	$F0
	.byte	$00
	.byte	$02
	.byte	$00
	.byte	$00
	.byte	$F0
	.byte	$F1
	.byte	$02
	.byte	$14
	.byte	$14
	.byte	$00
	.byte	$00
	.byte	$00
	.byte	$00
	.byte	$00
	.byte	$00
	.byte	$00
	.byte	$00
	.byte	$13
	.byte	$01
	.byte	$13
	.byte	$01
	.byte	$01
	.byte	$CE
	.byte	$CF
	.byte	$02
	.byte	$02
	.byte	$01
	.byte	$CF
	.byte	$CE
	.byte	$02
	.byte	$02
	.byte	$01
	.byte	$00
	.byte	$00
	.byte	$E0
	.byte	$E0
	.byte	$02
	.byte	$02
	.byte	$02
	.byte	$DE
	.byte	$DF
	.byte	$01
	.byte	$00
	.byte	$92
	.byte	$E0
	.byte	$92
	.byte	$02
	.byte	$DC
	.byte	$02
	.byte	$FC
	.byte	$DF
	.byte	$01
	.byte	$02
	.byte	$DD
	.byte	$DE
	.byte	$FD
	.byte	$01
	.byte	$03
	.byte	$03
	.byte	$A1
	.byte	$B2
	.byte	$00
	.byte	$B0
	.byte	$03
	.byte	$03
	.byte	$03
	.byte	$00
	.byte	$A0
	.byte	$03
	.byte	$03
	.byte	$03
	.byte	$00
	.byte	$01
	.byte	$01
	.byte	$07
	.byte	$07
	.byte	$00
	.byte	$18
	.byte	$18
	.byte	$07
	.byte	$07
	.byte	$00
	.byte	$13
	.byte	$01
	.byte	$13
	.byte	$01
	.byte	$00
	.byte	$5F
	.byte	$5F
	.byte	$02
	.byte	$02
	.byte	$00
	.byte	$02
	.byte	$02
	.byte	$02
	.byte	$02
	.byte	$00
	.byte	$01
	.byte	$01
	.byte	$01
	.byte	$01
	.byte	$01
	.byte	$03
	.byte	$03
	.byte	$03
	.byte	$03
	.byte	$01
	.byte	$02
	.byte	$02
	.byte	$02
	.byte	$02
	.byte	$01
	.byte	$01
	.byte	$01
	.byte	$01
	.byte	$01
	.byte	$03
	.byte	$01
	.byte	$01
	.byte	$01
	.byte	$01
	.byte	$02
	.byte	$00
	.byte	$00
	.byte	$00
	.byte	$00
	.byte	$01
	.byte	$E1
	.byte	$E1
	.byte	$E1
	.byte	$E1
	.byte	$02
	.byte	$E1
	.byte	$92
	.byte	$E1
	.byte	$E1
	.byte	$02
	.byte	$E2
	.byte	$03
	.byte	$03
	.byte	$03
	.byte	$00
	.byte	$E3
	.byte	$E3
	.byte	$03
	.byte	$03
	.byte	$00
	.byte	$E3
	.byte	$E3
	.byte	$A1
	.byte	$A1
	.byte	$00
	.byte	$4E
	.byte	$69
	.byte	$5B
	.byte	$5C
	.byte	$01
	.byte	$6E
	.byte	$74
	.byte	$5D
	.byte	$5E
	.byte	$01
	.byte	$65
	.byte	$6E
	.byte	$5B
	.byte	$20
	.byte	$01
	.byte	$64
	.byte	$6F
	.byte	$3C
	.byte	$3D
	.byte	$01
	.byte	$13
	.byte	$01
	.byte	$06
	.byte	$07
	.byte	$02
	.byte	$01
	.byte	$19
	.byte	$07
	.byte	$15
	.byte	$02
	.byte	$23
	.byte	$00
	.byte	$02
	.byte	$23
	.byte	$00
	.byte	$00
	.byte	$2F
	.byte	$2F
	.byte	$02
	.byte	$00
	.byte	$00
	.byte	$00
	.byte	$00
	.byte	$CC
	.byte	$01
	.byte	$00
	.byte	$00
	.byte	$CF
	.byte	$CE
	.byte	$01
	.byte	$00
	.byte	$00
	.byte	$CF
	.byte	$CE
	.byte	$01
	.byte	$00
	.byte	$00
	.byte	$CE
	.byte	$CF
	.byte	$01
	.byte	$00
	.byte	$00
	.byte	$00
	.byte	$00
	.byte	$00
	.byte	$00
	.byte	$00
	.byte	$CD
	.byte	$00
	.byte	$01
	.byte	$9B
	.byte	$00
	.byte	$8B
	.byte	$9B
	.byte	$00
	.byte	$29
	.byte	$29
	.byte	$00
	.byte	$EB
	.byte	$02
	.byte	$00
	.byte	$28
	.byte	$00
	.byte	$EB
	.byte	$02
	.byte	$29
	.byte	$29
	.byte	$00
	.byte	$00
	.byte	$02
	.byte	$29
	.byte	$2A
	.byte	$00
	.byte	$EB
	.byte	$02
	.byte	$20
	.byte	$20
	.byte	$3E
	.byte	$20
	.byte	$01
	.byte	$13
	.byte	$01
	.byte	$13
	.byte	$01
	.byte	$02
	.byte	$01
	.byte	$19
	.byte	$01
	.byte	$19
	.byte	$02
	.byte	$40
	.byte	$02
	.byte	$00
	.byte	$40
	.byte	$00
	.byte	$02
	.byte	$24
	.byte	$24
	.byte	$00
	.byte	$00
	.byte	$00
	.byte	$DC
	.byte	$00
	.byte	$DC
	.byte	$01
	.byte	$50
	.byte	$65
	.byte	$02
	.byte	$02
	.byte	$01
	.byte	$72
	.byte	$72
	.byte	$02
	.byte	$02
	.byte	$01
	.byte	$79
	.byte	$21
	.byte	$02
	.byte	$02
	.byte	$01
	.byte	$00
	.byte	$00
	.byte	$02
	.byte	$02
	.byte	$01
	.byte	$ED
	.byte	$00
	.byte	$DD
	.byte	$00
	.byte	$01
	.byte	$8B
	.byte	$9B
	.byte	$9B
	.byte	$00
	.byte	$00
	.byte	$2B
	.byte	$2B
	.byte	$2B
	.byte	$2B
	.byte	$00
	.byte	$00
	.byte	$EB
	.byte	$00
	.byte	$EB
	.byte	$02
	.byte	$00
	.byte	$00
	.byte	$F0
	.byte	$F0
	.byte	$00
	.byte	$02
	.byte	$02
	.byte	$5F
	.byte	$5F
	.byte	$01
	.byte	$00
	.byte	$8C
	.byte	$00
	.byte	$00
	.byte	$00
	.byte	$03
	.byte	$03
	.byte	$03
	.byte	$03
	.byte	$03
	.byte	$03
	.byte	$0B
	.byte	$08
	.byte	$03
	.byte	$03
	.byte	$09
	.byte	$03
	.byte	$03
	.byte	$03
	.byte	$03
	.byte	$03
	.byte	$08
	.byte	$03
	.byte	$03
	.byte	$03
	.byte	$00
	.byte	$EC
	.byte	$EA
	.byte	$EF
	.byte	$01
	.byte	$47
	.byte	$45
	.byte	$DF
	.byte	$DE
	.byte	$01
	.byte	$54
	.byte	$02
	.byte	$DF
	.byte	$DF
	.byte	$01
	.byte	$4F
	.byte	$55
	.byte	$DF
	.byte	$DE
	.byte	$01
	.byte	$54
	.byte	$21
	.byte	$DF
	.byte	$DF
	.byte	$01
	.byte	$DD
	.byte	$00
	.byte	$FD
	.byte	$00
	.byte	$01
	.byte	$8C
	.byte	$00
	.byte	$00
	.byte	$00
	.byte	$00
	.byte	$8C
	.byte	$8C
	.byte	$00
	.byte	$00
	.byte	$00
	.byte	$7B
	.byte	$00
	.byte	$00
	.byte	$00
	.byte	$03
	.byte	$20
	.byte	$5E
	.byte	$20
	.byte	$5C
	.byte	$00
	.byte	$02
	.byte	$5E
	.byte	$5E
	.byte	$5C
	.byte	$00
	.byte	$9B
	.byte	$00
	.byte	$8B
	.byte	$9B
	.byte	$03
	.byte	$09
	.byte	$03
	.byte	$03
	.byte	$03
	.byte	$03
	.byte	$03
	.byte	$03
	.byte	$03
	.byte	$0B
	.byte	$03
	.byte	$08
	.byte	$0B
	.byte	$08
	.byte	$09
	.byte	$03
	.byte	$03
	.byte	$03
	.byte	$09
	.byte	$03
	.byte	$03
	.byte	$FA
	.byte	$FB
	.byte	$00
	.byte	$00
	.byte	$01
	.byte	$00
	.byte	$00
	.byte	$00
	.byte	$00
	.byte	$00
	.byte	$00
	.byte	$00
	.byte	$00
	.byte	$00
	.byte	$00
	.byte	$00
	.byte	$00
	.byte	$00
	.byte	$00
	.byte	$00
	.byte	$00
	.byte	$00
	.byte	$00
	.byte	$00
	.byte	$00
	.byte	$7B
	.byte	$00
	.byte	$00
	.byte	$7B
	.byte	$01
	.byte	$03
	.byte	$F9
	.byte	$F9
	.byte	$03
	.byte	$00
	.byte	$93
	.byte	$93
	.byte	$93
	.byte	$93
	.byte	$00
	.byte	$00
	.byte	$7B
	.byte	$7B
	.byte	$00
	.byte	$03
	.byte	$F1
	.byte	$F1
	.byte	$00
	.byte	$00
	.byte	$00
	.byte	$00
	.byte	$00
	.byte	$8C
	.byte	$8C
	.byte	$00
	.byte	$9B
	.byte	$00
	.byte	$00
	.byte	$00
	.byte	$03
_titletiles:
	.byte	$03
	.byte	$03
	.byte	$03
	.byte	$03
	.byte	$03
	.byte	$0A
	.byte	$0A
	.byte	$0B
	.byte	$0A
	.byte	$03
	.byte	$0A
	.byte	$03
	.byte	$03
	.byte	$03
	.byte	$03
	.byte	$03
	.byte	$0A
	.byte	$03
	.byte	$03
	.byte	$03
	.byte	$03
	.byte	$03
	.byte	$0A
	.byte	$03
	.byte	$03
	.byte	$03
	.byte	$03
	.byte	$03
	.byte	$0A
	.byte	$03
	.byte	$0B
	.byte	$03
	.byte	$03
	.byte	$03
	.byte	$03
	.byte	$03
	.byte	$03
	.byte	$0B
	.byte	$03
	.byte	$03
	.byte	$03
	.byte	$0B
	.byte	$03
	.byte	$03
	.byte	$03
	.byte	$03
	.byte	$03
	.byte	$03
	.byte	$0B
	.byte	$03
	.byte	$0A
	.byte	$03
	.byte	$03
	.byte	$0B
	.byte	$03
	.byte	$03
	.byte	$1B
	.byte	$03
	.byte	$03
	.byte	$03
	.byte	$0E
	.byte	$0E
	.byte	$0E
	.byte	$0E
	.byte	$03
	.byte	$0F
	.byte	$0F
	.byte	$0F
	.byte	$0F
	.byte	$03
	.byte	$0E
	.byte	$0E
	.byte	$00
	.byte	$0E
	.byte	$03
	.byte	$0E
	.byte	$0E
	.byte	$0E
	.byte	$00
	.byte	$03
	.byte	$00
	.byte	$00
	.byte	$00
	.byte	$00
	.byte	$00
	.byte	$08
	.byte	$08
	.byte	$09
	.byte	$08
	.byte	$03
	.byte	$08
	.byte	$03
	.byte	$03
	.byte	$03
	.byte	$03
	.byte	$03
	.byte	$08
	.byte	$03
	.byte	$03
	.byte	$03
	.byte	$03
	.byte	$03
	.byte	$08
	.byte	$03
	.byte	$03
	.byte	$03
	.byte	$03
	.byte	$03
	.byte	$08
	.byte	$03
	.byte	$09
	.byte	$03
	.byte	$03
	.byte	$03
	.byte	$03
	.byte	$03
	.byte	$03
	.byte	$09
	.byte	$03
	.byte	$03
	.byte	$03
	.byte	$09
	.byte	$03
	.byte	$03
	.byte	$03
	.byte	$03
	.byte	$03
	.byte	$03
	.byte	$09
	.byte	$03
	.byte	$08
	.byte	$03
	.byte	$03
	.byte	$09
	.byte	$03
	.byte	$00
	.byte	$1D
	.byte	$00
	.byte	$00
	.byte	$00
	.byte	$00
	.byte	$00
	.byte	$0E
	.byte	$00
	.byte	$03
	.byte	$00
	.byte	$00
	.byte	$00
	.byte	$0F
	.byte	$03
	.byte	$00
	.byte	$0F
	.byte	$0F
	.byte	$0F
	.byte	$03
	.byte	$0E
	.byte	$00
	.byte	$0E
	.byte	$0E
	.byte	$03
	.byte	$00
	.byte	$00
	.byte	$00
	.byte	$00
	.byte	$00
	.byte	$8D
	.byte	$9D
	.byte	$00
	.byte	$00
	.byte	$03
	.byte	$9C
	.byte	$8D
	.byte	$00
	.byte	$00
	.byte	$03
	.byte	$00
	.byte	$00
	.byte	$7C
	.byte	$7D
	.byte	$03
	.byte	$00
	.byte	$00
	.byte	$7D
	.byte	$7E
	.byte	$03
	.byte	$9D
	.byte	$00
	.byte	$9C
	.byte	$00
	.byte	$03
	.byte	$00
	.byte	$8D
	.byte	$00
	.byte	$7E
	.byte	$03
	.byte	$00
	.byte	$00
	.byte	$00
	.byte	$00
	.byte	$00
	.byte	$00
	.byte	$00
	.byte	$00
	.byte	$00
	.byte	$00
	.byte	$00
	.byte	$00
	.byte	$00
	.byte	$00
	.byte	$00
	.byte	$1C
	.byte	$00
	.byte	$00
	.byte	$00
	.byte	$02
	.byte	$00
	.byte	$00
	.byte	$00
	.byte	$1D
	.byte	$02
	.byte	$00
	.byte	$00
	.byte	$00
	.byte	$1C
	.byte	$00
	.byte	$00
	.byte	$00
	.byte	$00
	.byte	$00
	.byte	$00
	.byte	$00
	.byte	$00
	.byte	$00
	.byte	$00
	.byte	$00
	.byte	$00
	.byte	$00
	.byte	$00
	.byte	$00
	.byte	$00
	.byte	$00
	.byte	$00
	.byte	$00
	.byte	$00
	.byte	$00
	.byte	$A4
	.byte	$A5
	.byte	$B4
	.byte	$B5
	.byte	$02
	.byte	$A6
	.byte	$A7
	.byte	$B6
	.byte	$B7
	.byte	$02
	.byte	$A8
	.byte	$A9
	.byte	$B8
	.byte	$B9
	.byte	$02
	.byte	$C8
	.byte	$C9
	.byte	$D8
	.byte	$D9
	.byte	$02
	.byte	$C4
	.byte	$C5
	.byte	$D4
	.byte	$D5
	.byte	$02
	.byte	$C6
	.byte	$C7
	.byte	$D6
	.byte	$D7
	.byte	$02
	.byte	$E4
	.byte	$E5
	.byte	$F4
	.byte	$F5
	.byte	$02
	.byte	$E6
	.byte	$E7
	.byte	$F6
	.byte	$F7
	.byte	$02
	.byte	$E8
	.byte	$E9
	.byte	$F8
	.byte	$F9
	.byte	$02
	.byte	$8E
	.byte	$8F
	.byte	$9E
	.byte	$9F
	.byte	$03
	.byte	$9E
	.byte	$9F
	.byte	$8E
	.byte	$8F
	.byte	$03
	.byte	$AC
	.byte	$AD
	.byte	$BC
	.byte	$BD
	.byte	$03
	.byte	$84
	.byte	$85
	.byte	$94
	.byte	$95
	.byte	$02
	.byte	$86
	.byte	$87
	.byte	$96
	.byte	$97
	.byte	$02
	.byte	$88
	.byte	$89
	.byte	$98
	.byte	$99
	.byte	$02
	.byte	$00
	.byte	$00
	.byte	$00
	.byte	$00
	.byte	$00
	.byte	$00
	.byte	$00
	.byte	$00
	.byte	$00
	.byte	$00
	.byte	$00
	.byte	$00
	.byte	$00
	.byte	$00
	.byte	$00
	.byte	$00
	.byte	$00
	.byte	$00
	.byte	$00
	.byte	$00
	.byte	$00
	.byte	$00
	.byte	$00
	.byte	$00
	.byte	$00
	.byte	$00
	.byte	$00
	.byte	$00
	.byte	$00
	.byte	$00
	.byte	$00
	.byte	$00
	.byte	$00
	.byte	$00
	.byte	$00
	.byte	$E2
	.byte	$E3
	.byte	$F2
	.byte	$F3
	.byte	$00
	.byte	$00
	.byte	$00
	.byte	$10
	.byte	$12
	.byte	$02
	.byte	$00
	.byte	$00
	.byte	$12
	.byte	$11
	.byte	$02
	.byte	$00
	.byte	$00
	.byte	$12
	.byte	$12
	.byte	$02
	.byte	$AE
	.byte	$AF
	.byte	$BE
	.byte	$BF
	.byte	$00
	.byte	$C2
	.byte	$C3
	.byte	$D2
	.byte	$D3
	.byte	$03
	.byte	$C0
	.byte	$C1
	.byte	$D0
	.byte	$D1
	.byte	$02
	.byte	$8A
	.byte	$8B
	.byte	$9A
	.byte	$9B
	.byte	$02
	.byte	$8C
	.byte	$00
	.byte	$8C
	.byte	$00
	.byte	$02
	.byte	$00
	.byte	$00
	.byte	$00
	.byte	$00
	.byte	$00
	.byte	$00
	.byte	$00
	.byte	$00
	.byte	$00
	.byte	$00
	.byte	$00
	.byte	$00
	.byte	$00
	.byte	$00
	.byte	$00
	.byte	$00
	.byte	$00
	.byte	$00
	.byte	$00
	.byte	$00
	.byte	$00
	.byte	$00
	.byte	$00
	.byte	$00
	.byte	$00
	.byte	$00
	.byte	$00
	.byte	$00
	.byte	$00
	.byte	$00
	.byte	$00
	.byte	$00
	.byte	$00
	.byte	$00
	.byte	$00
	.byte	$00
	.byte	$00
	.byte	$00
	.byte	$00
	.byte	$00
	.byte	$00
	.byte	$00
	.byte	$00
	.byte	$00
	.byte	$00
	.byte	$00
	.byte	$00
	.byte	$00
	.byte	$00
	.byte	$00
	.byte	$00
	.byte	$00
	.byte	$00
	.byte	$00
	.byte	$00
	.byte	$00
	.byte	$00
	.byte	$00
	.byte	$00
	.byte	$00
	.byte	$00
	.byte	$00
	.byte	$00
	.byte	$00
	.byte	$00
	.byte	$00
	.byte	$00
	.byte	$00
	.byte	$00
	.byte	$00
	.byte	$00
	.byte	$00
	.byte	$00
	.byte	$00
	.byte	$00
	.byte	$00
	.byte	$AB
	.byte	$00
	.byte	$AB
	.byte	$02
	.byte	$CC
	.byte	$CD
	.byte	$DC
	.byte	$EE
	.byte	$02
	.byte	$CE
	.byte	$CE
	.byte	$EE
	.byte	$EE
	.byte	$02
	.byte	$CF
	.byte	$CD
	.byte	$EE
	.byte	$DD
	.byte	$02
	.byte	$CC
	.byte	$CE
	.byte	$DC
	.byte	$02
	.byte	$01
	.byte	$CF
	.byte	$CE
	.byte	$DE
	.byte	$DF
	.byte	$01
	.byte	$CF
	.byte	$CD
	.byte	$DE
	.byte	$FF
	.byte	$01
	.byte	$DC
	.byte	$DD
	.byte	$FE
	.byte	$FF
	.byte	$01
	.byte	$00
	.byte	$00
	.byte	$00
	.byte	$00
	.byte	$00
	.byte	$00
	.byte	$00
	.byte	$00
	.byte	$00
	.byte	$00
	.byte	$00
	.byte	$00
	.byte	$00
	.byte	$00
	.byte	$00
	.byte	$00
	.byte	$00
	.byte	$00
	.byte	$00
	.byte	$01
	.byte	$00
	.byte	$00
	.byte	$00
	.byte	$00
	.byte	$02
	.byte	$00
	.byte	$00
	.byte	$00
	.byte	$00
	.byte	$01
	.byte	$00
	.byte	$00
	.byte	$00
	.byte	$00
	.byte	$00
	.byte	$00
	.byte	$00
	.byte	$00
	.byte	$00
	.byte	$01
	.byte	$00
	.byte	$00
	.byte	$00
	.byte	$00
	.byte	$01
	.byte	$DC
	.byte	$EE
	.byte	$EC
	.byte	$EE
	.byte	$02
	.byte	$EE
	.byte	$EE
	.byte	$EE
	.byte	$EE
	.byte	$02
	.byte	$EE
	.byte	$ED
	.byte	$EE
	.byte	$DD
	.byte	$02
	.byte	$EC
	.byte	$DD
	.byte	$FE
	.byte	$ED
	.byte	$01
	.byte	$00
	.byte	$00
	.byte	$00
	.byte	$00
	.byte	$00
	.byte	$DC
	.byte	$ED
	.byte	$DC
	.byte	$DD
	.byte	$01
	.byte	$FE
	.byte	$ED
	.byte	$EC
	.byte	$DD
	.byte	$01
	.byte	$00
	.byte	$00
	.byte	$00
	.byte	$00
	.byte	$03
	.byte	$00
	.byte	$00
	.byte	$00
	.byte	$00
	.byte	$00
	.byte	$00
	.byte	$00
	.byte	$00
	.byte	$00
	.byte	$00
	.byte	$00
	.byte	$00
	.byte	$00
	.byte	$00
	.byte	$02
	.byte	$00
	.byte	$00
	.byte	$00
	.byte	$00
	.byte	$02
	.byte	$00
	.byte	$00
	.byte	$00
	.byte	$00
	.byte	$02
	.byte	$00
	.byte	$00
	.byte	$00
	.byte	$00
	.byte	$00
	.byte	$00
	.byte	$00
	.byte	$00
	.byte	$00
	.byte	$01
	.byte	$00
	.byte	$00
	.byte	$00
	.byte	$00
	.byte	$00
	.byte	$DC
	.byte	$EE
	.byte	$FC
	.byte	$DE
	.byte	$02
	.byte	$EE
	.byte	$EE
	.byte	$DF
	.byte	$DE
	.byte	$02
	.byte	$EE
	.byte	$DD
	.byte	$DF
	.byte	$FD
	.byte	$02
	.byte	$EC
	.byte	$DD
	.byte	$FC
	.byte	$DE
	.byte	$01
	.byte	$EF
	.byte	$CF
	.byte	$DF
	.byte	$DE
	.byte	$01
	.byte	$EF
	.byte	$ED
	.byte	$DE
	.byte	$FD
	.byte	$01
	.byte	$00
	.byte	$00
	.byte	$00
	.byte	$00
	.byte	$00
	.byte	$00
	.byte	$00
	.byte	$00
	.byte	$00
	.byte	$00
	.byte	$00
	.byte	$00
	.byte	$00
	.byte	$00
	.byte	$00
	.byte	$00
	.byte	$00
	.byte	$00
	.byte	$00
	.byte	$00
	.byte	$00
	.byte	$00
	.byte	$00
	.byte	$00
	.byte	$02
	.byte	$00
	.byte	$00
	.byte	$00
	.byte	$00
	.byte	$01
	.byte	$00
	.byte	$00
	.byte	$00
	.byte	$00
	.byte	$02
	.byte	$00
	.byte	$00
	.byte	$00
	.byte	$00
	.byte	$00
	.byte	$00
	.byte	$00
	.byte	$00
	.byte	$00
	.byte	$01
	.byte	$00
	.byte	$00
	.byte	$00
	.byte	$00
	.byte	$00
	.byte	$00
	.byte	$00
	.byte	$00
	.byte	$00
	.byte	$00
	.byte	$00
	.byte	$00
	.byte	$00
	.byte	$00
	.byte	$00
	.byte	$00
	.byte	$00
	.byte	$00
	.byte	$00
	.byte	$00
	.byte	$00
	.byte	$00
	.byte	$00
	.byte	$00
	.byte	$00
	.byte	$00
	.byte	$00
	.byte	$00
	.byte	$00
	.byte	$00
	.byte	$00
	.byte	$00
	.byte	$00
	.byte	$00
	.byte	$00
	.byte	$00
	.byte	$00
	.byte	$00
	.byte	$00
	.byte	$00
	.byte	$00
	.byte	$00
	.byte	$00
	.byte	$00
	.byte	$00
	.byte	$00
	.byte	$00
	.byte	$00
	.byte	$00
	.byte	$00
	.byte	$00
	.byte	$00
	.byte	$00
	.byte	$00
	.byte	$00
	.byte	$00
	.byte	$00
	.byte	$00
	.byte	$00
	.byte	$00
	.byte	$00
	.byte	$00
	.byte	$00
	.byte	$00
	.byte	$00
	.byte	$00
	.byte	$00
	.byte	$00
	.byte	$00
	.byte	$00
	.byte	$00
	.byte	$00
	.byte	$00
	.byte	$00
	.byte	$00
	.byte	$00
	.byte	$00
	.byte	$00
	.byte	$00
	.byte	$00
	.byte	$00
	.byte	$00
	.byte	$00
	.byte	$00
	.byte	$00
	.byte	$02
	.byte	$02
	.byte	$02
	.byte	$02
	.byte	$00
	.byte	$00
	.byte	$00
	.byte	$00
	.byte	$00
	.byte	$01
	.byte	$00
	.byte	$00
	.byte	$00
	.byte	$00
	.byte	$01
	.byte	$00
	.byte	$00
	.byte	$00
	.byte	$00
	.byte	$01
	.byte	$00
	.byte	$00
	.byte	$00
	.byte	$00
	.byte	$01
	.byte	$00
	.byte	$00
	.byte	$00
	.byte	$00
	.byte	$01
	.byte	$00
	.byte	$00
	.byte	$00
	.byte	$00
	.byte	$01
	.byte	$00
	.byte	$00
	.byte	$00
	.byte	$00
	.byte	$01
	.byte	$00
	.byte	$00
	.byte	$00
	.byte	$00
	.byte	$01
	.byte	$00
	.byte	$00
	.byte	$00
	.byte	$00
	.byte	$01
	.byte	$00
	.byte	$00
	.byte	$00
	.byte	$00
	.byte	$01
	.byte	$00
	.byte	$00
	.byte	$00
	.byte	$00
	.byte	$01
	.byte	$00
	.byte	$00
	.byte	$00
	.byte	$00
	.byte	$01
	.byte	$00
	.byte	$00
	.byte	$00
	.byte	$00
	.byte	$01
	.byte	$00
	.byte	$00
	.byte	$00
	.byte	$00
	.byte	$00
	.byte	$00
	.byte	$00
	.byte	$00
	.byte	$00
	.byte	$00
	.byte	$03
	.byte	$03
	.byte	$03
	.byte	$04
	.byte	$01
	.byte	$03
	.byte	$03
	.byte	$12
	.byte	$12
	.byte	$01
	.byte	$03
	.byte	$03
	.byte	$05
	.byte	$03
	.byte	$01
	.byte	$03
	.byte	$03
	.byte	$04
	.byte	$12
	.byte	$01
	.byte	$03
	.byte	$03
	.byte	$11
	.byte	$03
	.byte	$01
	.byte	$00
	.byte	$00
	.byte	$00
	.byte	$00
	.byte	$01
	.byte	$7F
	.byte	$02
	.byte	$02
	.byte	$02
	.byte	$00
	.byte	$42
	.byte	$72
	.byte	$02
	.byte	$02
	.byte	$00
	.byte	$69
	.byte	$61
	.byte	$02
	.byte	$02
	.byte	$00
	.byte	$6E
	.byte	$02
	.byte	$02
	.byte	$02
	.byte	$00
	.byte	$26
	.byte	$02
	.byte	$02
	.byte	$02
	.byte	$00
	.byte	$41
	.byte	$6C
	.byte	$02
	.byte	$02
	.byte	$00
	.byte	$61
	.byte	$6E
	.byte	$02
	.byte	$02
	.byte	$00
	.byte	$02
	.byte	$47
	.byte	$02
	.byte	$02
	.byte	$00
	.byte	$61
	.byte	$6D
	.byte	$02
	.byte	$02
	.byte	$00
	.byte	$65
	.byte	$73
	.byte	$02
	.byte	$02
	.byte	$00
	.byte	$04
	.byte	$14
	.byte	$16
	.byte	$14
	.byte	$01
	.byte	$03
	.byte	$03
	.byte	$03
	.byte	$03
	.byte	$01
	.byte	$14
	.byte	$05
	.byte	$14
	.byte	$16
	.byte	$01
	.byte	$14
	.byte	$03
	.byte	$14
	.byte	$03
	.byte	$01
	.byte	$03
	.byte	$03
	.byte	$12
	.byte	$05
	.byte	$01
	.byte	$18
	.byte	$15
	.byte	$06
	.byte	$05
	.byte	$01
	.byte	$03
	.byte	$03
	.byte	$17
	.byte	$03
	.byte	$01
	.byte	$03
	.byte	$03
	.byte	$03
	.byte	$17
	.byte	$01
	.byte	$02
	.byte	$2D
	.byte	$02
	.byte	$02
	.byte	$00
	.byte	$50
	.byte	$52
	.byte	$02
	.byte	$02
	.byte	$00
	.byte	$45
	.byte	$53
	.byte	$02
	.byte	$02
	.byte	$00
	.byte	$53
	.byte	$02
	.byte	$02
	.byte	$02
	.byte	$00
	.byte	$02
	.byte	$53
	.byte	$02
	.byte	$02
	.byte	$00
	.byte	$54
	.byte	$41
	.byte	$02
	.byte	$02
	.byte	$00
	.byte	$52
	.byte	$54
	.byte	$02
	.byte	$02
	.byte	$00
	.byte	$2D
	.byte	$02
	.byte	$02
	.byte	$02
	.byte	$00
	.byte	$03
	.byte	$14
	.byte	$03
	.byte	$13
	.byte	$01
	.byte	$03
	.byte	$03
	.byte	$12
	.byte	$1A
	.byte	$01
	.byte	$14
	.byte	$03
	.byte	$15
	.byte	$03
	.byte	$01
	.byte	$13
	.byte	$12
	.byte	$14
	.byte	$03
	.byte	$01
	.byte	$11
	.byte	$03
	.byte	$03
	.byte	$03
	.byte	$01
	.byte	$03
	.byte	$13
	.byte	$03
	.byte	$14
	.byte	$01
	.byte	$12
	.byte	$18
	.byte	$03
	.byte	$06
	.byte	$01
	.byte	$15
	.byte	$03
	.byte	$05
	.byte	$03
	.byte	$01
	.byte	$06
	.byte	$12
	.byte	$03
	.byte	$03
	.byte	$01
	.byte	$02
	.byte	$02
	.byte	$50
	.byte	$55
	.byte	$00
	.byte	$02
	.byte	$02
	.byte	$5A
	.byte	$5A
	.byte	$00
	.byte	$02
	.byte	$02
	.byte	$4C
	.byte	$45
	.byte	$00
	.byte	$02
	.byte	$02
	.byte	$02
	.byte	$51
	.byte	$00
	.byte	$02
	.byte	$02
	.byte	$55
	.byte	$45
	.byte	$00
	.byte	$02
	.byte	$02
	.byte	$53
	.byte	$54
	.byte	$00
	.byte	$02
	.byte	$02
	.byte	$27
	.byte	$02
	.byte	$00
	.byte	$03
	.byte	$14
	.byte	$03
	.byte	$16
	.byte	$01
	.byte	$03
	.byte	$03
	.byte	$03
	.byte	$03
	.byte	$01
	.byte	$14
	.byte	$03
	.byte	$06
	.byte	$12
	.byte	$01
	.byte	$14
	.byte	$03
	.byte	$16
	.byte	$03
	.byte	$01
	.byte	$03
	.byte	$14
	.byte	$03
	.byte	$14
	.byte	$01
	.byte	$14
	.byte	$03
	.byte	$14
	.byte	$03
	.byte	$01
	.byte	$03
	.byte	$03
	.byte	$06
	.byte	$12
	.byte	$01
	.byte	$03
	.byte	$14
	.byte	$12
	.byte	$15
	.byte	$01
	.byte	$12
	.byte	$19
	.byte	$03
	.byte	$14
	.byte	$01
	.byte	$02
	.byte	$02
	.byte	$46
	.byte	$65
	.byte	$00
	.byte	$02
	.byte	$02
	.byte	$52
	.byte	$61
	.byte	$00
	.byte	$02
	.byte	$02
	.byte	$4C
	.byte	$02
	.byte	$00
	.byte	$02
	.byte	$02
	.byte	$02
	.byte	$02
	.byte	$00
	.byte	$02
	.byte	$02
	.byte	$02
	.byte	$02
	.byte	$00
	.byte	$02
	.byte	$02
	.byte	$02
	.byte	$02
	.byte	$00
	.byte	$02
	.byte	$02
	.byte	$02
	.byte	$02
	.byte	$00
_title_0:
	.byte	$32
	.byte	$31
	.byte	$32
	.byte	$31
	.byte	$32
	.byte	$31
	.byte	$32
	.byte	$31
	.byte	$31
	.byte	$32
	.byte	$32
	.byte	$31
	.byte	$32
	.byte	$32
	.byte	$31
	.byte	$32
	.byte	$05
	.byte	$00
	.byte	$00
	.byte	$09
	.byte	$0A
	.byte	$00
	.byte	$0B
	.byte	$00
	.byte	$00
	.byte	$00
	.byte	$00
	.byte	$04
	.byte	$00
	.byte	$07
	.byte	$08
	.byte	$01
	.byte	$00
	.byte	$00
	.byte	$E9
	.byte	$EA
	.byte	$EB
	.byte	$00
	.byte	$00
	.byte	$07
	.byte	$08
	.byte	$00
	.byte	$00
	.byte	$00
	.byte	$00
	.byte	$00
	.byte	$00
	.byte	$03
	.byte	$05
	.byte	$00
	.byte	$B0
	.byte	$B1
	.byte	$B2
	.byte	$B3
	.byte	$B4
	.byte	$B3
	.byte	$C4
	.byte	$B0
	.byte	$B1
	.byte	$B2
	.byte	$C6
	.byte	$C7
	.byte	$DF
	.byte	$00
	.byte	$00
	.byte	$00
	.byte	$C0
	.byte	$C1
	.byte	$C2
	.byte	$C3
	.byte	$08
	.byte	$C3
	.byte	$E4
	.byte	$E4
	.byte	$03
	.byte	$E5
	.byte	$E5
	.byte	$E4
	.byte	$CC
	.byte	$00
	.byte	$02
	.byte	$00
	.byte	$D0
	.byte	$D1
	.byte	$D2
	.byte	$D3
	.byte	$D4
	.byte	$D3
	.byte	$C5
	.byte	$D5
	.byte	$D6
	.byte	$D7
	.byte	$D8
	.byte	$E8
	.byte	$00
	.byte	$00
	.byte	$00
	.byte	$00
	.byte	$E0
	.byte	$E1
	.byte	$00
	.byte	$E2
	.byte	$B4
	.byte	$E3
	.byte	$E0
	.byte	$E0
	.byte	$16
	.byte	$E3
	.byte	$E6
	.byte	$E7
	.byte	$00
	.byte	$08
	.byte	$08
	.byte	$08
	.byte	$00
	.byte	$00
	.byte	$00
	.byte	$D9
	.byte	$DA
	.byte	$DB
	.byte	$DC
	.byte	$DD
	.byte	$DE
	.byte	$00
	.byte	$06
	.byte	$00
	.byte	$0B
	.byte	$00
	.byte	$00
	.byte	$00
	.byte	$0B
	.byte	$00
	.byte	$00
	.byte	$0A
	.byte	$00
	.byte	$00
	.byte	$00
	.byte	$08
	.byte	$00
	.byte	$00
	.byte	$00
	.byte	$00
	.byte	$00
	.byte	$03
	.byte	$03
	.byte	$00
	.byte	$09
	.byte	$06
	.byte	$00
	.byte	$00
	.byte	$00
	.byte	$05
	.byte	$00
	.byte	$00
	.byte	$05
	.byte	$00
	.byte	$09
	.byte	$0A
	.byte	$00
	.byte	$00
	.byte	$00
	.byte	$00
	.byte	$00
	.byte	$00
	.byte	$C8
	.byte	$C9
	.byte	$CA
	.byte	$CB
	.byte	$CC
	.byte	$CD
	.byte	$CE
	.byte	$CF
	.byte	$00
	.byte	$00
	.byte	$00
	.byte	$07
	.byte	$00
	.byte	$00
	.byte	$00
	.byte	$03
	.byte	$00
	.byte	$00
	.byte	$03
	.byte	$00
	.byte	$00
	.byte	$09
	.byte	$08
	.byte	$0B
	.byte	$00
	.byte	$00
	.byte	$00
	.byte	$00
	.byte	$0A
	.byte	$00
	.byte	$09
	.byte	$B6
	.byte	$B7
	.byte	$B8
	.byte	$B9
	.byte	$BA
	.byte	$BB
	.byte	$BC
	.byte	$BD
	.byte	$BE
	.byte	$BF
	.byte	$00
	.byte	$04
	.byte	$00
	.byte	$00
	.byte	$00
	.byte	$00
	.byte	$00
	.byte	$07
	.byte	$00
	.byte	$00
	.byte	$00
	.byte	$0A
	.byte	$00
	.byte	$00
	.byte	$09
	.byte	$0A
	.byte	$00
	.byte	$00
	.byte	$03
	.byte	$37
	.byte	$37
	.byte	$37
	.byte	$37
	.byte	$37
	.byte	$37
	.byte	$37
	.byte	$37
	.byte	$37
	.byte	$37
	.byte	$37
	.byte	$37
	.byte	$37
	.byte	$37
	.byte	$37
	.byte	$37
L3006:
	.byte	$48,$65,$6C,$70,$20,$50,$65,$72,$72,$79,$20,$66,$69,$6E,$64,$20
	.byte	$61,$20,$6E,$65,$77,$20,$68,$6F,$6D,$65,$21,$00
L1EEB:
	.byte	$41,$20,$48,$4F,$4D,$45,$20,$45,$6E,$74,$65,$72,$74,$61,$69,$6E
	.byte	$6D,$65,$6E,$74,$20,$53,$79,$73,$74,$65,$6D,$00
L2DE3:
	.byte	$43,$6F,$6E,$67,$72,$61,$74,$75,$6C,$61,$74,$69,$6F,$6E,$73,$21
	.byte	$20,$50,$65,$72,$72,$79,$20,$68,$61,$73,$00
L2DED:
	.byte	$66,$6F,$75,$6E,$64,$20,$61,$20,$68,$6F,$6D,$65,$20,$69,$6E,$20
	.byte	$79,$6F,$75,$72,$20,$4E,$45,$53,$00
L1EE9:
	.byte	$48,$61,$76,$65,$20,$79,$6F,$75,$20,$74,$72,$69,$65,$64,$20,$72
	.byte	$65,$73,$65,$74,$69,$6E,$67,$3F,$00
L1EED:
	.byte	$4E,$52,$4F,$4D,$20,$77,$69,$74,$68,$20,$61,$20,$76,$69,$65,$77
	.byte	$00
L1EDB:
	.byte	$46,$75,$6E,$6B,$79,$20,$4F,$6E,$65,$20,$50,$6C,$61,$79,$65,$72
	.byte	$00
L1EE3:
	.byte	$54,$75,$72,$62,$6F,$20,$41,$64,$76,$61,$6E,$74,$61,$67,$65,$00
L1EE5:
	.byte	$54,$72,$61,$63,$6B,$20,$61,$6E,$64,$20,$46,$69,$65,$6C,$64,$00
L1ED9:
	.byte	$54,$77,$6F,$20,$50,$6C,$61,$79,$65,$72,$20,$47,$61,$6D,$65,$00
L1EE1:
	.byte	$42,$75,$74,$74,$6F,$6E,$20,$4D,$61,$73,$68,$65,$72,$00
L1ED7:
	.byte	$54,$68,$61,$74,$27,$73,$20,$61,$20,$77,$72,$61,$70,$00
L1ED3:
	.byte	$45,$61,$73,$79,$20,$50,$65,$61,$73,$79,$00
L1ED5:
	.byte	$41,$2D,$6D,$61,$7A,$65,$2D,$69,$6E,$67,$00
L1EDD:
	.byte	$44,$75,$63,$6B,$20,$48,$75,$6E,$74,$00
L1EDF:
	.byte	$44,$6F,$67,$20,$48,$75,$6E,$74,$00
L1EE7:
	.byte	$55,$55,$4B,$4F,$45,$53,$4E,$58,$00
L2C4F:
	.byte	$4C,$65,$76,$65,$6C,$00

.segment	"BSS"

.segment	"ZEROPAGE"
_last_level1:
	.res	1,$00
_last_level2:
	.res	1,$00
_last_level3:
	.res	1,$00
_last_level4:
	.res	1,$00
_last_level5:
	.res	1,$00
_last_level6:
	.res	1,$00
_last_level7:
	.res	1,$00
_last_level8:
	.res	1,$00
_game_genie_code:
	.res	1,$00
_pad2_zapper:
	.res	1,$00
_zapper_ready:
	.res	1,$00
_hit_detected:
	.res	1,$00
_player_moving:
	.res	1,$00
_powerpad_cur:
	.res	2,$00
_powerpad_old:
	.res	2,$00
_powerpad_new:
	.res	2,$00
_powerpad_old_button:
	.res	2,$00
_amount_to_move:
	.res	1,$00
_nametable_to_use:
	.res	1,$00
_user_input_new:
	.res	1,$00
_pad1:
	.res	1,$00
_pad1_new:
	.res	1,$00
_pad2:
	.res	1,$00
_pad2_new:
	.res	1,$00
_collision:
	.res	1,$00
_collision_L:
	.res	1,$00
_collision_R:
	.res	1,$00
_collision_U:
	.res	1,$00
_collision_D:
	.res	1,$00
_collision2:
	.res	1,$00
_level:
	.res	1,$00
_p_maps:
	.res	2,$00
_coordinates:
	.res	1,$00
_temp1:
	.res	1,$00
_temp2:
	.res	1,$00
_temp3:
	.res	1,$00
_temp4:
	.res	1,$00
_temp_x:
	.res	1,$00
_temp_y:
	.res	1,$00
_game_mode:
	.res	1,$00
_show_text:
	.res	1,$00
_has_moved:
	.res	1,$00
_is_moving:
	.res	1,$00
_player_moved_frames:
	.res	1,$00
_frame_count:
	.res	1,$00
_frame_count2:
	.res	1,$00
_frame_count3:
	.res	1,$00
_frame_count4:
	.res	1,$00
_duck_exists:
	.res	1,$00
_scroll_x:
	.res	2,$00
_a_entering:
	.res	1,$00
_b_entering:
	.res	1,$00
_a_exiting:
	.res	1,$00
_b_exiting:
	.res	1,$00
_a_flag:
	.res	1,$00
_b_flag:
	.res	1,$00
_ending:
	.res	1,$00
_flag_a_pos:
	.res	1,$00
_flag_b_pos:
	.res	1,$00
_flag_a:
	.res	1,$00
_flag_b:
	.res	1,$00
_turbo_a_rate:
	.res	1,$00
_turbo_b_rate:
	.res	1,$00
_last_turbo_a_rate:
	.res	1,$00
_last_turbo_b_rate:
	.res	1,$00
_local_left:
	.res	1,$00
_local_right:
	.res	1,$00
_local_up:
	.res	1,$00
_local_down:
	.res	1,$00
_pointer2:
	.res	2,$00
_player_x:
	.res	2,$00
_player_y:
	.res	2,$00
_fade_on:
	.res	1,$00
_song:
	.res	1,$00
_Generic:
	.res	4,$00
_Generic2:
	.res	4,$00
_address:
	.res	2,$00
_x:
	.res	1,$00
_y:
	.res	1,$00
_index2:
	.res	1,$00
.segment	"BSS"
_c_map:
	.res	240,$00

; ---------------------------------------------------------------
; void __near__ draw_bg (void)
; ---------------------------------------------------------------

.segment	"CODE"

.proc	_draw_bg: near

.segment	"CODE"

;
; ppu_off(); // screen off
;
	jsr     _ppu_off
;
; p_maps = Level_List[level];
;
	ldx     #$00
	lda     _level
	asl     a
	bcc     L3133
	inx
	clc
L3133:	adc     #<(_Level_List)
	sta     ptr1
	txa
	adc     #>(_Level_List)
	sta     ptr1+1
	ldy     #$01
	lda     (ptr1),y
	sta     _p_maps+1
	dey
	lda     (ptr1),y
	sta     _p_maps
;
; memcpy(c_map, p_maps, 240);
;
	lda     #<(_c_map)
	ldx     #>(_c_map)
	jsr     pushax
	lda     _p_maps
	ldx     _p_maps+1
	jsr     pushax
	ldx     #$00
	lda     #$F0
	jsr     _memcpy
;
; clear_vram_buffer();
;
	jsr     _clear_vram_buffer
;
; set_data_pointer(Level_List[level]);
;
	ldx     #$00
	lda     _level
	asl     a
	bcc     L3134
	inx
	clc
L3134:	adc     #<(_Level_List)
	sta     ptr1
	txa
	adc     #>(_Level_List)
	sta     ptr1+1
	ldy     #$01
	lda     (ptr1),y
	tax
	dey
	lda     (ptr1),y
	jsr     _set_data_pointer
;
; set_mt_pointer(perrytiles);
;
	lda     #<(_perrytiles)
	ldx     #>(_perrytiles)
	jsr     _set_mt_pointer
;
; if (level == GIMMICK_SCREEN_SCROLL)
;
	ldx     #$00
	lda     _level
	cmp     #$07
	bne     L3137
;
; nametable_to_use = 1;
;
	lda     #$01
	sta     _nametable_to_use
;
; for (y = 0;; y += 0x20)
;
	txa
L312D:	sta     _y
;
; for (x = 0;; x += 0x20)
;
	lda     #$00
L312C:	sta     _x
;
; address = get_ppu_addr(0, x, y);
;
	jsr     decsp2
	lda     #$00
	ldy     #$01
	sta     (sp),y
	lda     _x
	dey
	sta     (sp),y
	lda     _y
	jsr     _get_ppu_addr
	sta     _address
	stx     _address+1
;
; buffer_4_mt(address, 0); // ppu_address, index to the data
;
	jsr     pushax
	lda     #$00
	jsr     _buffer_4_mt
;
; flush_vram_update2();
;
	jsr     _flush_vram_update2
;
; if (x == 0xe0)
;
	lda     _x
	cmp     #$E0
;
; break;
;
	beq     L3136
;
; for (x = 0;; x += 0x20)
;
	lda     #$20
	clc
	adc     _x
	jmp     L312C
;
; if (y == 0xe0)
;
L3136:	lda     _y
	cmp     #$E0
;
; break;
;
	beq     L3138
;
; for (y = 0;; y += 0x20)
;
	lda     #$20
	clc
	adc     _y
	jmp     L312D
;
; scroll_x = 0;
;
L3137:	txa
	sta     _scroll_x
	sta     _scroll_x+1
;
; set_scroll_x(scroll_x);
;
	jsr     _set_scroll_x
;
; nametable_to_use = 0;
;
	lda     #$00
	sta     _nametable_to_use
;
; for (y = 0;; y += 0x20)
;
L3138:	lda     #$00
L312F:	sta     _y
;
; for (x = 0;; x += 0x20)
;
	lda     #$00
L312E:	sta     _x
;
; address = get_ppu_addr(nametable_to_use, x, y);
;
	jsr     decsp2
	lda     _nametable_to_use
	ldy     #$01
	sta     (sp),y
	lda     _x
	dey
	sta     (sp),y
	lda     _y
	jsr     _get_ppu_addr
	sta     _address
	stx     _address+1
;
; index = (y & 0xf0) + (x >> 4);
;
	lda     _y
	and     #$F0
	sta     ptr1
	lda     _x
	lsr     a
	lsr     a
	lsr     a
	lsr     a
	clc
	adc     ptr1
	sta     _index
;
; buffer_4_mt(address, index); // ppu_address, index to the data
;
	lda     _address
	ldx     _address+1
	jsr     pushax
	lda     _index
	jsr     _buffer_4_mt
;
; flush_vram_update2();
;
	jsr     _flush_vram_update2
;
; if (x == 0xe0)
;
	lda     _x
	cmp     #$E0
;
; break;
;
	beq     L3139
;
; for (x = 0;; x += 0x20)
;
	lda     #$20
	clc
	adc     _x
	jmp     L312E
;
; if (y == 0xe0)
;
L3139:	lda     _y
	cmp     #$E0
;
; break;
;
	beq     L313A
;
; for (y = 0;; y += 0x20)
;
	lda     #$20
	clc
	adc     _y
	jmp     L312F
;
; if(level == GIMMICK_TWO_PLAYER){
;
L313A:	lda     _level
	cmp     #$03
	bne     L2C45
;
; pal_spr(palette_perrypuzzlesprites_b);
;
	lda     #<(_palette_perrypuzzlesprites_b)
	ldx     #>(_palette_perrypuzzlesprites_b)
;
; } else {
;
	jmp     L3130
;
; pal_spr(palette_perrypuzzlesprites_a);
;
L2C45:	lda     #<(_palette_perrypuzzlesprites_a)
	ldx     #>(_palette_perrypuzzlesprites_a)
L3130:	jsr     _pal_spr
;
; if (level <= LAST_LEVEL)
;
	lda     _level
	cmp     #$0E
	jcs     L313B
;
; multi_vram_buffer_horz("Level", 5, NTADR_A(3, 1));
;
	jsr     decsp3
	lda     #<(L2C4F)
	ldy     #$01
	sta     (sp),y
	iny
	lda     #>(L2C4F)
	sta     (sp),y
	lda     #$05
	ldy     #$00
	sta     (sp),y
	ldx     #$20
	lda     #$23
	jsr     _multi_vram_buffer_horz
;
; if (level < 9)
;
	lda     _level
	cmp     #$09
	bcs     L2C58
;
; one_vram_buffer(49 + level, NTADR_A(9, 1));
;
	clc
	adc     #$31
	jsr     pusha
	ldx     #$20
	lda     #$29
;
; else
;
	jmp     L3131
;
; one_vram_buffer(49, NTADR_A(9, 1));      // 1
;
L2C58:	lda     #$31
	jsr     pusha
	ldx     #$20
	lda     #$29
	jsr     _one_vram_buffer
;
; one_vram_buffer(39 + level, NTADR_A(10, 1)); // level-10
;
	lda     _level
	clc
	adc     #$27
	jsr     pusha
	ldx     #$20
	lda     #$2A
L3131:	jsr     _one_vram_buffer
;
; multi_vram_buffer_horz(level_text[level], level_text_length[level], NTADR_A(3, 2));
;
	jsr     decsp3
	ldx     #$00
	lda     _level
	asl     a
	bcc     L3135
	inx
	clc
L3135:	adc     #<(_level_text)
	sta     ptr1
	txa
	adc     #>(_level_text)
	sta     ptr1+1
	ldy     #$01
	lda     (ptr1),y
	tax
	dey
	lda     (ptr1),y
	iny
	sta     (sp),y
	iny
	txa
	sta     (sp),y
	ldy     _level
	lda     _level_text_length,y
	ldy     #$00
	sta     (sp),y
	ldx     #$20
	lda     #$43
	jsr     _multi_vram_buffer_horz
;
; if (level == GIMMICK_RESET || level == GIMMICK_RESET_TWO)
;
L313B:	lda     _level
	cmp     #$0B
	beq     L313C
	cmp     #$0C
	bne     L313D
;
; pal_bg(palette_perrytilesetnintendocolors_a);
;
L313C:	lda     #<(_palette_perrytilesetnintendocolors_a)
	ldx     #>(_palette_perrytilesetnintendocolors_a)
;
; else if (level == PERRY_GET_OUT || level == PERRY_HOUSE)
;
	jmp     L3132
L313D:	lda     _level
	cmp     #$0F
	beq     L313E
	cmp     #$10
	bne     L2C87
;
; pal_bg(palette_perrytilesetcutscenecolors_a);
;
L313E:	lda     #<(_palette_perrytilesetcutscenecolors_a)
	ldx     #>(_palette_perrytilesetcutscenecolors_a)
;
; else
;
	jmp     L3132
;
; pal_bg(palette_perrytileset_a);
;
L2C87:	lda     #<(_palette_perrytileset_a)
	ldx     #>(_palette_perrytileset_a)
L3132:	jsr     _pal_bg
;
; ppu_on_all(); // turn on screen
;
	jmp     _ppu_on_all

.endproc

; ---------------------------------------------------------------
; void __near__ draw_sprites (void)
; ---------------------------------------------------------------

.segment	"CODE"

.proc	_draw_sprites: near

.segment	"CODE"

;
; oam_clear();
;
	jsr     _oam_clear
;
; if (level == GIMMICK_DUCK_HUNT && duck_exists)
;
	lda     _level
	cmp     #$05
	bne     L3141
	lda     _duck_exists
	beq     L3141
;
; oam_meta_spr(112, 136, Duck_data);
;
	jsr     decsp2
	lda     #$70
	ldy     #$01
	sta     (sp),y
	lda     #$88
	dey
	sta     (sp),y
	lda     #<(_Duck_data)
	ldx     #>(_Duck_data)
	jsr     _oam_meta_spr
;
; if (level == GIMMICK_TURBO_FLAGS)
;
L3141:	lda     _level
	cmp     #$08
	bne     L3143
;
; if (a_flag == 0 || b_flag == 0)
;
	lda     _a_flag
	beq     L3142
	lda     _b_flag
	bne     L3143
;
; oam_meta_spr(TURBO_LOCK_X, TURBO_LOCK_Y, lock_data); // show the lock
;
L3142:	jsr     decsp2
	lda     #$70
	ldy     #$01
	sta     (sp),y
	lda     #$71
	dey
	sta     (sp),y
	lda     #<(_lock_data)
	ldx     #>(_lock_data)
	jsr     _oam_meta_spr
;
; if(level == GIMMICK_RESET_TWO){
;
L3143:	lda     _level
	cmp     #$0C
	bne     L3144
;
; oam_meta_spr(48, 160, housemaskingsprite_data);
;
	jsr     decsp2
	lda     #$30
	ldy     #$01
	sta     (sp),y
	lda     #$A0
	dey
	sta     (sp),y
	lda     #<(_housemaskingsprite_data)
	ldx     #>(_housemaskingsprite_data)
	jsr     _oam_meta_spr
;
; if (level == GIMMICK_TURBO_FLAGS)
;
L3144:	lda     _level
	cmp     #$08
	bne     L3145
;
; flag_b_pos = 152 - flag_b;
;
	lda     #$98
	sec
	sbc     _flag_b
	sta     _flag_b_pos
;
; flag_a_pos = 168 - flag_a;
;
	lda     #$A8
	sec
	sbc     _flag_a
	sta     _flag_a_pos
;
; oam_meta_spr(53, flag_b_pos, bifglagred0_data); // flag_a //b button
;
	jsr     decsp2
	lda     #$35
	ldy     #$01
	sta     (sp),y
	lda     _flag_b_pos
	dey
	sta     (sp),y
	lda     #<(_bifglagred0_data)
	ldx     #>(_bifglagred0_data)
	jsr     _oam_meta_spr
;
; oam_meta_spr(197, flag_a_pos, bifglagred0_data); // flag_b //a button
;
	jsr     decsp2
	lda     #$C5
	ldy     #$01
	sta     (sp),y
	lda     _flag_a_pos
	dey
	sta     (sp),y
	lda     #<(_bifglagred0_data)
	ldx     #>(_bifglagred0_data)
	jsr     _oam_meta_spr
;
; oam_meta_spr(51, 106, flagpolelong_data);
;
	jsr     decsp2
	lda     #$33
	ldy     #$01
	sta     (sp),y
	lda     #$6A
	dey
	sta     (sp),y
	lda     #<(_flagpolelong_data)
	ldx     #>(_flagpolelong_data)
	jsr     _oam_meta_spr
;
; oam_meta_spr(195, 120, flagpolelong_data);
;
	jsr     decsp2
	lda     #$C3
	ldy     #$01
	sta     (sp),y
	lda     #$78
	dey
	sta     (sp),y
	lda     #<(_flagpolelong_data)
	ldx     #>(_flagpolelong_data)
	jsr     _oam_meta_spr
;
; if (level == GIMMICK_SCREEN_SCROLL)
;
L3145:	lda     _level
	cmp     #$07
	bne     L2CBF
;
; player_x = 0x0100 + BoxGuy1.X - scroll_x;
;
	lda     _BoxGuy1
	sec
	sbc     _scroll_x
	sta     _player_x
	lda     #$01
	sbc     _scroll_x+1
	sta     _player_x+1
;
; draw_player_sprite();
;
	jmp     _draw_player_sprite
;
; draw_player_sprite();
;
L2CBF:	jmp     _draw_player_sprite

.endproc

; ---------------------------------------------------------------
; void __near__ movement (void)
; ---------------------------------------------------------------

.segment	"CODE"

.proc	_movement: near

.segment	"CODE"

;
; is_moving = 0;
;
	lda     #$00
	sta     _is_moving
;
; has_moved = 0;
;
	sta     _has_moved
;
; if (pad1 & local_left)
;
	lda     _local_left
	and     _pad1
	pha
	pla
	beq     L3148
;
; is_moving = 1;
;
	lda     #$01
	sta     _is_moving
;
; BoxGuy1.direction = LEFT;
;
	lda     #$00
	sta     _BoxGuy1+4
;
; BoxGuy1.X -= 1;
;
	dec     _BoxGuy1
;
; has_moved = 1;
;
	lda     #$01
;
; else if (pad1 & local_right)
;
	jmp     L3146
L3148:	lda     _local_right
	and     _pad1
	pha
	pla
	beq     L2D1F
;
; is_moving = 1;
;
	lda     #$01
	sta     _is_moving
;
; BoxGuy1.direction = RIGHT;
;
	sta     _BoxGuy1+4
;
; BoxGuy1.X += 1;
;
	inc     _BoxGuy1
;
; has_moved = 1;
;
L3146:	sta     _has_moved
;
; bg_collision();
;
L2D1F:	jsr     _bg_collision
;
; if (collision_R)
;
	lda     _collision_R
	beq     L2D2A
;
; BoxGuy1.X -= 1;
;
	dec     _BoxGuy1
;
; if (collision_L)
;
L2D2A:	lda     _collision_L
	beq     L2D2E
;
; BoxGuy1.X += 1;
;
	inc     _BoxGuy1
;
; if (pad1 & local_up && has_moved == 0)
;
L2D2E:	lda     _local_up
	and     _pad1
	pha
	pla
	beq     L314C
	lda     _has_moved
	bne     L314C
;
; BoxGuy1.direction = UP;
;
	lda     #$02
	sta     _BoxGuy1+4
;
; BoxGuy1.Y -= 1;
;
	dec     _BoxGuy1+1
;
; else if (pad1 & local_down && has_moved == 0)
;
	jmp     L3151
L314C:	lda     _local_down
	and     _pad1
	pha
	pla
	beq     L2D3F
	lda     _has_moved
	bne     L2D3F
;
; BoxGuy1.direction = DOWN;
;
	lda     #$03
	sta     _BoxGuy1+4
;
; BoxGuy1.Y += 1;
;
	inc     _BoxGuy1+1
;
; has_moved = 1;
;
L3151:	lda     #$01
	sta     _has_moved
;
; is_moving = 1;
;
	sta     _is_moving
;
; bg_collision();
;
L2D3F:	jsr     _bg_collision
;
; sprite_collision();
;
	jsr     _sprite_collision
;
; if (collision_D)
;
	lda     _collision_D
	beq     L2D4D
;
; BoxGuy1.Y -= 1;
;
	dec     _BoxGuy1+1
;
; if (collision_U)
;
L2D4D:	lda     _collision_U
	beq     L2D51
;
; BoxGuy1.Y += 1;
;
	inc     _BoxGuy1+1
;
; }
;
L2D51:	rts

.endproc

; ---------------------------------------------------------------
; void __near__ bg_collision (void)
; ---------------------------------------------------------------

.segment	"CODE"

.proc	_bg_collision: near

.segment	"CODE"

;
; collision_L = 0;
;
	lda     #$00
	sta     _collision_L
;
; collision_R = 0;
;
	sta     _collision_R
;
; collision_U = 0;
;
	sta     _collision_U
;
; collision_D = 0;
;
	sta     _collision_D
;
; temp_x = BoxGuy1.X; // left side
;
	lda     _BoxGuy1
	sta     _temp_x
;
; temp_y = BoxGuy1.Y; // top side
;
	lda     _BoxGuy1+1
	sta     _temp_y
;
; if (temp_y >= 0xf0)
;
	cmp     #$F0
;
; return;
;
	bcc     L315B
;
; }
;
	rts
;
; coordinates = (temp_x >> 4) + (temp_y & 0xf0); // upper left
;
L315B:	lda     _temp_x
	lsr     a
	lsr     a
	lsr     a
	lsr     a
	sta     ptr1
	lda     _temp_y
	and     #$F0
	clc
	adc     ptr1
	sta     _coordinates
;
; collision2 = c_map[coordinates];
;
	ldy     _coordinates
	lda     _c_map,y
	sta     _collision2
;
; if (metatile_colision_map[collision2])
;
	ldy     _collision2
	lda     _metatile_colision_map,y
	beq     L3154
;
; ++collision_L;
;
	inc     _collision_L
;
; ++collision_U;
;
	inc     _collision_U
;
; if (metatile_colision_map[collision2] == GOAL_FLAG)
;
	ldy     _collision2
	lda     _metatile_colision_map,y
	cmp     #$02
	bne     L3154
;
; init_mode_level_end();
;
	jsr     _init_mode_level_end
;
; temp_x = BoxGuy1.X + BoxGuy1.width; // right side
;
L3154:	lda     _BoxGuy1
	clc
	adc     _BoxGuy1+2
	sta     _temp_x
;
; coordinates = (temp_x >> 4) + (temp_y & 0xf0); // upper right
;
	lsr     a
	lsr     a
	lsr     a
	lsr     a
	sta     ptr1
	lda     _temp_y
	and     #$F0
	clc
	adc     ptr1
	sta     _coordinates
;
; collision2 = c_map[coordinates];
;
	ldy     _coordinates
	lda     _c_map,y
	sta     _collision2
;
; if (metatile_colision_map[collision2])
;
	ldy     _collision2
	lda     _metatile_colision_map,y
	beq     L3155
;
; ++collision_R;
;
	inc     _collision_R
;
; ++collision_U;
;
	inc     _collision_U
;
; if (metatile_colision_map[collision2] == GOAL_FLAG)
;
	ldy     _collision2
	lda     _metatile_colision_map,y
	cmp     #$02
	bne     L3155
;
; init_mode_level_end();
;
	jsr     _init_mode_level_end
;
; temp_y = BoxGuy1.Y + BoxGuy1.height; // bottom side
;
L3155:	lda     _BoxGuy1+1
	clc
	adc     _BoxGuy1+3
	sta     _temp_y
;
; if (temp_y >= 0xf0)
;
	cmp     #$F0
;
; return;
;
	bcs     L2DC7
;
; coordinates = (temp_x >> 4) + (temp_y & 0xf0); // bottom right
;
	lda     _temp_x
	lsr     a
	lsr     a
	lsr     a
	lsr     a
	sta     ptr1
	lda     _temp_y
	and     #$F0
	clc
	adc     ptr1
	sta     _coordinates
;
; collision2 = c_map[coordinates];
;
	ldy     _coordinates
	lda     _c_map,y
	sta     _collision2
;
; if (metatile_colision_map[collision2])
;
	ldy     _collision2
	lda     _metatile_colision_map,y
	beq     L3156
;
; ++collision_R;
;
	inc     _collision_R
;
; ++collision_D;
;
	inc     _collision_D
;
; if (metatile_colision_map[collision2] == GOAL_FLAG)
;
	ldy     _collision2
	lda     _metatile_colision_map,y
	cmp     #$02
	bne     L3156
;
; init_mode_level_end();
;
	jsr     _init_mode_level_end
;
; temp_x = BoxGuy1.X; // left side
;
L3156:	lda     _BoxGuy1
	sta     _temp_x
;
; coordinates = (temp_x >> 4) + (temp_y & 0xf0); // bottom left
;
	lsr     a
	lsr     a
	lsr     a
	lsr     a
	sta     ptr1
	lda     _temp_y
	and     #$F0
	clc
	adc     ptr1
	sta     _coordinates
;
; collision2 = c_map[coordinates];
;
	ldy     _coordinates
	lda     _c_map,y
	sta     _collision2
;
; if (metatile_colision_map[collision2])
;
	ldy     _collision2
	lda     _metatile_colision_map,y
	beq     L2DC7
;
; ++collision_L;
;
	inc     _collision_L
;
; ++collision_D;
;
	inc     _collision_D
;
; if (metatile_colision_map[collision2] == GOAL_FLAG)
;
	ldy     _collision2
	lda     _metatile_colision_map,y
	cmp     #$02
;
; init_mode_level_end();
;
	jeq     _init_mode_level_end
;
; }
;
L2DC7:	rts

.endproc

; ---------------------------------------------------------------
; void __near__ sprite_collision (void)
; ---------------------------------------------------------------

.segment	"CODE"

.proc	_sprite_collision: near

.segment	"CODE"

;
; if (level == GIMMICK_DUCK_HUNT && duck_exists)
;
	lda     _level
	cmp     #$05
	bne     L3161
	lda     _duck_exists
	beq     L3161
;
; if (BoxGuy1.X >= 112 && BoxGuy1.X <= 144 && BoxGuy1.Y >= 128 && BoxGuy1.Y <= 176)
;
	lda     _BoxGuy1
	cmp     #$70
	bcc     L3161
	cmp     #$91
	bcs     L3161
	lda     _BoxGuy1+1
	cmp     #$80
	bcc     L3161
	cmp     #$B1
	bcs     L3161
;
; ++collision_U;
;
	inc     _collision_U
;
; if (level == GIMMICK_TURBO_FLAGS)
;
L3161:	lda     _level
	cmp     #$08
	bne     L2D64
;
; if (a_flag == 0 || b_flag == 0)
;
	lda     _a_flag
	beq     L3162
	lda     _b_flag
	beq     L3162
	rts
;
; BoxGuy1.X >= TURBO_LOCK_X && BoxGuy1.X <= TURBO_LOCK_X + 16 && BoxGuy1.Y >= TURBO_LOCK_Y && BoxGuy1.Y <= TURBO_LOCK_Y + 16)
;
L3162:	lda     _BoxGuy1
	cmp     #$70
	bcc     L3164
	cmp     #$81
	bcs     L3164
	lda     _BoxGuy1+1
	cmp     #$71
	bcc     L3164
	cmp     #$82
	bcc     L3165
L3164:	rts
;
; ++collision_U;
;
L3165:	inc     _collision_U
;
; }
;
L2D64:	rts

.endproc

; ---------------------------------------------------------------
; void __near__ level_up (void)
; ---------------------------------------------------------------

.segment	"CODE"

.proc	_level_up: near

.segment	"CODE"

;
; BoxGuy1.direction = RIGHT;
;
	lda     #$01
	sta     _BoxGuy1+4
;
; ++level;
;
	inc     _level
;
; if (level > LAST_LEVEL)
;
	lda     _level
	cmp     #$0E
	bcc     L2DD3
;
; sfx_play(SFX_VICTORY, 0);
;
	lda     #$03
	jsr     pusha
	lda     #$00
	jsr     _sfx_play
;
; level = BLANK_MAP;
;
	lda     #$11
	sta     _level
;
; fade_on = 0;
;
	lda     #$00
	sta     _fade_on
;
; init_level();
;
	jsr     _init_level
;
; ++level; // use big perry when they prees enter
;
	inc     _level
;
; level = BIG_PERRY;
;
	lda     #$0E
	sta     _level
;
; game_mode = MODE_GAME_OVER;
;
	lda     #$09
	sta     _game_mode
;
; multi_vram_buffer_horz("Congratulations! Perry has", 26, NTADR_A(3, 10));
;
	jsr     decsp3
	lda     #<(L2DE3)
	ldy     #$01
	sta     (sp),y
	iny
	lda     #>(L2DE3)
	sta     (sp),y
	lda     #$1A
	ldy     #$00
	sta     (sp),y
	ldx     #$21
	lda     #$43
	jsr     _multi_vram_buffer_horz
;
; multi_vram_buffer_horz("found a home in your NES", 24, NTADR_A(3, 12));
;
	jsr     decsp3
	lda     #<(L2DED)
	ldy     #$01
	sta     (sp),y
	iny
	lda     #>(L2DED)
	sta     (sp),y
	lda     #$18
	ldy     #$00
	sta     (sp),y
	ldx     #$21
	lda     #$83
	jsr     _multi_vram_buffer_horz
;
; else
;
	jmp     L2DF6
;
; init_level();
;
L2DD3:	jsr     _init_level
;
; if (level == 4)
;
L2DF6:	lda     _level
	cmp     #$04
	bne     L3166
;
; song = MUSIC_EH_TRAIN;
;
	lda     #$01
	sta     _song
;
; music_play(song);
;
	jsr     _music_play
;
; if (level == 9)
;
L3166:	lda     _level
	cmp     #$09
	bne     L2DFE
;
; song = MUSIC_ALWAYS;
;
	lda     #$02
	sta     _song
;
; music_play(song);
;
	jmp     _music_play
;
; }
;
L2DFE:	rts

.endproc

; ---------------------------------------------------------------
; void __near__ init_level (void)
; ---------------------------------------------------------------

.segment	"CODE"

.proc	_init_level: near

.segment	"CODE"

;
; is_moving = 0;
;
	lda     #$00
	sta     _is_moving
;
; BoxGuy1.X = level_player_x[level];
;
	ldy     _level
	lda     _level_player_x,y
	sta     _BoxGuy1
;
; BoxGuy1.Y = level_player_y[level];
;
	ldy     _level
	lda     _level_player_y,y
	sta     _BoxGuy1+1
;
; if (game_genie_code == 0xBB && level == GIMMICK_GAME_GENIE)
;
	lda     _game_genie_code
	cmp     #$BB
	bne     L304D
	lda     _level
	cmp     #$0A
	bne     L304D
;
; BoxGuy1.X += 178;
;
	lda     #$B2
	clc
	adc     _BoxGuy1
	sta     _BoxGuy1
;
; oam_clear();
;
L304D:	jsr     _oam_clear
;
; ppu_off();
;
	jsr     _ppu_off
;
; game_mode = MODE_GAME;
;
	lda     #$02
	sta     _game_mode
;
; draw_bg();
;
	jsr     _draw_bg
;
; set_direction();
;
	jsr     _set_direction
;
; ppu_on_all();
;
	jsr     _ppu_on_all
;
; if (fade_on != 0)
;
	lda     _fade_on
	beq     L305A
;
; pal_fade_to(0, 4);
;
	lda     #$00
	jsr     pusha
	lda     #$04
	jmp     _pal_fade_to
;
; pal_bright(4);
;
L305A:	lda     #$04
	jmp     _pal_bright

.endproc

; ---------------------------------------------------------------
; void __near__ set_direction (void)
; ---------------------------------------------------------------

.segment	"CODE"

.proc	_set_direction: near

.segment	"CODE"

;
; local_up = PAD_UP;
;
	lda     #$08
	sta     _local_up
;
; local_down = PAD_DOWN;
;
	lda     #$04
	sta     _local_down
;
; local_left = PAD_LEFT;
;
	lda     #$02
	sta     _local_left
;
; local_right = PAD_RIGHT;
;
	lda     #$01
	sta     _local_right
;
; if (level == GIMMICK_NINETY_DEGREE) // gimmick level
;
	lda     _level
	cmp     #$04
	bne     L306B
;
; local_up = PAD_LEFT;
;
	lda     #$02
	sta     _local_up
;
; local_down = PAD_RIGHT;
;
	lda     #$01
	sta     _local_down
;
; local_left = PAD_DOWN;
;
	lda     #$04
	sta     _local_left
;
; local_right = PAD_UP;
;
	lda     #$08
	sta     _local_right
;
; }
;
L306B:	rts

.endproc

; ---------------------------------------------------------------
; void __near__ draw_player_sprite (void)
; ---------------------------------------------------------------

.segment	"CODE"

.proc	_draw_player_sprite: near

.segment	"CODE"

;
; ++player_moved_frames;
;
	inc     _player_moved_frames
;
; if (player_moved_frames > 32)
;
	lda     _player_moved_frames
	cmp     #$21
	bcc     L316E
;
; player_moved_frames = 0;
;
	lda     #$00
	sta     _player_moved_frames
;
; switch (BoxGuy1.direction)
;
L316E:	lda     _BoxGuy1+4
;
; }
;
	beq     L307F
	cmp     #$01
	beq     L309C
	cmp     #$02
	jeq     L30B9
	cmp     #$03
	jeq     L30D6
	jmp     L30F2
;
; if (is_moving)
;
L307F:	lda     _is_moving
	beq     L3080
;
; if (player_moved_frames < 8)
;
	lda     _player_moved_frames
	cmp     #$08
	bcs     L316F
;
; pointer2 = perrywalkleft0_data;
;
	lda     #>(_perrywalkleft0_data)
	sta     _pointer2+1
	lda     #<(_perrywalkleft0_data)
;
; else if (player_moved_frames < 16)
;
	jmp     L316A
L316F:	lda     _player_moved_frames
	cmp     #$10
	bcs     L3170
;
; pointer2 = perrywalkleft1_data;
;
	lda     #>(_perrywalkleft1_data)
	sta     _pointer2+1
	lda     #<(_perrywalkleft1_data)
;
; else if (player_moved_frames < 24)
;
	jmp     L316A
L3170:	lda     _player_moved_frames
	cmp     #$18
	bcs     L3171
;
; pointer2 = perrywalkleft2_data;
;
	lda     #>(_perrywalkleft2_data)
	sta     _pointer2+1
	lda     #<(_perrywalkleft2_data)
;
; else if (player_moved_frames < 32)
;
	jmp     L316A
L3171:	lda     _player_moved_frames
	cmp     #$20
	bcs     L3091
;
; pointer2 = perrywalkleft1_data;
;
	lda     #>(_perrywalkleft1_data)
	sta     _pointer2+1
	lda     #<(_perrywalkleft1_data)
;
; else
;
	jmp     L316A
;
; pointer2 = perrywalkleft0_data;
;
L3091:	lda     #>(_perrywalkleft0_data)
	sta     _pointer2+1
	lda     #<(_perrywalkleft0_data)
;
; else
;
	jmp     L316A
;
; pointer2 = perrystandleft_data;
;
L3080:	lda     #>(_perrystandleft_data)
	sta     _pointer2+1
	lda     #<(_perrystandleft_data)
;
; break;
;
	jmp     L316A
;
; if (is_moving)
;
L309C:	lda     _is_moving
	jeq     L30F2
;
; if (player_moved_frames < 8)
;
	lda     _player_moved_frames
	cmp     #$08
	bcs     L3172
;
; pointer2 = perrywalkright0_data;
;
	lda     #>(_perrywalkright0_data)
	sta     _pointer2+1
	lda     #<(_perrywalkright0_data)
;
; else if (player_moved_frames < 16)
;
	jmp     L316A
L3172:	lda     _player_moved_frames
	cmp     #$10
	bcs     L3173
;
; pointer2 = perrywalkright1_data;
;
	lda     #>(_perrywalkright1_data)
	sta     _pointer2+1
	lda     #<(_perrywalkright1_data)
;
; else if (player_moved_frames < 24)
;
	jmp     L316A
L3173:	lda     _player_moved_frames
	cmp     #$18
	bcs     L3174
;
; pointer2 = perrywalkright2_data;
;
	lda     #>(_perrywalkright2_data)
	sta     _pointer2+1
	lda     #<(_perrywalkright2_data)
;
; else if (player_moved_frames < 32)
;
	jmp     L316A
L3174:	lda     _player_moved_frames
	cmp     #$20
	bcs     L30AE
;
; pointer2 = perrywalkright1_data;
;
	lda     #>(_perrywalkright1_data)
	sta     _pointer2+1
	lda     #<(_perrywalkright1_data)
;
; else
;
	jmp     L316A
;
; pointer2 = perrywalkright0_data;
;
L30AE:	lda     #>(_perrywalkright0_data)
	sta     _pointer2+1
	lda     #<(_perrywalkright0_data)
;
; else
;
	jmp     L316A
;
; if (is_moving)
;
L30B9:	lda     _is_moving
	beq     L30BA
;
; if (player_moved_frames < 8)
;
	lda     _player_moved_frames
	cmp     #$08
	bcs     L3175
;
; pointer2 = perrywalkup0_data;
;
	lda     #>(_perrywalkup0_data)
	sta     _pointer2+1
	lda     #<(_perrywalkup0_data)
;
; else if (player_moved_frames < 16)
;
	jmp     L316A
L3175:	lda     _player_moved_frames
	cmp     #$10
	bcs     L3176
;
; pointer2 = perrywalkup1_data;
;
	lda     #>(_perrywalkup1_data)
	sta     _pointer2+1
	lda     #<(_perrywalkup1_data)
;
; else if (player_moved_frames < 24)
;
	jmp     L316A
L3176:	lda     _player_moved_frames
	cmp     #$18
	bcs     L3177
;
; pointer2 = perrywalkup2_data;
;
	lda     #>(_perrywalkup2_data)
	sta     _pointer2+1
	lda     #<(_perrywalkup2_data)
;
; else if (player_moved_frames < 32)
;
	jmp     L316A
L3177:	lda     _player_moved_frames
	cmp     #$20
	bcs     L30CB
;
; pointer2 = perrywalkup1_data;
;
	lda     #>(_perrywalkup1_data)
	sta     _pointer2+1
	lda     #<(_perrywalkup1_data)
;
; else
;
	jmp     L316A
;
; pointer2 = perrywalkup0_data;
;
L30CB:	lda     #>(_perrywalkup0_data)
	sta     _pointer2+1
	lda     #<(_perrywalkup0_data)
;
; else
;
	jmp     L316A
;
; pointer2 = perrywalkup0_data;
;
L30BA:	lda     #>(_perrywalkup0_data)
	sta     _pointer2+1
	lda     #<(_perrywalkup0_data)
;
; break;
;
	jmp     L316A
;
; if (is_moving)
;
L30D6:	lda     _is_moving
	beq     L30D7
;
; if (player_moved_frames < 8)
;
	lda     _player_moved_frames
	cmp     #$08
	bcs     L3178
;
; pointer2 = perrywalkdown0_data;
;
	lda     #>(_perrywalkdown0_data)
	sta     _pointer2+1
	lda     #<(_perrywalkdown0_data)
;
; else if (player_moved_frames < 16)
;
	jmp     L316A
L3178:	lda     _player_moved_frames
	cmp     #$10
	bcs     L3179
;
; pointer2 = perrywalkdown1_data;
;
	lda     #>(_perrywalkdown1_data)
	sta     _pointer2+1
	lda     #<(_perrywalkdown1_data)
;
; else if (player_moved_frames < 24)
;
	jmp     L316A
L3179:	lda     _player_moved_frames
	cmp     #$18
	bcs     L317A
;
; pointer2 = perrywalkdown2_data;
;
	lda     #>(_perrywalkdown2_data)
	sta     _pointer2+1
	lda     #<(_perrywalkdown2_data)
;
; else if (player_moved_frames < 32)
;
	jmp     L316A
L317A:	lda     _player_moved_frames
	cmp     #$20
	bcs     L30E8
;
; pointer2 = perrywalkdown1_data;
;
	lda     #>(_perrywalkdown1_data)
	sta     _pointer2+1
	lda     #<(_perrywalkdown1_data)
;
; else
;
	jmp     L316A
;
; pointer2 = perrywalkdown0_data;
;
L30E8:	lda     #>(_perrywalkdown0_data)
	sta     _pointer2+1
	lda     #<(_perrywalkdown0_data)
;
; else
;
	jmp     L316A
;
; pointer2 = perrywalkdown0_data;
;
L30D7:	lda     #>(_perrywalkdown0_data)
	sta     _pointer2+1
	lda     #<(_perrywalkdown0_data)
;
; break;
;
	jmp     L316A
;
; pointer2 = perrystandright_data;
;
L30F2:	lda     #>(_perrystandright_data)
	sta     _pointer2+1
	lda     #<(_perrystandright_data)
L316A:	sta     _pointer2
;
; if (level == GIMMICK_SCREEN_SCROLL)
;
	lda     _level
	cmp     #$07
	bne     L30F5
;
; if (high_byte(player_x) == 0)
;
	lda     _player_x+1
	bne     L3101
;
; oam_meta_spr(low_byte(player_x) - 1, BoxGuy1.Y - 2, pointer2);
;
	jsr     decsp2
	lda     _player_x
	sec
	sbc     #$01
	ldy     #$01
	sta     (sp),y
	lda     _BoxGuy1+1
	sec
	sbc     #$02
	dey
	sta     (sp),y
	lda     _pointer2
	ldx     _pointer2+1
	jmp     _oam_meta_spr
;
; oam_meta_spr(BoxGuy1.X - 1, BoxGuy1.Y - 2, pointer2);
;
L30F5:	jsr     decsp2
	lda     _BoxGuy1
	sec
	sbc     #$01
	ldy     #$01
	sta     (sp),y
	lda     _BoxGuy1+1
	sec
	sbc     #$02
	dey
	sta     (sp),y
	lda     _pointer2
	ldx     _pointer2+1
	jmp     _oam_meta_spr
;
; }
;
L3101:	rts

.endproc

; ---------------------------------------------------------------
; void __near__ init_mode_title (void)
; ---------------------------------------------------------------

.segment	"CODE"

.proc	_init_mode_title: near

.segment	"CODE"

;
; ppu_off();
;
	jsr     _ppu_off
;
; clear_vram_buffer();
;
	jsr     _clear_vram_buffer
;
; set_data_pointer(title_0);
;
	lda     #<(_title_0)
	ldx     #>(_title_0)
	jsr     _set_data_pointer
;
; set_mt_pointer(titletiles);
;
	lda     #<(_titletiles)
	ldx     #>(_titletiles)
	jsr     _set_mt_pointer
;
; pal_bg(title_bg_palette);
;
	lda     #<(_title_bg_palette)
	ldx     #>(_title_bg_palette)
	jsr     _pal_bg
;
; for (y = 0;; y += 0x20)
;
	lda     #$00
L317F:	sta     _y
;
; for (x = 0;; x += 0x20)
;
	lda     #$00
L317E:	sta     _x
;
; address = get_ppu_addr(0, x, y);
;
	jsr     decsp2
	lda     #$00
	ldy     #$01
	sta     (sp),y
	lda     _x
	dey
	sta     (sp),y
	lda     _y
	jsr     _get_ppu_addr
	sta     _address
	stx     _address+1
;
; index = (y & 0xf0) + (x >> 4);
;
	lda     _y
	and     #$F0
	sta     ptr1
	lda     _x
	lsr     a
	lsr     a
	lsr     a
	lsr     a
	clc
	adc     ptr1
	sta     _index
;
; buffer_4_mt(address, index); // ppu_address, index to the data
;
	lda     _address
	ldx     _address+1
	jsr     pushax
	lda     _index
	jsr     _buffer_4_mt
;
; flush_vram_update2();
;
	jsr     _flush_vram_update2
;
; if (x == 0xe0)
;
	lda     _x
	cmp     #$E0
;
; break;
;
	beq     L3180
;
; for (x = 0;; x += 0x20)
;
	lda     #$20
	clc
	adc     _x
	jmp     L317E
;
; if (y == 0xe0)
;
L3180:	lda     _y
	cmp     #$E0
;
; break;
;
	beq     L2EFE
;
; for (y = 0;; y += 0x20)
;
	lda     #$20
	clc
	adc     _y
	jmp     L317F
;
; ppu_on_all();
;
L2EFE:	jsr     _ppu_on_all
;
; game_mode = MODE_TITLE;
;
	lda     #$00
	sta     _game_mode
;
; frame_count = 0;
;
	sta     _frame_count
;
; frame_count2 = 0;
;
	sta     _frame_count2
;
; BoxGuy1.X = 0;
;
	sta     _BoxGuy1
;
; BoxGuy1.Y = 138;
;
	lda     #$8A
	sta     _BoxGuy1+1
;
; BoxGuy1.direction = RIGHT;
;
	lda     #$01
	sta     _BoxGuy1+4
;
; }
;
	rts

.endproc

; ---------------------------------------------------------------
; void __near__ title_cutscene (void)
; ---------------------------------------------------------------

.segment	"CODE"

.proc	_title_cutscene: near

.segment	"CODE"

;
; oam_clear();
;
	jsr     _oam_clear
;
; oam_meta_spr(48, 72, eyewag0_data);
;
	jsr     decsp2
	lda     #$30
	ldy     #$01
	sta     (sp),y
	lda     #$48
	dey
	sta     (sp),y
	lda     #<(_eyewag0_data)
	ldx     #>(_eyewag0_data)
	jsr     _oam_meta_spr
;
; ++frame_count3;
;
	inc     _frame_count3
;
; ++frame_count4;
;
	inc     _frame_count4
;
; if (frame_count3 <= 10)
;
	lda     _frame_count3
	cmp     #$0B
	bcs     L3183
;
; oam_meta_spr(48, 96, tonguewag1_data);
;
	jsr     decsp2
	lda     #$30
	ldy     #$01
	sta     (sp),y
	lda     #$60
	dey
	sta     (sp),y
	lda     #<(_tonguewag1_data)
	ldx     #>(_tonguewag1_data)
;
; else if (frame_count3 <= 20)
;
	jmp     L3181
L3183:	lda     _frame_count3
	cmp     #$15
	bcs     L3184
;
; oam_meta_spr(48, 96, tonguewag2_data);
;
	jsr     decsp2
	lda     #$30
	ldy     #$01
	sta     (sp),y
	lda     #$60
	dey
	sta     (sp),y
	lda     #<(_tonguewag2_data)
	ldx     #>(_tonguewag2_data)
;
; else if (frame_count3 <= 30)
;
	jmp     L3181
L3184:	lda     _frame_count3
	cmp     #$1F
	bcs     L3185
;
; oam_meta_spr(48, 96, tonguewag1_data);
;
	jsr     decsp2
	lda     #$30
	ldy     #$01
	sta     (sp),y
	lda     #$60
	dey
	sta     (sp),y
	lda     #<(_tonguewag1_data)
	ldx     #>(_tonguewag1_data)
;
; else if (frame_count3 <= 40)
;
	jmp     L3181
L3185:	lda     _frame_count3
	cmp     #$29
;
; else if (frame_count3 <= 50)
;
	bcc     L2F5D
	cmp     #$33
	bcs     L3187
;
; oam_meta_spr(48, 96, tonguewag1_data);
;
	jsr     decsp2
	lda     #$30
	ldy     #$01
	sta     (sp),y
	lda     #$60
	dey
	sta     (sp),y
	lda     #<(_tonguewag1_data)
	ldx     #>(_tonguewag1_data)
;
; else if (frame_count3 <= 60)
;
	jmp     L3181
L3187:	lda     _frame_count3
	cmp     #$3D
	bcs     L3188
;
; oam_meta_spr(48, 96, tonguewag2_data);
;
	jsr     decsp2
	lda     #$30
	ldy     #$01
	sta     (sp),y
	lda     #$60
	dey
	sta     (sp),y
	lda     #<(_tonguewag2_data)
	ldx     #>(_tonguewag2_data)
;
; else if (frame_count3 <= 70)
;
	jmp     L3181
L3188:	lda     _frame_count3
	cmp     #$47
	bcs     L2F5D
;
; oam_meta_spr(48, 96, tonguewag1_data);
;
	jsr     decsp2
	lda     #$30
	ldy     #$01
	sta     (sp),y
	lda     #$60
	dey
	sta     (sp),y
	lda     #<(_tonguewag1_data)
	ldx     #>(_tonguewag1_data)
;
; else
;
	jmp     L3181
;
; oam_meta_spr(48, 96, tonguewag0_data);
;
L2F5D:	jsr     decsp2
	lda     #$30
	ldy     #$01
	sta     (sp),y
	lda     #$60
	dey
	sta     (sp),y
	lda     #<(_tonguewag0_data)
	ldx     #>(_tonguewag0_data)
L3181:	jsr     _oam_meta_spr
;
; if (frame_count4 >= 160 && frame_count4 < 170)
;
	lda     _frame_count4
	cmp     #$A0
	bcc     L318C
	cmp     #$AA
	bcs     L318C
;
; oam_meta_spr(192, 96, tailwag0_data);
;
	jsr     decsp2
	lda     #$C0
	ldy     #$01
	sta     (sp),y
	lda     #$60
	dey
	sta     (sp),y
	lda     #<(_tailwag0_data)
	ldx     #>(_tailwag0_data)
;
; else if (frame_count4 < 180)
;
	jmp     L3182
L318C:	lda     _frame_count4
	cmp     #$B4
;
; else if (frame_count4 < 190)
;
	bcc     L2FA2
	cmp     #$BE
	bcs     L318E
;
; oam_meta_spr(192, 96, tailwag2_data);
;
	jsr     decsp2
	lda     #$C0
	ldy     #$01
	sta     (sp),y
	lda     #$60
	dey
	sta     (sp),y
	lda     #<(_tailwag2_data)
	ldx     #>(_tailwag2_data)
;
; else if (frame_count4 < 200)
;
	jmp     L3182
L318E:	lda     _frame_count4
	cmp     #$C8
;
; else if (frame_count4 < 210)
;
	bcc     L2FA2
	cmp     #$D2
	bcs     L3190
;
; oam_meta_spr(192, 96, tailwag0_data);
;
	jsr     decsp2
	lda     #$C0
	ldy     #$01
	sta     (sp),y
	lda     #$60
	dey
	sta     (sp),y
	lda     #<(_tailwag0_data)
	ldx     #>(_tailwag0_data)
;
; else if (frame_count4 < 220)
;
	jmp     L3182
L3190:	lda     _frame_count4
	cmp     #$DC
;
; else if (frame_count4 < 230)
;
	bcc     L2FA2
	cmp     #$E6
	bcs     L3192
;
; oam_meta_spr(192, 96, tailwag2_data);
;
	jsr     decsp2
	lda     #$C0
	ldy     #$01
	sta     (sp),y
	lda     #$60
	dey
	sta     (sp),y
	lda     #<(_tailwag2_data)
	ldx     #>(_tailwag2_data)
;
; else if (frame_count4 < 240)
;
	jmp     L3182
L3192:	lda     _frame_count4
	cmp     #$F0
;
; else if (frame_count4 < 250)
;
	bcc     L2FA2
	cmp     #$FA
	bcs     L2FA2
;
; oam_meta_spr(192, 96, tailwag0_data);
;
	jsr     decsp2
	lda     #$C0
	ldy     #$01
	sta     (sp),y
	lda     #$60
	dey
	sta     (sp),y
	lda     #<(_tailwag0_data)
	ldx     #>(_tailwag0_data)
;
; else
;
	jmp     L3182
;
; oam_meta_spr(192, 96, tailwag1_data);
;
L2FA2:	jsr     decsp2
	lda     #$C0
	ldy     #$01
	sta     (sp),y
	lda     #$60
	dey
	sta     (sp),y
	lda     #<(_tailwag1_data)
	ldx     #>(_tailwag1_data)
L3182:	jsr     _oam_meta_spr
;
; if (frame_count > 254 && frame_count2 > 1 || BoxGuy1.X > 248)
;
	lda     _frame_count
	cmp     #$FF
	bcc     L3194
	lda     _frame_count2
	cmp     #$02
	bcs     L3195
L3194:	lda     _BoxGuy1
	cmp     #$F9
	bcc     L3196
;
; return;
;
L3195:	rts
;
; ++frame_count;
;
L3196:	inc     _frame_count
;
; if (frame_count > 200)
;
	lda     _frame_count
	cmp     #$C9
	bcc     L3197
;
; ++frame_count2;
;
	inc     _frame_count2
;
; frame_count = 0;
;
	lda     #$00
	sta     _frame_count
;
; if (frame_count2 < 1)
;
L3197:	lda     _frame_count2
;
; return;
;
	beq     L2F2B
;
; if (frame_count < 60)
;
	lda     _frame_count
	cmp     #$3C
	bcs     L3198
;
; is_moving = 1;
;
	lda     #$01
	sta     _is_moving
;
; BoxGuy1.X += 1;
;
	inc     _BoxGuy1
;
; else if (frame_count < 80)
;
	jmp     _draw_player_sprite
L3198:	lda     _frame_count
	cmp     #$50
	bcs     L3199
;
; BoxGuy1.direction = LEFT;
;
	lda     #$00
	sta     _BoxGuy1+4
;
; is_moving = 0;
;
	sta     _is_moving
;
; else if (frame_count < 100)
;
	jmp     _draw_player_sprite
L3199:	lda     _frame_count
	cmp     #$64
	bcs     L319A
;
; BoxGuy1.direction = RIGHT;
;
	lda     #$01
	sta     _BoxGuy1+4
;
; else if (frame_count < 110)
;
	jmp     _draw_player_sprite
L319A:	lda     _frame_count
	cmp     #$6E
	bcs     L319B
;
; BoxGuy1.direction = LEFT;
;
	lda     #$00
	sta     _BoxGuy1+4
;
; is_moving = 0;
;
	sta     _is_moving
;
; else if (frame_count < 120)
;
	jmp     _draw_player_sprite
L319B:	lda     _frame_count
	cmp     #$78
	bcs     L319C
;
; BoxGuy1.direction = RIGHT;
;
	lda     #$01
	sta     _BoxGuy1+4
;
; else if (frame_count < 254 && BoxGuy1.X < 248)
;
	jmp     _draw_player_sprite
L319C:	lda     _frame_count
	cmp     #$FE
	bcs     L2FD9
	lda     _BoxGuy1
	cmp     #$F8
	jcs     _draw_player_sprite
;
; BoxGuy1.X += 2;
;
	lda     #$02
	clc
	adc     _BoxGuy1
	sta     _BoxGuy1
;
; draw_player_sprite();
;
L2FD9:	jmp     _draw_player_sprite
;
; }
;
L2F2B:	rts

.endproc

; ---------------------------------------------------------------
; void __near__ init_mode_level_end (void)
; ---------------------------------------------------------------

.segment	"CODE"

.proc	_init_mode_level_end: near

.segment	"CODE"

;
; game_mode = MODE_LEVEL_END;
;
	lda     #$07
	sta     _game_mode
;
; }
;
	rts

.endproc

; ---------------------------------------------------------------
; void __near__ draw_shootable_box (void)
; ---------------------------------------------------------------

.segment	"CODE"

.proc	_draw_shootable_box: near

.segment	"CODE"

;
; if (level == GIMMICK_DUCK_HUNT && duck_exists)
;
	lda     _level
	cmp     #$05
	bne     L31B1
	lda     _duck_exists
	beq     L31B1
;
; oam_meta_spr(112, 136, White_duck_data);
;
	jsr     decsp2
	lda     #$70
	ldy     #$01
	sta     (sp),y
	lda     #$88
	dey
	sta     (sp),y
	lda     #<(_White_duck_data)
	ldx     #>(_White_duck_data)
	jsr     _oam_meta_spr
;
; if (level == GIMMICK_GUMSHOE)
;
L31B1:	lda     _level
	cmp     #$06
	bne     L2BE5
;
; oam_meta_spr(BoxGuy1.X - 5, BoxGuy1.Y - 6, White_perry_data);
;
	jsr     decsp2
	lda     _BoxGuy1
	sec
	sbc     #$05
	ldy     #$01
	sta     (sp),y
	lda     _BoxGuy1+1
	sec
	sbc     #$06
	dey
	sta     (sp),y
	lda     #<(_White_perry_data)
	ldx     #>(_White_perry_data)
	jmp     _oam_meta_spr
;
; }
;
L2BE5:	rts

.endproc

; ---------------------------------------------------------------
; void __near__ process_powerpad (void)
; ---------------------------------------------------------------

.segment	"CODE"

.proc	_process_powerpad: near

.segment	"CODE"

;
; powerpad_new = (powerpad_cur ^ powerpad_old) & powerpad_cur;
;
	lda     _powerpad_old
	eor     _powerpad_cur
	sta     ptr1
	lda     _powerpad_old+1
	eor     _powerpad_cur+1
	sta     ptr1+1
	lda     _powerpad_cur
	and     ptr1
	sta     _powerpad_new
	lda     _powerpad_cur+1
	and     ptr1+1
	sta     _powerpad_new+1
;
; powerpad_old = powerpad_cur;
;
	lda     _powerpad_cur+1
	sta     _powerpad_old+1
	lda     _powerpad_cur
	sta     _powerpad_old
;
; }
;
	rts

.endproc

; ---------------------------------------------------------------
; void __near__ movement_user_direction (void)
; ---------------------------------------------------------------

.segment	"CODE"

.proc	_movement_user_direction: near

.segment	"CODE"

;
; if (pad1_new & local_left)
;
	lda     _local_left
	and     _pad1_new
	pha
	pla
	beq     L31B3
;
; BoxGuy1.direction = LEFT;
;
	lda     #$00
;
; else if (pad1_new & local_right)
;
	jmp     L31B2
L31B3:	lda     _local_right
	and     _pad1_new
	pha
	pla
	beq     L31B4
;
; BoxGuy1.direction = RIGHT;
;
	lda     #$01
;
; else if (pad1_new & local_up)
;
	jmp     L31B2
L31B4:	lda     _local_up
	and     _pad1_new
	pha
	pla
	beq     L31B5
;
; BoxGuy1.direction = UP;
;
	lda     #$02
;
; else if (pad1_new & local_down)
;
	jmp     L31B2
L31B5:	lda     _local_down
	and     _pad1_new
	pha
	pla
	beq     L2CD6
;
; BoxGuy1.direction = DOWN;
;
	lda     #$03
L31B2:	sta     _BoxGuy1+4
;
; }
;
L2CD6:	rts

.endproc

; ---------------------------------------------------------------
; void __near__ movement_user_forward (void)
; ---------------------------------------------------------------

.segment	"CODE"

.proc	_movement_user_forward: near

.segment	"CODE"

;
; if (BoxGuy1.direction == LEFT)
;
	lda     _BoxGuy1+4
	bne     L31B7
;
; BoxGuy1.X -= amount_to_move;
;
	lda     _amount_to_move
	eor     #$FF
	sec
	adc     _BoxGuy1
	sta     _BoxGuy1
;
; else if (BoxGuy1.direction == RIGHT)
;
	jmp     L2CEA
L31B7:	lda     _BoxGuy1+4
	cmp     #$01
	bne     L31B8
;
; BoxGuy1.X += amount_to_move;
;
	lda     _amount_to_move
	clc
	adc     _BoxGuy1
	sta     _BoxGuy1
;
; else if (BoxGuy1.direction == UP)
;
	jmp     L2CEA
L31B8:	lda     _BoxGuy1+4
	cmp     #$02
	bne     L31B9
;
; BoxGuy1.Y -= amount_to_move;
;
	lda     _amount_to_move
	eor     #$FF
	sec
;
; else if (BoxGuy1.direction == DOWN)
;
	jmp     L31BA
L31B9:	lda     _BoxGuy1+4
	cmp     #$03
	bne     L2CEA
;
; BoxGuy1.Y += amount_to_move;
;
	lda     _amount_to_move
	clc
L31BA:	adc     _BoxGuy1+1
	sta     _BoxGuy1+1
;
; bg_collision();
;
L2CEA:	jsr     _bg_collision
;
; if (collision_R)
;
	lda     _collision_R
	beq     L2CEF
;
; BoxGuy1.X -= amount_to_move;
;
	lda     _amount_to_move
	eor     #$FF
	sec
	adc     _BoxGuy1
	sta     _BoxGuy1
;
; player_moving = 0;
;
	lda     #$00
	sta     _player_moving
;
; is_moving = 0;
;
	sta     _is_moving
;
; if (collision_L)
;
L2CEF:	lda     _collision_L
	beq     L2CF7
;
; BoxGuy1.X += amount_to_move;
;
	lda     _amount_to_move
	clc
	adc     _BoxGuy1
	sta     _BoxGuy1
;
; player_moving = 0;
;
	lda     #$00
	sta     _player_moving
;
; is_moving = 0;
;
	sta     _is_moving
;
; if (collision_D)
;
L2CF7:	lda     _collision_D
	beq     L2CFF
;
; BoxGuy1.Y -= amount_to_move;
;
	lda     _amount_to_move
	eor     #$FF
	sec
	adc     _BoxGuy1+1
	sta     _BoxGuy1+1
;
; player_moving = 0;
;
	lda     #$00
	sta     _player_moving
;
; is_moving = 0;
;
	sta     _is_moving
;
; if (collision_U)
;
L2CFF:	lda     _collision_U
	beq     L2D07
;
; BoxGuy1.Y += amount_to_move;
;
	lda     _amount_to_move
	clc
	adc     _BoxGuy1+1
	sta     _BoxGuy1+1
;
; player_moving = 0;
;
	lda     #$00
	sta     _player_moving
;
; is_moving = 0;
;
	sta     _is_moving
;
; }
;
L2D07:	rts

.endproc

; ---------------------------------------------------------------
; void __near__ init_mode_game (void)
; ---------------------------------------------------------------

.segment	"CODE"

.proc	_init_mode_game: near

.segment	"CODE"

;
; duck_exists = 1;
;
	lda     #$01
	sta     _duck_exists
;
; scroll_x = 0;
;
	lda     #$00
	sta     _scroll_x
	sta     _scroll_x+1
;
; level = 0; // debug this value for starting level
;
	sta     _level
;
; pal_bg(palette_perrytileset_a);
;
	lda     #<(_palette_perrytileset_a)
	ldx     #>(_palette_perrytileset_a)
	jsr     _pal_bg
;
; init_level();
;
	jsr     _init_level
;
; song = MUSIC_VERNAL_TRIANGLE;
;
	lda     #$00
	sta     _song
;
; music_play(song);
;
	jsr     _music_play
;
; game_mode = MODE_GAME;
;
	lda     #$02
	sta     _game_mode
;
; }
;
	rts

.endproc

; ---------------------------------------------------------------
; void __near__ init_mode_introcutscene (void)
; ---------------------------------------------------------------

.segment	"CODE"

.proc	_init_mode_introcutscene: near

.segment	"CODE"

;
; frame_count = 0;
;
	lda     #$00
	sta     _frame_count
;
; level = PERRY_HOUSE;
;
	lda     #$10
	sta     _level
;
; pal_bg(palette_perrytilesetcutscenecolors_a);
;
	lda     #<(_palette_perrytilesetcutscenecolors_a)
	ldx     #>(_palette_perrytilesetcutscenecolors_a)
	jsr     _pal_bg
;
; init_level();
;
	jsr     _init_level
;
; game_mode = MODE_INTRO_CUTSCENE;
;
	lda     #$01
	sta     _game_mode
;
; } 
;
	rts

.endproc

; ---------------------------------------------------------------
; void __near__ intro_cutscene_one (void)
; ---------------------------------------------------------------

.segment	"CODE"

.proc	_intro_cutscene_one: near

.segment	"CODE"

;
; oam_clear();
;
	jsr     _oam_clear
;
; ++frame_count;
;
	inc     _frame_count
;
; if (frame_count == 40)
;
	lda     _frame_count
	cmp     #$28
	bne     L31BB
;
; sfx_play(SFX_FALL, 0);
;
	lda     #$06
	jsr     pusha
	lda     #$00
	jsr     _sfx_play
;
; if (frame_count == 90)
;
L31BB:	lda     _frame_count
	cmp     #$5A
	bne     L31BC
;
; sfx_play(SFX_CRASH, 0);
;
	lda     #$08
	jsr     pusha
	lda     #$00
	jsr     _sfx_play
;
; if (frame_count > 130)
;
L31BC:	lda     _frame_count
	cmp     #$83
	bcc     L2FED
;
; level = PERRY_GET_OUT;
;
	lda     #$0F
	sta     _level
;
; fade_on = 0;
;
	lda     #$00
	sta     _fade_on
;
; init_level();
;
	jsr     _init_level
;
; fade_on = 1;
;
	lda     #$01
	sta     _fade_on
;
; frame_count = 0;
;
	lda     #$00
	sta     _frame_count
;
; frame_count2 = 0;
;
	sta     _frame_count2
;
; game_mode = MODE_INTRO_CUTSCENE;
;
	lda     #$01
	sta     _game_mode
;
; }
;
L2FED:	rts

.endproc

; ---------------------------------------------------------------
; void __near__ intro_cutscene_two (void)
; ---------------------------------------------------------------

.segment	"CODE"

.proc	_intro_cutscene_two: near

.segment	"CODE"

;
; oam_clear();
;
	jsr     _oam_clear
;
; if (frame_count > 254)
;
	lda     _frame_count
	cmp     #$FF
	bcc     L31BE
;
; ++frame_count2;
;
	inc     _frame_count2
;
; else
;
	jmp     L31BF
;
; ++frame_count;
;
L31BE:	inc     _frame_count
;
; if (frame_count2 == 230)
;
L31BF:	lda     _frame_count2
	cmp     #$E6
	bne     L31C0
;
; multi_vram_buffer_horz("Help Perry find a new home!", 27, NTADR_A(2, 3));
;
	jsr     decsp3
	lda     #<(L3006)
	ldy     #$01
	sta     (sp),y
	iny
	lda     #>(L3006)
	sta     (sp),y
	lda     #$1B
	ldy     #$00
	sta     (sp),y
	ldx     #$20
	lda     #$62
	jsr     _multi_vram_buffer_horz
;
; if (frame_count2 > 250)
;
L31C0:	lda     _frame_count2
	cmp     #$FB
;
; return;
;
	bcs     L3039
;
; if (frame_count == 10)
;
	lda     _frame_count
	cmp     #$0A
	bne     L31C1
;
; sfx_play(SFX_PERRY, 0);
;
	lda     #$07
	jsr     pusha
	lda     #$00
	jsr     _sfx_play
;
; if (frame_count == 50)
;
L31C1:	lda     _frame_count
	cmp     #$32
	bne     L31C2
;
; sfx_play(SFX_GETOUT, 0);
;
	lda     #$0B
	jsr     pusha
	lda     #$00
	jsr     _sfx_play
;
; if (frame_count2 > 1)
;
L31C2:	lda     _frame_count2
	cmp     #$02
	bcc     L3039
;
; if (frame_count2 < 30)
;
	cmp     #$1E
	bcs     L31C4
;
; if (frame_count2 % 2 == 0)
;
	and     #$01
	bne     L31C3
;
; is_moving = 1;
;
	lda     #$01
	sta     _is_moving
;
; BoxGuy1.X += 1;
;
	inc     _BoxGuy1
;
; else
;
	jmp     L31BD
;
; is_moving = 0;
;
L31C3:	lda     #$00
	sta     _is_moving
;
; BoxGuy1.direction = RIGHT;
;
	lda     #$01
L31BD:	sta     _BoxGuy1+4
;
; draw_player_sprite();
;
	jmp     _draw_player_sprite
;
; else if (frame_count2 < 130)
;
L31C4:	lda     _frame_count2
	cmp     #$82
	bcs     L31C5
;
; is_moving = 1;
;
	lda     #$01
	sta     _is_moving
;
; BoxGuy1.X += 1;
;
	inc     _BoxGuy1
;
; BoxGuy1.direction = RIGHT;
;
	sta     _BoxGuy1+4
;
; draw_player_sprite();
;
	jmp     _draw_player_sprite
;
; if (BoxGuy1.Y < 248)
;
L31C5:	lda     _BoxGuy1+1
	cmp     #$F8
	bcs     L3039
;
; is_moving = 1;
;
	lda     #$01
	sta     _is_moving
;
; BoxGuy1.Y += 1;
;
	inc     _BoxGuy1+1
;
; BoxGuy1.direction = DOWN;
;
	lda     #$03
	sta     _BoxGuy1+4
;
; draw_player_sprite();
;
	jmp     _draw_player_sprite
;
; }
;
L3039:	rts

.endproc

; ---------------------------------------------------------------
; void __near__ main (void)
; ---------------------------------------------------------------

.segment	"CODE"

.proc	_main: near

.segment	"CODE"

;
; ppu_off(); // screen off
;
	jsr     _ppu_off
;
; pal_bg(palette_perrytileset_a);
;
	lda     #<(_palette_perrytileset_a)
	ldx     #>(_palette_perrytileset_a)
	jsr     _pal_bg
;
; pal_spr(palette_perrypuzzlesprites_a);
;
	lda     #<(_palette_perrypuzzlesprites_a)
	ldx     #>(_palette_perrypuzzlesprites_a)
	jsr     _pal_spr
;
; bank_spr(1);
;
	lda     #$01
	jsr     _bank_spr
;
; set_scroll_y(0xff); // shift the bg down 1 pixel
;
	ldx     #$00
	lda     #$FF
	jsr     _set_scroll_y
;
; set_vram_buffer();
;
	jsr     _set_vram_buffer
;
; game_genie_code = 0xAF; // 0xA9 0xAF is the code we're looking for
;
	lda     #$AF
	sta     _game_genie_code
;
; ppu_wait_nmi();
;
	jsr     _ppu_wait_nmi
;
; last_level1 == 0xFE || last_level2 == 0xFE || last_level3 == 0xFE || last_level4 == 0xFE || last_level5 == 0xFE || last_level6 == 0xFE || last_level7 == 0xFE || last_level8 == 0xFE)
;
	lda     _last_level1
	cmp     #$FE
	beq     L31CE
	lda     _last_level2
	cmp     #$FE
	beq     L31CE
	lda     _last_level3
	cmp     #$FE
	beq     L31CE
	lda     _last_level4
	cmp     #$FE
	beq     L31CE
	lda     _last_level5
	cmp     #$FE
	beq     L31CE
	lda     _last_level6
	cmp     #$FE
	beq     L31CE
	lda     _last_level7
	cmp     #$FE
	beq     L31CE
	lda     _last_level8
	cmp     #$FE
	bne     L31CF
;
; level = GIMMICK_RESET_TWO;
;
L31CE:	lda     #$0C
	sta     _level
;
; pal_bg(palette_perrytileset_a);
;
	lda     #<(_palette_perrytileset_a)
	ldx     #>(_palette_perrytileset_a)
	jsr     _pal_bg
;
; init_level();
;
	jsr     _init_level
;
; song = MUSIC_ALWAYS;
;
	lda     #$02
	sta     _song
;
; music_play(song);
;
	jsr     _music_play
;
; game_mode = MODE_GAME;
;
	lda     #$02
;
; else if (game_genie_code == 0xBB)
;
	jmp     L31C6
L31CF:	lda     _game_genie_code
	cmp     #$BB
	bne     L29F2
;
; duck_exists = 1;
;
	lda     #$01
	sta     _duck_exists
;
; scroll_x = 0;
;
	lda     #$00
	sta     _scroll_x
	sta     _scroll_x+1
;
; level = GIMMICK_GAME_GENIE;
;
	lda     #$0A
	sta     _level
;
; pal_bg(palette_perrytileset_a);
;
	lda     #<(_palette_perrytileset_a)
	ldx     #>(_palette_perrytileset_a)
	jsr     _pal_bg
;
; init_level();
;
	jsr     _init_level
;
; song = MUSIC_ALWAYS;
;
	lda     #$02
	sta     _song
;
; music_play(song);
;
	jsr     _music_play
;
; game_mode = MODE_GAME;
;
	lda     #$02
;
; else
;
	jmp     L31C6
;
; ppu_wait_nmi();
;
L29F2:	jsr     _ppu_wait_nmi
;
; init_mode_title();
;
	jsr     _init_mode_title
;
; song = MUSIC_EH_TRAIN;
;
	lda     #$01
	sta     _song
;
; music_play(song);
;
	jsr     _music_play
;
; fade_on = 1;
;
	lda     #$01
	sta     _fade_on
;
; ending = 0;
;
	lda     #$00
	sta     _ending
;
; last_level1 = 0;
;
	sta     _last_level1
;
; last_level2 = 0;
;
	sta     _last_level2
;
; last_level3 = 0;
;
	sta     _last_level3
;
; last_level4 = 0;
;
	sta     _last_level4
;
; last_level5 = 0;
;
	sta     _last_level5
;
; last_level6 = 0;
;
	sta     _last_level6
;
; last_level7 = 0;
;
	sta     _last_level7
;
; last_level8 = 0;
;
	sta     _last_level8
;
; if (song != 0xFF)
;
L31D0:	lda     _song
	cmp     #$FF
	beq     L31D3
;
; if (song == MUSIC_EH_TRAIN)
;
	cmp     #$01
	bne     L31D1
;
; set_music_speed(8);
;
	lda     #$08
;
; else if (song == MUSIC_ALWAYS)
;
	jmp     L31C7
L31D1:	lda     _song
	cmp     #$02
	bne     L31D2
;
; set_music_speed(11);
;
	lda     #$0B
;
; else if (song == MUSIC_VERNAL_TRIANGLE)
;
	jmp     L31C7
L31D2:	lda     _song
	bne     L31D3
;
; set_music_speed(6);
;
	lda     #$06
L31C7:	jsr     _set_music_speed
;
; if (game_mode == MODE_TITLE)
;
L31D3:	lda     _game_mode
	bne     L31D4
;
; ppu_wait_nmi();
;
	jsr     _ppu_wait_nmi
;
; pad1 = pad_poll(0);
;
	lda     #$00
	jsr     _pad_poll
	sta     _pad1
;
; pad1_new = get_pad_new(0);
;
	lda     #$00
	jsr     _get_pad_new
	sta     _pad1_new
;
; title_cutscene();
;
	jsr     _title_cutscene
;
; if (pad1_new & PAD_START)
;
	lda     _pad1_new
	and     #$10
	beq     L31D0
;
; music_stop();
;
	jsr     _music_stop
;
; song = 0xFF;
;
	lda     #$FF
	sta     _song
;
; init_mode_introcutscene();
;
	jsr     _init_mode_introcutscene
;
; else if (game_mode == MODE_INTRO_CUTSCENE)
;
	jmp     L31D0
L31D4:	lda     _game_mode
	cmp     #$01
	bne     L31D5
;
; ppu_wait_nmi();
;
	jsr     _ppu_wait_nmi
;
; pad1 = pad_poll(0);
;
	lda     #$00
	jsr     _pad_poll
	sta     _pad1
;
; pad1_new = get_pad_new(0);
;
	lda     #$00
	jsr     _get_pad_new
	sta     _pad1_new
;
; if (level == PERRY_HOUSE)
;
	lda     _level
	cmp     #$10
	bne     L2A4C
;
; intro_cutscene_one();
;
	jsr     _intro_cutscene_one
;
; else
;
	jmp     L2A4F
;
; intro_cutscene_two();
;
L2A4C:	jsr     _intro_cutscene_two
;
; if (pad1_new & PAD_START)
;
L2A4F:	lda     _pad1_new
	and     #$10
	jeq     L31D0
;
; init_mode_game();
;
	jsr     _init_mode_game
;
; else if (game_mode == MODE_GAME_OVER)
;
	jmp     L31D0
L31D5:	lda     _game_mode
	cmp     #$09
	bne     L31D9
;
; ppu_wait_nmi();
;
	jsr     _ppu_wait_nmi
;
; pad1 = pad_poll(0);
;
	lda     #$00
	jsr     _pad_poll
	sta     _pad1
;
; pad1_new = get_pad_new(0);
;
	lda     #$00
	jsr     _get_pad_new
	sta     _pad1_new
;
; if (pad1_new & PAD_START && ending == 0)
;
	and     #$10
	jeq     L31D0
	lda     _ending
	jne     L31D0
;
; last_level1 = 0;
;
	sta     _last_level1
;
; last_level2 = 0;
;
	sta     _last_level2
;
; last_level3 = 0;
;
	sta     _last_level3
;
; last_level4 = 0;
;
	sta     _last_level4
;
; last_level5 = 0;
;
	sta     _last_level5
;
; last_level6 = 0;
;
	sta     _last_level6
;
; last_level7 = 0;
;
	sta     _last_level7
;
; last_level8 = 0;
;
	sta     _last_level8
;
; song = MUSIC_FINALE;
;
	lda     #$03
	sta     _song
;
; music_play(song);
;
	jsr     _music_play
;
; ending = 1;
;
	lda     #$01
	sta     _ending
;
; init_level();
;
	jsr     _init_level
;
; game_mode = MODE_GAME_OVER;
;
	lda     #$09
	sta     _game_mode
;
; else if (game_mode == MODE_LEVEL_SELECT)
;
	jmp     L31D0
L31D9:	lda     _game_mode
	cmp     #$08
	bne     L31DA
;
; ppu_wait_nmi();
;
	jsr     _ppu_wait_nmi
;
; pad1 = pad_poll(0);
;
	lda     #$00
	jsr     _pad_poll
	sta     _pad1
;
; pad1_new = get_pad_new(0);
;
	lda     #$00
	jsr     _get_pad_new
	sta     _pad1_new
;
; if (pad1_new & PAD_START)
;
	and     #$10
	jeq     L31D0
;
; game_mode = MODE_GAME;
;
	lda     #$02
	sta     _game_mode
;
; else if (game_mode == MODE_GAME)
;
	jmp     L31D0
L31DA:	lda     _game_mode
	cmp     #$02
	jne     L31FD
;
; ppu_wait_nmi();
;
	jsr     _ppu_wait_nmi
;
; if (level == GIMMICK_RESET)
;
	lda     _level
	cmp     #$0B
	bne     L31DB
;
; last_level1 = 0xFE;
;
	lda     #$FE
	sta     _last_level1
;
; last_level2 = 0xFE;
;
	sta     _last_level2
;
; last_level3 = 0xFE;
;
	sta     _last_level3
;
; last_level4 = 0xFE;
;
	sta     _last_level4
;
; last_level5 = 0xFE;
;
	sta     _last_level5
;
; last_level6 = 0xFE;
;
	sta     _last_level6
;
; last_level7 = 0xFE;
;
	sta     _last_level7
;
; last_level8 = 0xFE;
;
	sta     _last_level8
;
; if (level == GIMMICK_TWO_PLAYER)
;
L31DB:	lda     _level
	cmp     #$03
	bne     L31DC
;
; pad1 = pad_poll(1);     // read the first controller
;
	lda     #$01
	jsr     _pad_poll
	sta     _pad1
;
; pad1_new = get_pad_new(1); // newly pressed button. do pad_poll first
;
	lda     #$01
;
; else if (level == GIMMICK_TRACK_AND_FIELD)
;
	jmp     L3200
L31DC:	lda     _level
	cmp     #$09
	jne     L2AA8
;
; powerpad_cur = read_powerpad(0);
;
	lda     #$00
	jsr     _read_powerpad
	sta     _powerpad_cur
	stx     _powerpad_cur+1
;
; process_powerpad(); // goes after the read
;
	jsr     _process_powerpad
;
; if (powerpad_new & POWERPAD_2)
;
	lda     _powerpad_new+1
	and     #$40
	beq     L2AAE
;
; pad1_new = PAD_UP;
;
	lda     #$08
;
; else if (powerpad_new & POWERPAD_3)
;
	jmp     L31C9
L2AAE:	lda     _powerpad_new+1
	and     #$20
	beq     L2AB3
;
; pad1_new = PAD_UP;
;
	lda     #$08
;
; else if (powerpad_new & POWERPAD_5)
;
	jmp     L31C9
L2AB3:	lda     _powerpad_new+1
	and     #$04
	beq     L2AB8
;
; pad1_new = PAD_RIGHT;
;
	lda     #$01
;
; else if (powerpad_new & POWERPAD_8)
;
	jmp     L31C9
L2AB8:	lda     _powerpad_new+1
	and     #$02
	beq     L2ABD
;
; pad1_new = PAD_LEFT;
;
	lda     #$02
;
; else if (powerpad_new & POWERPAD_10)
;
	jmp     L31C9
L2ABD:	lda     _powerpad_new
	and     #$10
;
; else if (powerpad_new & POWERPAD_11)
;
	bne     L3201
	lda     _powerpad_new
	and     #$04
	beq     L2AC7
;
; pad1_new = PAD_DOWN;
;
L3201:	lda     #$04
L31C9:	sta     _pad1_new
;
; movement_user_direction();
;
L2AC7:	jsr     _movement_user_direction
;
; if (powerpad_new & POWERPAD_6)
;
	lda     _powerpad_new
	ldx     #$00
	and     #$40
	beq     L2ACC
;
; if (powerpad_old_button == POWERPAD_7)
;
	lda     _powerpad_old_button+1
	bne     L31DD
	lda     _powerpad_old_button
	cmp     #$01
	bne     L31DD
;
; amount_to_move = 8;
;
	lda     #$08
	sta     _amount_to_move
;
; movement_user_forward();
;
	jsr     _movement_user_forward
;
; powerpad_old_button = POWERPAD_6;
;
	ldx     #$00
L31DD:	lda     #$40
	sta     _powerpad_old_button
	stx     _powerpad_old_button+1
;
; else if (powerpad_new & POWERPAD_7)
;
	jmp     L31DF
L2ACC:	lda     _powerpad_new
	and     #$01
	beq     L31DF
;
; if (powerpad_old_button == POWERPAD_6)
;
	lda     _powerpad_old_button+1
	bne     L31DE
	lda     _powerpad_old_button
	cmp     #$40
	bne     L31DE
;
; amount_to_move = 8;
;
	lda     #$08
	sta     _amount_to_move
;
; movement_user_forward();
;
	jsr     _movement_user_forward
;
; powerpad_old_button = POWERPAD_7;
;
	ldx     #$00
L31DE:	lda     #$01
	sta     _powerpad_old_button
	stx     _powerpad_old_button+1
;
; else
;
	jmp     L31DF
;
; pad1 = pad_poll(0);     // read the first controller
;
L2AA8:	lda     #$00
	jsr     _pad_poll
	sta     _pad1
;
; pad1_new = get_pad_new(0); // newly pressed button. do pad_poll first
;
	lda     #$00
L3200:	jsr     _get_pad_new
	sta     _pad1_new
;
; if (level == GIMMICK_DUCK_HUNT)
;
L31DF:	lda     _level
	cmp     #$05
	bne     L31E0
;
; zapper_ready = pad2_zapper ^ 1; // XOR last frame, make sure not held down still
;
	lda     _pad2_zapper
	eor     #$01
	sta     _zapper_ready
;
; pad2_zapper = zap_shoot(1); // controller slot 2
;
	lda     #$01
	jsr     _zap_shoot
	sta     _pad2_zapper
;
; if ((pad2_zapper) && (zapper_ready))
;
	lda     _pad2_zapper
	beq     L31E0
	lda     _zapper_ready
	beq     L31E0
;
; oam_clear();
;
	jsr     _oam_clear
;
; draw_shootable_box(); // redraw the star as a box
;
	jsr     _draw_shootable_box
;
; ppu_mask(0x16);    // BG off, won't happen till NEXT frame
;
	lda     #$16
	jsr     _ppu_mask
;
; ppu_wait_nmi(); // wait till the top of the next frame
;
	jsr     _ppu_wait_nmi
;
; draw_bg(); 
;
	jsr     _draw_bg
;
; oam_clear();  // clear the NEXT frame
;
	jsr     _oam_clear
;
; ppu_mask(0x1e); // bg on, won't happen till NEXT frame
;
	lda     #$1E
	jsr     _ppu_mask
;
; hit_detected = zap_read(1); // look for light in zapper, port 2
;
	lda     #$01
	jsr     _zap_read
	sta     _hit_detected
;
; if (hit_detected)
;
	lda     _hit_detected
	beq     L2B01
;
; sfx_play(SFX_CRASH, 0);
;
	lda     #$08
	jsr     pusha
	lda     #$00
	jsr     _sfx_play
;
; duck_exists = 0;
;
	lda     #$00
	sta     _duck_exists
;
; else
;
	jmp     L31E0
;
; sfx_play(SFX_MISS, 0);
;
L2B01:	lda     #$0C
	jsr     pusha
	lda     #$00
	jsr     _sfx_play
;
; if (level == GIMMICK_GUMSHOE)
;
L31E0:	lda     _level
	cmp     #$06
	bne     L31E1
;
; if (player_moving)
;
	lda     _player_moving
	beq     L2B0E
;
; movement_user_forward();
;
	jsr     _movement_user_forward
;
; else
;
	jmp     L31E1
;
; movement_user_direction();
;
L2B0E:	jsr     _movement_user_direction
;
; zapper_ready = pad2_zapper ^ 1; // XOR last frame, make sure not held down still
;
	lda     _pad2_zapper
	eor     #$01
	sta     _zapper_ready
;
; pad2_zapper = zap_shoot(1); // controller slot 2
;
	lda     #$01
	jsr     _zap_shoot
	sta     _pad2_zapper
;
; if ((pad2_zapper) && (zapper_ready))
;
	lda     _pad2_zapper
	beq     L31E1
	lda     _zapper_ready
	beq     L31E1
;
; oam_clear();
;
	jsr     _oam_clear
;
; draw_shootable_box(); // redraw the star as a box
;
	jsr     _draw_shootable_box
;
; ppu_mask(0x16);    // BG off, won't happen till NEXT frame
;
	lda     #$16
	jsr     _ppu_mask
;
; ppu_wait_nmi(); // wait till the top of the next frame
;
	jsr     _ppu_wait_nmi
;
; draw_bg();
;
	jsr     _draw_bg
;
; oam_clear();  // clear the NEXT frame
;
	jsr     _oam_clear
;
; ppu_mask(0x1e); // bg on, won't happen till NEXT frame
;
	lda     #$1E
	jsr     _ppu_mask
;
; hit_detected = zap_read(1); // look for light in zapper, port 2
;
	lda     #$01
	jsr     _zap_read
	sta     _hit_detected
;
; if (hit_detected)
;
	lda     _hit_detected
	beq     L2B2A
;
; sfx_play(SFX_CRASH, 0);
;
	lda     #$08
	jsr     pusha
	lda     #$00
	jsr     _sfx_play
;
; player_moving = 1;
;
	lda     #$01
	sta     _player_moving
;
; is_moving = 1;
;
	sta     _is_moving
;
; amount_to_move = 4;
;
	lda     #$04
	sta     _amount_to_move
;
; else
;
	jmp     L31E1
;
; sfx_play(SFX_MISS, 0);
;
L2B2A:	lda     #$0C
	jsr     pusha
	lda     #$00
	jsr     _sfx_play
;
; if (level == GIMMICK_SCREEN_SCROLL)
;
L31E1:	lda     _level
	cmp     #$07
	bne     L31E5
;
; ++frame_count;
;
	inc     _frame_count
;
; if (frame_count == 40)
;
	lda     _frame_count
	cmp     #$28
	bne     L2B3C
;
; if (scroll_x > 0)
;
	lda     _scroll_x
	ora     _scroll_x+1
	beq     L31E3
;
; --scroll_x;
;
	lda     _scroll_x
	sec
	sbc     #$01
	sta     _scroll_x
	bcs     L2B42
	dec     _scroll_x+1
;
; frame_count = 0;
;
L2B42:	lda     #$00
L31E3:	sta     _frame_count
;
; set_scroll_x(scroll_x);
;
L2B3C:	lda     _scroll_x
	ldx     _scroll_x+1
	jsr     _set_scroll_x
;
; if (pad1_new & PAD_A || pad1_new & PAD_B)
;
	lda     _pad1_new
	and     #$80
	bne     L31E4
	lda     _pad1_new
	and     #$40
	beq     L31E5
;
; if (scroll_x < 256)
;
L31E4:	ldx     _scroll_x+1
	cpx     #$01
	bcs     L31E5
;
; scroll_x += 2;
;
	lda     #$02
	clc
	adc     _scroll_x
	sta     _scroll_x
	bcc     L31E5
	inc     _scroll_x+1
;
; if (level == GIMMICK_TURBO_FLAGS)
;
L31E5:	lda     _level
	cmp     #$08
	jne     L31FA
;
; ++frame_count;
;
	inc     _frame_count
;
; if (frame_count >= 60)
;
	lda     _frame_count
	cmp     #$3C
	bcc     L31E6
;
; frame_count = 0;
;
	lda     #$00
	sta     _frame_count
;
; last_turbo_a_rate = turbo_a_rate;
;
	lda     _turbo_a_rate
	sta     _last_turbo_a_rate
;
; last_turbo_b_rate = turbo_b_rate;
;
	lda     _turbo_b_rate
	sta     _last_turbo_b_rate
;
; turbo_a_rate = 0;
;
	lda     #$00
	sta     _turbo_a_rate
;
; turbo_b_rate = 0;
;
	sta     _turbo_b_rate
;
; if (frame_count % 10 == 0)
;
L31E6:	lda     _frame_count
	jsr     pusha0
	lda     #$0A
	jsr     tosumoda0
	cpx     #$00
	bne     L31E9
	cmp     #$00
	bne     L31E9
;
; if (last_turbo_a_rate > 0)
;
	lda     _last_turbo_a_rate
	beq     L31E7
;
; if (flag_a > 0)
;
	lda     _flag_a
	beq     L31E9
;
; --flag_a;
;
	dec     _flag_a
;
; else
;
	jmp     L31E9
;
; if (flag_a > 4)
;
L31E7:	lda     _flag_a
	cmp     #$05
	txa
	bcc     L31CA
;
; flag_a -= 4;
;
	lda     _flag_a
	sec
	sbc     #$04
;
; flag_a = 0;
;
L31CA:	sta     _flag_a
;
; if (frame_count == 25 || frame_count == 50)
;
L31E9:	lda     _frame_count
	cmp     #$19
	beq     L31EA
	cmp     #$32
	bne     L31ED
;
; if (last_turbo_b_rate > 0)
;
L31EA:	lda     _last_turbo_b_rate
	beq     L31EB
;
; if (flag_b > 0)
;
	lda     _flag_b
	beq     L31ED
;
; --flag_b;
;
	dec     _flag_b
;
; else
;
	jmp     L31ED
;
; if (flag_b > 4)
;
L31EB:	lda     _flag_b
	cmp     #$05
	lda     #$00
	bcc     L31CB
;
; flag_b -= 4;
;
	lda     _flag_b
	sec
	sbc     #$04
;
; flag_b = 0;
;
L31CB:	sta     _flag_b
;
; if (pad1_new & PAD_A)
;
L31ED:	lda     _pad1_new
	and     #$80
	beq     L31EE
;
; ++turbo_a_rate;
;
	inc     _turbo_a_rate
;
; if (flag_a < 110)
;
	lda     _flag_a
	cmp     #$6E
	bcs     L31EE
;
; ++flag_a;
;
	inc     _flag_a
;
; if (pad1_new & PAD_B)
;
L31EE:	lda     _pad1_new
	and     #$40
	beq     L31EF
;
; ++turbo_b_rate;
;
	inc     _turbo_b_rate
;
; if (flag_b < 110)
;
	lda     _flag_b
	cmp     #$6E
	bcs     L31EF
;
; ++flag_b;
;
	inc     _flag_b
;
; if (flag_a >= TURBO_FLAG_A_MIN && flag_a <= TURBO_FLAG_A_MAX)
;
L31EF:	lda     _flag_a
	cmp     #$3E
	bcc     L2B8A
	cmp     #$4F
	bcs     L2B8A
;
; if (a_entering)
;
	lda     _a_entering
	beq     L31F3
;
; sfx_play(SFX_RINGER1, 0);
;
	lda     #$00
	jsr     pusha
	jsr     _sfx_play
;
; a_entering = 0;
;
	lda     #$00
	sta     _a_entering
;
; a_exiting = 1;
;
	lda     #$01
	sta     _a_exiting
;
; a_flag = 1;
;
L31F3:	lda     #$01
;
; else
;
	jmp     L31CC
;
; if (a_exiting)
;
L2B8A:	lda     _a_exiting
	beq     L31F4
;
; sfx_play(SFX_MISS, 0);
;
	lda     #$0C
	jsr     pusha
	lda     #$00
	jsr     _sfx_play
;
; a_exiting = 0;
;
	lda     #$00
	sta     _a_exiting
;
; a_entering = 1;
;
L31F4:	lda     #$01
	sta     _a_entering
;
; a_flag = 0;
;
	lda     #$00
L31CC:	sta     _a_flag
;
; if (flag_b >= TURBO_FLAG_B_MIN && flag_b <= TURBO_FLAG_B_MAX)
;
	lda     _flag_b
	cmp     #$4E
	bcc     L2BA5
	cmp     #$5F
	bcs     L2BA5
;
; if (b_entering)
;
	lda     _b_entering
	beq     L31F8
;
; sfx_play(SFX_RINGER1, 0);
;
	lda     #$00
	jsr     pusha
	jsr     _sfx_play
;
; b_entering = 0;
;
	lda     #$00
	sta     _b_entering
;
; b_exiting = 1;
;
	lda     #$01
	sta     _b_exiting
;
; b_flag = 1;
;
L31F8:	lda     #$01
;
; else  
;
	jmp     L31CD
;
; if (b_exiting)
;
L2BA5:	lda     _b_exiting
	beq     L31F9
;
; sfx_play(SFX_MISS, 0);
;
	lda     #$0C
	jsr     pusha
	lda     #$00
	jsr     _sfx_play
;
; b_exiting = 0;
;
	lda     #$00
	sta     _b_exiting
;
; b_entering = 1;
;
L31F9:	lda     #$01
	sta     _b_entering
;
; b_flag = 0;
;
	lda     #$00
L31CD:	sta     _b_flag
;
; if (level != GIMMICK_TRACK_AND_FIELD && level != GIMMICK_GUMSHOE)
;
L31FA:	lda     _level
	cmp     #$09
	beq     L2BC0
	cmp     #$06
	beq     L2BC0
;
; movement();
;
	jsr     _movement
;
; draw_sprites();
;
L2BC0:	jsr     _draw_sprites
;
; else if (game_mode == MODE_LEVEL_END)
;
	jmp     L31D0
L31FD:	lda     _game_mode
	cmp     #$07
	bne     L31FF
;
; sfx_play(SFX_VICTORY, 0);
;
	lda     #$03
	jsr     pusha
	lda     #$00
	jsr     _sfx_play
;
; for (index = 0; index < 60; ++index)
;
	lda     #$00
	sta     _index
L31FE:	lda     _index
	cmp     #$3C
	bcs     L2BCD
;
; ppu_wait_nmi();
;
	jsr     _ppu_wait_nmi
;
; for (index = 0; index < 60; ++index)
;
	inc     _index
	jmp     L31FE
;
; pal_fade_to(4, 0); // fade to black
;
L2BCD:	lda     #$04
	jsr     pusha
	lda     #$00
	jsr     _pal_fade_to
;
; level_up();
;
	jsr     _level_up
;
; else
;
	jmp     L31D0
;
; game_mode = MODE_TITLE;
;
L31FF:	lda     #$00
L31C6:	sta     _game_mode
;
; while (1)
;
	jmp     L31D0

.endproc

