;
; File generated by cc65 v 2.18 - N/A
;
	.fopt		compiler,"cc65 v 2.18 - N/A"
	.setcpu		"6502"
	.smart		on
	.autoimport	on
	.case		on
	.debuginfo	off
	.importzp	sp, sreg, regsave, regbank
	.importzp	tmp1, tmp2, tmp3, tmp4, ptr1, ptr2, ptr3, ptr4
	.macpack	longbranch
	.forceimport	__STARTUP__
	.import		_pal_bg
	.import		_pal_spr
	.import		_ppu_wait_nmi
	.import		_ppu_off
	.import		_ppu_on_all
	.import		_oam_clear
	.import		_oam_meta_spr
	.import		_pad_poll
	.import		_bank_spr
	.import		_vram_adr
	.import		_vram_put
	.import		_vram_fill
	.import		_memcpy
	.import		_set_vram_buffer
	.import		_one_vram_buffer
	.import		_multi_vram_buffer_horz
	.import		_get_pad_new
	.import		_set_scroll_y
	.export		_perrystandright_data
	.export		_perrystandleft_data
	.export		_perrywalkright0_data
	.export		_perrywalkright1_data
	.export		_perrywalkright2_data
	.export		_perrywalkleft0_data
	.export		_perrywalkleft1_data
	.export		_perrywalkleft2_data
	.export		_perrywalkdown0_data
	.export		_perrywalkdown1_data
	.export		_perrywalkdown2_data
	.export		_perrywalkup0_data
	.export		_perrywalkup1_data
	.export		_perrywalkup2_data
	.export		_nudeman_data
	.export		_Duck_data
	.export		_switchleft_data
	.export		_switchright_data
	.export		_lighton_data
	.export		_lightoff_data
	.export		_rock_data
	.export		_perryflag0_data
	.export		_perryflag1_data
	.export		_perryflag2_data
	.export		_blankflag0_data
	.export		_blankflag1_data
	.export		_blankflag2_data
	.export		_titletailwag0_data
	.export		_titletailwag1_data
	.export		_titletailwag2_data
	.export		_GoalFlag
	.export		_pad1
	.export		_pad1_new
	.export		_pad2
	.export		_pad2_new
	.export		_collision
	.export		_collision_L
	.export		_collision_R
	.export		_collision_U
	.export		_collision_D
	.export		_level
	.export		_p_maps
	.export		_coordinates
	.export		_temp1
	.export		_temp2
	.export		_temp3
	.export		_temp4
	.export		_temp_x
	.export		_temp_y
	.export		_game_mode
	.export		_show_text
	.export		_has_moved
	.export		_is_moving
	.export		_player_moved_frames
	.export		_local_left
	.export		_local_right
	.export		_local_up
	.export		_local_down
	.export		_pointer2
	.export		_c_map
	.export		_BoxGuy1
	.export		_c1
	.export		_c2
	.export		_c3
	.export		_c4
	.export		_All_Collision_Maps
	.export		_level_text
	.export		_level_text_length
	.export		_level_player_x
	.export		_level_player_y
	.export		_level_goal_x
	.export		_level_goal_y
	.export		_palette_bg
	.export		_palette_sp
	.export		_draw_bg
	.export		_draw_sprites
	.export		_movement
	.export		_bg_collision
	.export		_check_start
	.export		_sprite_collision
	.export		_level_up
	.export		_init_level_text
	.export		_set_direction
	.export		_draw_player_sprite
	.export		_main

.segment	"DATA"

_BoxGuy1:
	.byte	$40
	.byte	$50
	.byte	$0D
	.byte	$0E
	.byte	$00

.segment	"RODATA"

_perrystandright_data:
	.byte	$07
	.byte	$02
	.byte	$30
	.byte	$00
	.byte	$00
	.byte	$00
	.byte	$40
	.byte	$01
	.byte	$08
	.byte	$00
	.byte	$41
	.byte	$01
	.byte	$00
	.byte	$08
	.byte	$50
	.byte	$01
	.byte	$08
	.byte	$08
	.byte	$51
	.byte	$01
	.byte	$80
_perrystandleft_data:
	.byte	$01
	.byte	$02
	.byte	$30
	.byte	$40
	.byte	$00
	.byte	$00
	.byte	$41
	.byte	$41
	.byte	$08
	.byte	$00
	.byte	$40
	.byte	$41
	.byte	$08
	.byte	$08
	.byte	$50
	.byte	$41
	.byte	$00
	.byte	$08
	.byte	$51
	.byte	$41
	.byte	$80
_perrywalkright0_data:
	.byte	$07
	.byte	$02
	.byte	$30
	.byte	$00
	.byte	$00
	.byte	$00
	.byte	$40
	.byte	$01
	.byte	$08
	.byte	$00
	.byte	$41
	.byte	$01
	.byte	$00
	.byte	$08
	.byte	$54
	.byte	$01
	.byte	$08
	.byte	$08
	.byte	$55
	.byte	$01
	.byte	$80
_perrywalkright1_data:
	.byte	$07
	.byte	$02
	.byte	$30
	.byte	$00
	.byte	$00
	.byte	$00
	.byte	$40
	.byte	$01
	.byte	$08
	.byte	$00
	.byte	$41
	.byte	$01
	.byte	$00
	.byte	$08
	.byte	$52
	.byte	$01
	.byte	$08
	.byte	$08
	.byte	$53
	.byte	$01
	.byte	$80
_perrywalkright2_data:
	.byte	$07
	.byte	$02
	.byte	$30
	.byte	$00
	.byte	$00
	.byte	$00
	.byte	$40
	.byte	$01
	.byte	$08
	.byte	$00
	.byte	$41
	.byte	$01
	.byte	$00
	.byte	$08
	.byte	$56
	.byte	$01
	.byte	$08
	.byte	$08
	.byte	$57
	.byte	$01
	.byte	$80
_perrywalkleft0_data:
	.byte	$01
	.byte	$02
	.byte	$30
	.byte	$40
	.byte	$08
	.byte	$00
	.byte	$40
	.byte	$41
	.byte	$00
	.byte	$00
	.byte	$41
	.byte	$41
	.byte	$08
	.byte	$08
	.byte	$54
	.byte	$41
	.byte	$00
	.byte	$08
	.byte	$55
	.byte	$41
	.byte	$80
_perrywalkleft1_data:
	.byte	$01
	.byte	$02
	.byte	$30
	.byte	$40
	.byte	$08
	.byte	$00
	.byte	$40
	.byte	$41
	.byte	$00
	.byte	$00
	.byte	$41
	.byte	$41
	.byte	$08
	.byte	$08
	.byte	$52
	.byte	$41
	.byte	$00
	.byte	$08
	.byte	$53
	.byte	$41
	.byte	$80
_perrywalkleft2_data:
	.byte	$01
	.byte	$02
	.byte	$30
	.byte	$40
	.byte	$08
	.byte	$00
	.byte	$40
	.byte	$41
	.byte	$00
	.byte	$00
	.byte	$41
	.byte	$41
	.byte	$08
	.byte	$08
	.byte	$56
	.byte	$41
	.byte	$00
	.byte	$08
	.byte	$57
	.byte	$41
	.byte	$80
_perrywalkdown0_data:
	.byte	$02
	.byte	$02
	.byte	$31
	.byte	$00
	.byte	$00
	.byte	$00
	.byte	$60
	.byte	$01
	.byte	$08
	.byte	$00
	.byte	$61
	.byte	$01
	.byte	$00
	.byte	$08
	.byte	$72
	.byte	$01
	.byte	$08
	.byte	$08
	.byte	$73
	.byte	$01
	.byte	$80
_perrywalkdown1_data:
	.byte	$02
	.byte	$02
	.byte	$31
	.byte	$00
	.byte	$00
	.byte	$00
	.byte	$60
	.byte	$01
	.byte	$08
	.byte	$00
	.byte	$61
	.byte	$01
	.byte	$00
	.byte	$08
	.byte	$70
	.byte	$01
	.byte	$08
	.byte	$08
	.byte	$71
	.byte	$01
	.byte	$80
_perrywalkdown2_data:
	.byte	$02
	.byte	$02
	.byte	$31
	.byte	$00
	.byte	$00
	.byte	$00
	.byte	$60
	.byte	$01
	.byte	$08
	.byte	$00
	.byte	$61
	.byte	$01
	.byte	$00
	.byte	$08
	.byte	$74
	.byte	$01
	.byte	$08
	.byte	$08
	.byte	$75
	.byte	$01
	.byte	$80
_perrywalkup0_data:
	.byte	$00
	.byte	$00
	.byte	$80
	.byte	$01
	.byte	$08
	.byte	$00
	.byte	$81
	.byte	$01
	.byte	$00
	.byte	$08
	.byte	$90
	.byte	$01
	.byte	$08
	.byte	$08
	.byte	$93
	.byte	$01
	.byte	$80
_perrywalkup1_data:
	.byte	$00
	.byte	$00
	.byte	$80
	.byte	$01
	.byte	$08
	.byte	$00
	.byte	$81
	.byte	$01
	.byte	$00
	.byte	$08
	.byte	$90
	.byte	$01
	.byte	$08
	.byte	$08
	.byte	$91
	.byte	$01
	.byte	$80
_perrywalkup2_data:
	.byte	$00
	.byte	$00
	.byte	$80
	.byte	$01
	.byte	$08
	.byte	$00
	.byte	$81
	.byte	$01
	.byte	$00
	.byte	$08
	.byte	$92
	.byte	$01
	.byte	$08
	.byte	$08
	.byte	$91
	.byte	$01
	.byte	$80
_nudeman_data:
	.byte	$08
	.byte	$00
	.byte	$0D
	.byte	$01
	.byte	$10
	.byte	$00
	.byte	$0E
	.byte	$01
	.byte	$10
	.byte	$00
	.byte	$0F
	.byte	$01
	.byte	$08
	.byte	$08
	.byte	$1D
	.byte	$01
	.byte	$10
	.byte	$08
	.byte	$1E
	.byte	$01
	.byte	$10
	.byte	$08
	.byte	$1F
	.byte	$01
	.byte	$10
	.byte	$10
	.byte	$2E
	.byte	$01
	.byte	$18
	.byte	$10
	.byte	$2F
	.byte	$01
	.byte	$10
	.byte	$18
	.byte	$3E
	.byte	$01
	.byte	$10
	.byte	$18
	.byte	$3F
	.byte	$01
	.byte	$10
	.byte	$20
	.byte	$4E
	.byte	$01
	.byte	$18
	.byte	$20
	.byte	$4F
	.byte	$01
	.byte	$18
	.byte	$18
	.byte	$3F
	.byte	$01
	.byte	$08
	.byte	$10
	.byte	$2D
	.byte	$01
	.byte	$00
	.byte	$10
	.byte	$2C
	.byte	$01
	.byte	$00
	.byte	$08
	.byte	$1C
	.byte	$01
	.byte	$00
	.byte	$00
	.byte	$0C
	.byte	$01
	.byte	$08
	.byte	$18
	.byte	$3D
	.byte	$01
	.byte	$08
	.byte	$20
	.byte	$4D
	.byte	$01
	.byte	$08
	.byte	$28
	.byte	$5D
	.byte	$01
	.byte	$10
	.byte	$28
	.byte	$5E
	.byte	$01
	.byte	$08
	.byte	$30
	.byte	$6D
	.byte	$01
	.byte	$10
	.byte	$30
	.byte	$6E
	.byte	$01
	.byte	$18
	.byte	$30
	.byte	$6F
	.byte	$01
	.byte	$18
	.byte	$38
	.byte	$7F
	.byte	$01
	.byte	$10
	.byte	$38
	.byte	$7E
	.byte	$01
	.byte	$08
	.byte	$38
	.byte	$7D
	.byte	$01
	.byte	$00
	.byte	$38
	.byte	$7C
	.byte	$01
	.byte	$00
	.byte	$30
	.byte	$6C
	.byte	$01
	.byte	$80
_Duck_data:
	.byte	$08
	.byte	$00
	.byte	$BD
	.byte	$01
	.byte	$10
	.byte	$00
	.byte	$BE
	.byte	$01
	.byte	$08
	.byte	$08
	.byte	$CD
	.byte	$01
	.byte	$10
	.byte	$08
	.byte	$CE
	.byte	$01
	.byte	$18
	.byte	$08
	.byte	$CF
	.byte	$01
	.byte	$18
	.byte	$10
	.byte	$DF
	.byte	$01
	.byte	$10
	.byte	$10
	.byte	$DE
	.byte	$01
	.byte	$08
	.byte	$10
	.byte	$DD
	.byte	$01
	.byte	$00
	.byte	$10
	.byte	$DC
	.byte	$01
	.byte	$00
	.byte	$08
	.byte	$CC
	.byte	$01
	.byte	$00
	.byte	$18
	.byte	$EC
	.byte	$01
	.byte	$08
	.byte	$18
	.byte	$ED
	.byte	$01
	.byte	$10
	.byte	$18
	.byte	$EE
	.byte	$01
	.byte	$18
	.byte	$18
	.byte	$EF
	.byte	$01
	.byte	$18
	.byte	$20
	.byte	$FF
	.byte	$01
	.byte	$10
	.byte	$20
	.byte	$FE
	.byte	$01
	.byte	$08
	.byte	$20
	.byte	$FD
	.byte	$01
	.byte	$00
	.byte	$20
	.byte	$FC
	.byte	$01
	.byte	$80
_switchleft_data:
	.byte	$00
	.byte	$00
	.byte	$C0
	.byte	$00
	.byte	$00
	.byte	$08
	.byte	$D0
	.byte	$00
	.byte	$08
	.byte	$08
	.byte	$D1
	.byte	$00
	.byte	$80
_switchright_data:
	.byte	$08
	.byte	$00
	.byte	$C0
	.byte	$40
	.byte	$08
	.byte	$08
	.byte	$D0
	.byte	$40
	.byte	$00
	.byte	$08
	.byte	$D1
	.byte	$40
	.byte	$80
_lighton_data:
	.byte	$00
	.byte	$00
	.byte	$A2
	.byte	$00
	.byte	$08
	.byte	$00
	.byte	$A3
	.byte	$00
	.byte	$00
	.byte	$08
	.byte	$B2
	.byte	$00
	.byte	$08
	.byte	$08
	.byte	$B3
	.byte	$00
	.byte	$80
_lightoff_data:
	.byte	$00
	.byte	$00
	.byte	$C2
	.byte	$00
	.byte	$08
	.byte	$00
	.byte	$C3
	.byte	$00
	.byte	$00
	.byte	$08
	.byte	$D2
	.byte	$00
	.byte	$08
	.byte	$08
	.byte	$D3
	.byte	$00
	.byte	$80
_rock_data:
	.byte	$00
	.byte	$00
	.byte	$E0
	.byte	$02
	.byte	$08
	.byte	$00
	.byte	$E1
	.byte	$02
	.byte	$00
	.byte	$08
	.byte	$F0
	.byte	$02
	.byte	$08
	.byte	$08
	.byte	$F1
	.byte	$02
	.byte	$80
_perryflag0_data:
	.byte	$00
	.byte	$00
	.byte	$04
	.byte	$00
	.byte	$80
_perryflag1_data:
	.byte	$00
	.byte	$00
	.byte	$05
	.byte	$00
	.byte	$80
_perryflag2_data:
	.byte	$00
	.byte	$00
	.byte	$06
	.byte	$00
	.byte	$80
_blankflag0_data:
	.byte	$00
	.byte	$00
	.byte	$07
	.byte	$00
	.byte	$80
_blankflag1_data:
	.byte	$00
	.byte	$00
	.byte	$08
	.byte	$00
	.byte	$80
_blankflag2_data:
	.byte	$00
	.byte	$00
	.byte	$09
	.byte	$00
	.byte	$80
_titletailwag0_data:
	.byte	$00
	.byte	$00
	.byte	$15
	.byte	$01
	.byte	$80
_titletailwag1_data:
	.byte	$00
	.byte	$00
	.byte	$17
	.byte	$01
	.byte	$80
_titletailwag2_data:
	.byte	$00
	.byte	$00
	.byte	$16
	.byte	$01
	.byte	$80
_GoalFlag:
	.byte	$00
	.byte	$00
	.byte	$02
	.byte	$00
	.byte	$08
	.byte	$00
	.byte	$03
	.byte	$00
	.byte	$00
	.byte	$08
	.byte	$12
	.byte	$00
	.byte	$08
	.byte	$08
	.byte	$13
	.byte	$00
	.byte	$80
_c1:
	.byte	$01
	.byte	$01
	.byte	$01
	.byte	$01
	.byte	$01
	.byte	$01
	.byte	$01
	.byte	$01
	.byte	$01
	.byte	$01
	.byte	$01
	.byte	$01
	.byte	$01
	.byte	$01
	.byte	$01
	.byte	$01
	.byte	$01
	.byte	$01
	.byte	$01
	.byte	$01
	.byte	$01
	.byte	$01
	.byte	$01
	.byte	$01
	.byte	$01
	.byte	$01
	.byte	$01
	.byte	$01
	.byte	$01
	.byte	$01
	.byte	$01
	.byte	$01
	.byte	$01
	.byte	$01
	.byte	$01
	.byte	$01
	.byte	$01
	.byte	$01
	.byte	$01
	.byte	$01
	.byte	$01
	.byte	$01
	.byte	$01
	.byte	$01
	.byte	$01
	.byte	$01
	.byte	$01
	.byte	$01
	.byte	$01
	.byte	$00
	.byte	$00
	.byte	$00
	.byte	$00
	.byte	$00
	.byte	$00
	.byte	$00
	.byte	$00
	.byte	$00
	.byte	$00
	.byte	$00
	.byte	$00
	.byte	$00
	.byte	$00
	.byte	$01
	.byte	$01
	.byte	$00
	.byte	$00
	.byte	$00
	.byte	$00
	.byte	$00
	.byte	$00
	.byte	$00
	.byte	$00
	.byte	$00
	.byte	$00
	.byte	$00
	.byte	$00
	.byte	$00
	.byte	$00
	.byte	$01
	.byte	$01
	.byte	$00
	.byte	$00
	.byte	$00
	.byte	$00
	.byte	$00
	.byte	$00
	.byte	$00
	.byte	$00
	.byte	$00
	.byte	$00
	.byte	$00
	.byte	$00
	.byte	$00
	.byte	$00
	.byte	$01
	.byte	$01
	.byte	$00
	.byte	$00
	.byte	$00
	.byte	$00
	.byte	$00
	.byte	$00
	.byte	$00
	.byte	$00
	.byte	$00
	.byte	$00
	.byte	$00
	.byte	$00
	.byte	$00
	.byte	$00
	.byte	$01
	.byte	$01
	.byte	$00
	.byte	$00
	.byte	$00
	.byte	$00
	.byte	$00
	.byte	$00
	.byte	$00
	.byte	$00
	.byte	$00
	.byte	$00
	.byte	$00
	.byte	$00
	.byte	$00
	.byte	$00
	.byte	$01
	.byte	$01
	.byte	$00
	.byte	$00
	.byte	$00
	.byte	$00
	.byte	$00
	.byte	$00
	.byte	$00
	.byte	$00
	.byte	$00
	.byte	$00
	.byte	$00
	.byte	$00
	.byte	$00
	.byte	$00
	.byte	$01
	.byte	$01
	.byte	$00
	.byte	$00
	.byte	$00
	.byte	$00
	.byte	$00
	.byte	$00
	.byte	$00
	.byte	$00
	.byte	$00
	.byte	$00
	.byte	$00
	.byte	$00
	.byte	$00
	.byte	$00
	.byte	$01
	.byte	$01
	.byte	$00
	.byte	$00
	.byte	$00
	.byte	$00
	.byte	$00
	.byte	$00
	.byte	$00
	.byte	$00
	.byte	$00
	.byte	$00
	.byte	$00
	.byte	$00
	.byte	$00
	.byte	$00
	.byte	$01
	.byte	$01
	.byte	$00
	.byte	$00
	.byte	$00
	.byte	$00
	.byte	$00
	.byte	$00
	.byte	$00
	.byte	$00
	.byte	$00
	.byte	$00
	.byte	$00
	.byte	$00
	.byte	$00
	.byte	$00
	.byte	$01
	.byte	$01
	.byte	$01
	.byte	$01
	.byte	$01
	.byte	$01
	.byte	$01
	.byte	$01
	.byte	$01
	.byte	$01
	.byte	$01
	.byte	$01
	.byte	$01
	.byte	$01
	.byte	$01
	.byte	$01
	.byte	$01
	.byte	$01
	.byte	$01
	.byte	$01
	.byte	$01
	.byte	$01
	.byte	$01
	.byte	$01
	.byte	$01
	.byte	$01
	.byte	$01
	.byte	$01
	.byte	$01
	.byte	$01
	.byte	$01
	.byte	$01
	.byte	$01
	.byte	$01
	.byte	$01
	.byte	$01
	.byte	$01
	.byte	$01
	.byte	$01
	.byte	$01
	.byte	$01
	.byte	$01
	.byte	$01
	.byte	$01
	.byte	$01
	.byte	$01
	.byte	$01
	.byte	$01
	.byte	$01
_c2:
	.byte	$01
	.byte	$01
	.byte	$01
	.byte	$01
	.byte	$01
	.byte	$01
	.byte	$01
	.byte	$01
	.byte	$01
	.byte	$01
	.byte	$01
	.byte	$01
	.byte	$01
	.byte	$01
	.byte	$01
	.byte	$01
	.byte	$01
	.byte	$01
	.byte	$01
	.byte	$01
	.byte	$01
	.byte	$01
	.byte	$01
	.byte	$00
	.byte	$00
	.byte	$00
	.byte	$00
	.byte	$00
	.byte	$00
	.byte	$01
	.byte	$00
	.byte	$01
	.byte	$01
	.byte	$01
	.byte	$01
	.byte	$01
	.byte	$01
	.byte	$01
	.byte	$01
	.byte	$00
	.byte	$01
	.byte	$01
	.byte	$01
	.byte	$01
	.byte	$00
	.byte	$01
	.byte	$00
	.byte	$01
	.byte	$01
	.byte	$00
	.byte	$00
	.byte	$00
	.byte	$00
	.byte	$00
	.byte	$00
	.byte	$00
	.byte	$00
	.byte	$00
	.byte	$00
	.byte	$01
	.byte	$00
	.byte	$01
	.byte	$00
	.byte	$01
	.byte	$01
	.byte	$00
	.byte	$01
	.byte	$00
	.byte	$00
	.byte	$00
	.byte	$00
	.byte	$01
	.byte	$01
	.byte	$01
	.byte	$01
	.byte	$01
	.byte	$00
	.byte	$01
	.byte	$00
	.byte	$01
	.byte	$01
	.byte	$00
	.byte	$01
	.byte	$01
	.byte	$01
	.byte	$01
	.byte	$01
	.byte	$01
	.byte	$00
	.byte	$01
	.byte	$00
	.byte	$01
	.byte	$00
	.byte	$01
	.byte	$00
	.byte	$01
	.byte	$01
	.byte	$00
	.byte	$00
	.byte	$01
	.byte	$00
	.byte	$01
	.byte	$00
	.byte	$00
	.byte	$00
	.byte	$00
	.byte	$00
	.byte	$00
	.byte	$00
	.byte	$01
	.byte	$00
	.byte	$01
	.byte	$01
	.byte	$00
	.byte	$00
	.byte	$01
	.byte	$00
	.byte	$01
	.byte	$00
	.byte	$01
	.byte	$00
	.byte	$01
	.byte	$01
	.byte	$01
	.byte	$01
	.byte	$01
	.byte	$00
	.byte	$01
	.byte	$01
	.byte	$00
	.byte	$01
	.byte	$01
	.byte	$00
	.byte	$01
	.byte	$00
	.byte	$01
	.byte	$00
	.byte	$01
	.byte	$00
	.byte	$00
	.byte	$00
	.byte	$01
	.byte	$00
	.byte	$01
	.byte	$01
	.byte	$00
	.byte	$00
	.byte	$01
	.byte	$00
	.byte	$01
	.byte	$01
	.byte	$01
	.byte	$00
	.byte	$01
	.byte	$00
	.byte	$01
	.byte	$00
	.byte	$01
	.byte	$00
	.byte	$01
	.byte	$01
	.byte	$00
	.byte	$01
	.byte	$01
	.byte	$00
	.byte	$00
	.byte	$00
	.byte	$01
	.byte	$00
	.byte	$01
	.byte	$00
	.byte	$01
	.byte	$00
	.byte	$00
	.byte	$00
	.byte	$01
	.byte	$01
	.byte	$00
	.byte	$00
	.byte	$00
	.byte	$00
	.byte	$00
	.byte	$00
	.byte	$01
	.byte	$00
	.byte	$00
	.byte	$00
	.byte	$01
	.byte	$00
	.byte	$00
	.byte	$00
	.byte	$01
	.byte	$01
	.byte	$01
	.byte	$01
	.byte	$01
	.byte	$01
	.byte	$01
	.byte	$01
	.byte	$01
	.byte	$01
	.byte	$01
	.byte	$01
	.byte	$01
	.byte	$01
	.byte	$01
	.byte	$01
	.byte	$01
	.byte	$01
	.byte	$01
	.byte	$01
	.byte	$01
	.byte	$01
	.byte	$01
	.byte	$01
	.byte	$01
	.byte	$01
	.byte	$01
	.byte	$01
	.byte	$01
	.byte	$01
	.byte	$01
	.byte	$01
	.byte	$01
	.byte	$01
	.byte	$01
	.byte	$01
	.byte	$01
	.byte	$01
	.byte	$01
	.byte	$01
	.byte	$01
	.byte	$01
	.byte	$01
	.byte	$01
	.byte	$01
	.byte	$01
	.byte	$01
	.byte	$01
	.byte	$01
_c3:
	.byte	$01
	.byte	$00
	.byte	$00
	.byte	$00
	.byte	$00
	.byte	$00
	.byte	$00
	.byte	$00
	.byte	$01
	.byte	$00
	.byte	$00
	.byte	$00
	.byte	$00
	.byte	$00
	.byte	$00
	.byte	$01
	.byte	$00
	.byte	$01
	.byte	$00
	.byte	$00
	.byte	$00
	.byte	$00
	.byte	$00
	.byte	$00
	.byte	$00
	.byte	$01
	.byte	$00
	.byte	$00
	.byte	$00
	.byte	$00
	.byte	$00
	.byte	$00
	.byte	$00
	.byte	$00
	.byte	$01
	.byte	$00
	.byte	$00
	.byte	$00
	.byte	$00
	.byte	$00
	.byte	$00
	.byte	$00
	.byte	$01
	.byte	$00
	.byte	$00
	.byte	$00
	.byte	$00
	.byte	$00
	.byte	$00
	.byte	$00
	.byte	$00
	.byte	$01
	.byte	$00
	.byte	$00
	.byte	$00
	.byte	$00
	.byte	$00
	.byte	$00
	.byte	$00
	.byte	$01
	.byte	$00
	.byte	$00
	.byte	$00
	.byte	$00
	.byte	$00
	.byte	$00
	.byte	$00
	.byte	$00
	.byte	$01
	.byte	$00
	.byte	$00
	.byte	$00
	.byte	$00
	.byte	$00
	.byte	$00
	.byte	$00
	.byte	$01
	.byte	$00
	.byte	$00
	.byte	$00
	.byte	$00
	.byte	$00
	.byte	$00
	.byte	$00
	.byte	$00
	.byte	$01
	.byte	$00
	.byte	$00
	.byte	$00
	.byte	$00
	.byte	$00
	.byte	$00
	.byte	$00
	.byte	$01
	.byte	$00
	.byte	$00
	.byte	$00
	.byte	$00
	.byte	$00
	.byte	$00
	.byte	$00
	.byte	$00
	.byte	$01
	.byte	$00
	.byte	$00
	.byte	$00
	.byte	$00
	.byte	$00
	.byte	$00
	.byte	$00
	.byte	$01
	.byte	$00
	.byte	$01
	.byte	$00
	.byte	$00
	.byte	$00
	.byte	$00
	.byte	$00
	.byte	$00
	.byte	$01
	.byte	$00
	.byte	$00
	.byte	$00
	.byte	$00
	.byte	$00
	.byte	$00
	.byte	$00
	.byte	$01
	.byte	$00
	.byte	$01
	.byte	$00
	.byte	$00
	.byte	$00
	.byte	$00
	.byte	$00
	.byte	$00
	.byte	$01
	.byte	$00
	.byte	$00
	.byte	$00
	.byte	$00
	.byte	$00
	.byte	$00
	.byte	$00
	.byte	$00
	.byte	$00
	.byte	$01
	.byte	$00
	.byte	$00
	.byte	$00
	.byte	$00
	.byte	$00
	.byte	$00
	.byte	$01
	.byte	$00
	.byte	$00
	.byte	$00
	.byte	$00
	.byte	$00
	.byte	$00
	.byte	$00
	.byte	$00
	.byte	$00
	.byte	$01
	.byte	$00
	.byte	$00
	.byte	$00
	.byte	$00
	.byte	$00
	.byte	$00
	.byte	$01
	.byte	$00
	.byte	$00
	.byte	$00
	.byte	$00
	.byte	$00
	.byte	$00
	.byte	$00
	.byte	$00
	.byte	$00
	.byte	$01
	.byte	$00
	.byte	$00
	.byte	$00
	.byte	$00
	.byte	$00
	.byte	$00
	.byte	$01
	.byte	$00
	.byte	$00
	.byte	$00
	.byte	$00
	.byte	$00
	.byte	$00
	.byte	$00
	.byte	$00
	.byte	$00
	.byte	$01
	.byte	$00
	.byte	$00
	.byte	$00
	.byte	$00
	.byte	$00
	.byte	$00
	.byte	$01
	.byte	$00
	.byte	$00
	.byte	$00
	.byte	$00
	.byte	$00
	.byte	$00
	.byte	$00
	.byte	$00
	.byte	$00
	.byte	$01
	.byte	$00
	.byte	$00
	.byte	$00
	.byte	$00
	.byte	$00
	.byte	$00
	.byte	$01
	.byte	$00
	.byte	$00
	.byte	$01
	.byte	$00
	.byte	$00
	.byte	$00
	.byte	$00
	.byte	$00
	.byte	$00
	.byte	$01
	.byte	$00
	.byte	$00
	.byte	$00
	.byte	$00
	.byte	$00
	.byte	$00
	.byte	$01
	.byte	$00
_c4:
	.byte	$00
	.byte	$00
	.byte	$00
	.byte	$00
	.byte	$00
	.byte	$00
	.byte	$00
	.byte	$01
	.byte	$01
	.byte	$00
	.byte	$00
	.byte	$00
	.byte	$00
	.byte	$00
	.byte	$00
	.byte	$00
	.byte	$00
	.byte	$00
	.byte	$00
	.byte	$00
	.byte	$00
	.byte	$00
	.byte	$00
	.byte	$01
	.byte	$01
	.byte	$00
	.byte	$00
	.byte	$00
	.byte	$00
	.byte	$00
	.byte	$00
	.byte	$00
	.byte	$00
	.byte	$00
	.byte	$00
	.byte	$00
	.byte	$00
	.byte	$00
	.byte	$00
	.byte	$01
	.byte	$01
	.byte	$00
	.byte	$00
	.byte	$00
	.byte	$00
	.byte	$00
	.byte	$00
	.byte	$00
	.byte	$01
	.byte	$01
	.byte	$01
	.byte	$01
	.byte	$00
	.byte	$00
	.byte	$00
	.byte	$01
	.byte	$01
	.byte	$00
	.byte	$00
	.byte	$00
	.byte	$01
	.byte	$01
	.byte	$01
	.byte	$01
	.byte	$00
	.byte	$00
	.byte	$00
	.byte	$00
	.byte	$00
	.byte	$00
	.byte	$00
	.byte	$00
	.byte	$00
	.byte	$00
	.byte	$00
	.byte	$00
	.byte	$00
	.byte	$00
	.byte	$00
	.byte	$00
	.byte	$00
	.byte	$00
	.byte	$00
	.byte	$00
	.byte	$00
	.byte	$00
	.byte	$00
	.byte	$00
	.byte	$00
	.byte	$00
	.byte	$00
	.byte	$00
	.byte	$00
	.byte	$00
	.byte	$00
	.byte	$00
	.byte	$00
	.byte	$00
	.byte	$00
	.byte	$00
	.byte	$00
	.byte	$00
	.byte	$00
	.byte	$00
	.byte	$00
	.byte	$00
	.byte	$00
	.byte	$00
	.byte	$00
	.byte	$00
	.byte	$00
	.byte	$00
	.byte	$00
	.byte	$00
	.byte	$00
	.byte	$00
	.byte	$00
	.byte	$00
	.byte	$00
	.byte	$00
	.byte	$00
	.byte	$00
	.byte	$00
	.byte	$00
	.byte	$00
	.byte	$00
	.byte	$00
	.byte	$00
	.byte	$00
	.byte	$00
	.byte	$00
	.byte	$00
	.byte	$00
	.byte	$00
	.byte	$00
	.byte	$00
	.byte	$00
	.byte	$00
	.byte	$00
	.byte	$00
	.byte	$00
	.byte	$00
	.byte	$00
	.byte	$00
	.byte	$00
	.byte	$00
	.byte	$00
	.byte	$00
	.byte	$00
	.byte	$00
	.byte	$00
	.byte	$00
	.byte	$00
	.byte	$00
	.byte	$00
	.byte	$00
	.byte	$00
	.byte	$00
	.byte	$00
	.byte	$00
	.byte	$00
	.byte	$00
	.byte	$00
	.byte	$00
	.byte	$00
	.byte	$00
	.byte	$00
	.byte	$00
	.byte	$00
	.byte	$00
	.byte	$00
	.byte	$00
	.byte	$00
	.byte	$00
	.byte	$00
	.byte	$00
	.byte	$01
	.byte	$01
	.byte	$01
	.byte	$01
	.byte	$00
	.byte	$00
	.byte	$00
	.byte	$01
	.byte	$01
	.byte	$00
	.byte	$00
	.byte	$00
	.byte	$01
	.byte	$01
	.byte	$01
	.byte	$01
	.byte	$00
	.byte	$00
	.byte	$00
	.byte	$00
	.byte	$00
	.byte	$00
	.byte	$00
	.byte	$01
	.byte	$01
	.byte	$00
	.byte	$00
	.byte	$00
	.byte	$00
	.byte	$00
	.byte	$00
	.byte	$00
	.byte	$00
	.byte	$00
	.byte	$00
	.byte	$00
	.byte	$00
	.byte	$00
	.byte	$00
	.byte	$01
	.byte	$01
	.byte	$00
	.byte	$00
	.byte	$00
	.byte	$00
	.byte	$00
	.byte	$00
	.byte	$00
	.byte	$00
	.byte	$00
	.byte	$00
	.byte	$00
	.byte	$00
	.byte	$00
	.byte	$00
	.byte	$01
	.byte	$01
	.byte	$00
	.byte	$00
	.byte	$00
	.byte	$00
	.byte	$00
	.byte	$00
	.byte	$00
_All_Collision_Maps:
	.addr	_c1
	.addr	_c2
	.addr	_c3
	.addr	_c4
_level_text:
	.addr	L0630
	.addr	L0632
	.addr	L0634
	.addr	L0636
_level_text_length:
	.byte	$0B
	.byte	$0D
	.byte	$0B
	.byte	$10
_level_player_x:
	.byte	$40
	.byte	$3C
	.byte	$78
	.byte	$78
_level_player_y:
	.byte	$3C
	.byte	$3C
	.byte	$78
	.byte	$78
_level_goal_x:
	.byte	$B4
	.byte	$E1
	.byte	$B4
	.byte	$B4
_level_goal_y:
	.byte	$A0
	.byte	$1E
	.byte	$A0
	.byte	$A0
_palette_bg:
	.byte	$0A
	.byte	$00
	.byte	$10
	.byte	$30
	.byte	$00
	.byte	$00
	.byte	$00
	.byte	$00
	.byte	$00
	.byte	$00
	.byte	$00
	.byte	$00
	.byte	$00
	.byte	$00
	.byte	$00
	.byte	$00
_palette_sp:
	.byte	$0F
	.byte	$30
	.byte	$0F
	.byte	$15
	.byte	$0F
	.byte	$11
	.byte	$21
	.byte	$20
	.byte	$0F
	.byte	$38
	.byte	$17
	.byte	$07
	.byte	$0F
	.byte	$1A
	.byte	$2A
	.byte	$17
L0685:
	.byte	$50,$65,$72,$69,$70,$68,$65,$72,$61,$6C,$20,$50,$61,$6C,$61,$63
	.byte	$65,$00
L0636:
	.byte	$54,$77,$6F,$20,$50,$6C,$61,$79,$65,$72,$20,$47,$61,$6D,$65,$00
L0632:
	.byte	$4E,$6F,$74,$20,$73,$6F,$20,$73,$69,$6D,$70,$6C,$65,$00
L067B:
	.byte	$46,$65,$72,$61,$6C,$20,$50,$65,$72,$72,$79,$27,$73,$00
L0634:
	.byte	$39,$30,$20,$44,$65,$67,$72,$65,$65,$73,$00
L0630:
	.byte	$45,$61,$73,$79,$20,$50,$65,$61,$73,$79,$00
L07EE:
	.byte	$4C,$65,$76,$65,$6C,$00

.segment	"BSS"

.segment	"ZEROPAGE"
_pad1:
	.res	1,$00
_pad1_new:
	.res	1,$00
_pad2:
	.res	1,$00
_pad2_new:
	.res	1,$00
_collision:
	.res	1,$00
_collision_L:
	.res	1,$00
_collision_R:
	.res	1,$00
_collision_U:
	.res	1,$00
_collision_D:
	.res	1,$00
_level:
	.res	1,$00
_p_maps:
	.res	2,$00
_coordinates:
	.res	1,$00
_temp1:
	.res	1,$00
_temp2:
	.res	1,$00
_temp3:
	.res	1,$00
_temp4:
	.res	1,$00
_temp_x:
	.res	1,$00
_temp_y:
	.res	1,$00
_game_mode:
	.res	1,$00
_show_text:
	.res	1,$00
_has_moved:
	.res	1,$00
_is_moving:
	.res	1,$00
_player_moved_frames:
	.res	1,$00
_local_left:
	.res	1,$00
_local_right:
	.res	1,$00
_local_up:
	.res	1,$00
_local_down:
	.res	1,$00
_pointer2:
	.res	2,$00
.segment	"BSS"
_c_map:
	.res	240,$00

; ---------------------------------------------------------------
; void __near__ draw_bg (void)
; ---------------------------------------------------------------

.segment	"CODE"

.proc	_draw_bg: near

.segment	"CODE"

;
; ppu_off(); // screen off
;
	jsr     _ppu_off
;
; p_maps = All_Collision_Maps[level];
;
	ldx     #$00
	lda     _level
	asl     a
	bcc     L08B4
	inx
	clc
L08B4:	adc     #<(_All_Collision_Maps)
	sta     ptr1
	txa
	adc     #>(_All_Collision_Maps)
	sta     ptr1+1
	ldy     #$01
	lda     (ptr1),y
	sta     _p_maps+1
	dey
	lda     (ptr1),y
	sta     _p_maps
;
; memcpy(c_map, p_maps, 240);
;
	lda     #<(_c_map)
	ldx     #>(_c_map)
	jsr     pushax
	lda     _p_maps
	ldx     _p_maps+1
	jsr     pushax
	ldx     #$00
	lda     #$F0
	jsr     _memcpy
;
; vram_adr(NAMETABLE_A);
;
	ldx     #$20
	lda     #$00
	jsr     _vram_adr
;
; for (temp_y = 0; temp_y < 15; ++temp_y)
;
	lda     #$00
	sta     _temp_y
L08B5:	lda     _temp_y
	cmp     #$0F
	bcs     L06F8
;
; for (temp_x = 0; temp_x < 16; ++temp_x)
;
	lda     #$00
	sta     _temp_x
L08B6:	lda     _temp_x
	cmp     #$10
	bcs     L08B8
;
; temp1 = (temp_y << 4) + temp_x;
;
	lda     _temp_y
	asl     a
	asl     a
	asl     a
	asl     a
	clc
	adc     _temp_x
	sta     _temp1
;
; if (c_map[temp1])
;
	ldy     _temp1
	lda     _c_map,y
	beq     L08B7
;
; vram_put(0x10); // wall
;
	lda     #$10
	jsr     _vram_put
;
; vram_put(0x10);
;
	lda     #$10
;
; else
;
	jmp     L08B2
;
; vram_put(0); // blank
;
L08B7:	jsr     _vram_put
;
; vram_put(0);
;
	lda     #$00
L08B2:	jsr     _vram_put
;
; for (temp_x = 0; temp_x < 16; ++temp_x)
;
	inc     _temp_x
	jmp     L08B6
;
; for (temp_x = 0; temp_x < 16; ++temp_x)
;
L08B8:	lda     #$00
	sta     _temp_x
L08B9:	lda     _temp_x
	cmp     #$10
	bcs     L08BB
;
; temp1 = (temp_y << 4) + temp_x;
;
	lda     _temp_y
	asl     a
	asl     a
	asl     a
	asl     a
	clc
	adc     _temp_x
	sta     _temp1
;
; if (c_map[temp1])
;
	ldy     _temp1
	lda     _c_map,y
	beq     L08BA
;
; vram_put(0x10); // wall
;
	lda     #$10
	jsr     _vram_put
;
; vram_put(0x10);
;
	lda     #$10
;
; else
;
	jmp     L08B3
;
; vram_put(0); // blank
;
L08BA:	jsr     _vram_put
;
; vram_put(0);
;
	lda     #$00
L08B3:	jsr     _vram_put
;
; for (temp_x = 0; temp_x < 16; ++temp_x)
;
	inc     _temp_x
	jmp     L08B9
;
; for (temp_y = 0; temp_y < 15; ++temp_y)
;
L08BB:	inc     _temp_y
	jmp     L08B5
;
; ppu_on_all(); // turn on screen
;
L06F8:	jmp     _ppu_on_all

.endproc

; ---------------------------------------------------------------
; void __near__ draw_sprites (void)
; ---------------------------------------------------------------

.segment	"CODE"

.proc	_draw_sprites: near

.segment	"CODE"

;
; oam_clear();
;
	jsr     _oam_clear
;
; draw_player_sprite();
;
	jsr     _draw_player_sprite
;
; oam_meta_spr(level_goal_x[level], level_goal_y[level], GoalFlag);
;
	jsr     decsp2
	ldy     _level
	lda     _level_goal_x,y
	ldy     #$01
	sta     (sp),y
	ldy     _level
	lda     _level_goal_y,y
	ldy     #$00
	sta     (sp),y
	lda     #<(_GoalFlag)
	ldx     #>(_GoalFlag)
	jmp     _oam_meta_spr

.endproc

; ---------------------------------------------------------------
; void __near__ movement (void)
; ---------------------------------------------------------------

.segment	"CODE"

.proc	_movement: near

.segment	"CODE"

;
; is_moving = 0;
;
	lda     #$00
	sta     _is_moving
;
; has_moved = 0;
;
	sta     _has_moved
;
; if (pad1 & local_left)
;
	lda     _local_left
	and     _pad1
	pha
	pla
	beq     L08BE
;
; is_moving = 1;
;
	lda     #$01
	sta     _is_moving
;
; BoxGuy1.direction = LEFT;
;
	lda     #$00
	sta     _BoxGuy1+4
;
; BoxGuy1.X -= 1;
;
	dec     _BoxGuy1
;
; has_moved = 1;
;
	lda     #$01
;
; else if (pad1 & local_right)
;
	jmp     L08BC
L08BE:	lda     _local_right
	and     _pad1
	pha
	pla
	beq     L074B
;
; is_moving = 1;
;
	lda     #$01
	sta     _is_moving
;
; BoxGuy1.direction = RIGHT;
;
	sta     _BoxGuy1+4
;
; BoxGuy1.X += 1;
;
	inc     _BoxGuy1
;
; has_moved = 1;
;
L08BC:	sta     _has_moved
;
; bg_collision();
;
L074B:	jsr     _bg_collision
;
; if (collision_R)
;
	lda     _collision_R
	beq     L0756
;
; BoxGuy1.X -= 1;
;
	dec     _BoxGuy1
;
; if (collision_L)
;
L0756:	lda     _collision_L
	beq     L075A
;
; BoxGuy1.X += 1;
;
	inc     _BoxGuy1
;
; if (pad1 & local_up && has_moved == 0)
;
L075A:	lda     _local_up
	and     _pad1
	pha
	pla
	beq     L08C2
	lda     _has_moved
	bne     L08C2
;
; BoxGuy1.direction = UP;
;
	lda     #$02
	sta     _BoxGuy1+4
;
; BoxGuy1.Y -= 1;
;
	dec     _BoxGuy1+1
;
; else if (pad1 & local_down && has_moved == 0)
;
	jmp     L08C7
L08C2:	lda     _local_down
	and     _pad1
	pha
	pla
	beq     L076B
	lda     _has_moved
	bne     L076B
;
; BoxGuy1.direction = DOWN;
;
	lda     #$03
	sta     _BoxGuy1+4
;
; BoxGuy1.Y += 1;
;
	inc     _BoxGuy1+1
;
; has_moved = 1;
;
L08C7:	lda     #$01
	sta     _has_moved
;
; is_moving = 1;
;
	sta     _is_moving
;
; bg_collision();
;
L076B:	jsr     _bg_collision
;
; if (collision_D)
;
	lda     _collision_D
	beq     L0778
;
; BoxGuy1.Y -= 1;
;
	dec     _BoxGuy1+1
;
; if (collision_U)
;
L0778:	lda     _collision_U
	beq     L077C
;
; BoxGuy1.Y += 1;
;
	inc     _BoxGuy1+1
;
; }
;
L077C:	rts

.endproc

; ---------------------------------------------------------------
; void __near__ bg_collision (void)
; ---------------------------------------------------------------

.segment	"CODE"

.proc	_bg_collision: near

.segment	"CODE"

;
; collision_L = 0;
;
	lda     #$00
	sta     _collision_L
;
; collision_R = 0;
;
	sta     _collision_R
;
; collision_U = 0;
;
	sta     _collision_U
;
; collision_D = 0; 
;
	sta     _collision_D
;
; temp_x = BoxGuy1.X; // left side
;
	lda     _BoxGuy1
	sta     _temp_x
;
; temp_y = BoxGuy1.Y; // top side
;
	lda     _BoxGuy1+1
	sta     _temp_y
;
; if (temp_y >= 0xf0)
;
	cmp     #$F0
;
; return;
;
	bcc     L08D1
;
; }
;
	rts
;
; coordinates = (temp_x >> 4) + (temp_y & 0xf0); // upper left
;
L08D1:	lda     _temp_x
	lsr     a
	lsr     a
	lsr     a
	lsr     a
	sta     ptr1
	lda     _temp_y
	and     #$F0
	clc
	adc     ptr1
	sta     _coordinates
;
; if (c_map[coordinates])
;
	ldy     _coordinates
	lda     _c_map,y
	beq     L08CA
;
; ++collision_L;
;
	inc     _collision_L
;
; ++collision_U;
;
	inc     _collision_U
;
; temp_x = BoxGuy1.X + BoxGuy1.width; // right side
;
L08CA:	lda     _BoxGuy1
	clc
	adc     _BoxGuy1+2
	sta     _temp_x
;
; coordinates = (temp_x >> 4) + (temp_y & 0xf0); // upper right
;
	lsr     a
	lsr     a
	lsr     a
	lsr     a
	sta     ptr1
	lda     _temp_y
	and     #$F0
	clc
	adc     ptr1
	sta     _coordinates
;
; if (c_map[coordinates])
;
	ldy     _coordinates
	lda     _c_map,y
	beq     L08CB
;
; ++collision_R;
;
	inc     _collision_R
;
; ++collision_U;
;
	inc     _collision_U
;
; temp_y = BoxGuy1.Y + BoxGuy1.height; // bottom side
;
L08CB:	lda     _BoxGuy1+1
	clc
	adc     _BoxGuy1+3
	sta     _temp_y
;
; if (temp_y >= 0xf0)
;
	cmp     #$F0
;
; return;
;
	bcs     L07CD
;
; coordinates = (temp_x >> 4) + (temp_y & 0xf0); // bottom right
;
	lda     _temp_x
	lsr     a
	lsr     a
	lsr     a
	lsr     a
	sta     ptr1
	lda     _temp_y
	and     #$F0
	clc
	adc     ptr1
	sta     _coordinates
;
; if (c_map[coordinates])
;
	ldy     _coordinates
	lda     _c_map,y
	beq     L08CC
;
; ++collision_R;
;
	inc     _collision_R
;
; ++collision_D;
;
	inc     _collision_D
;
; temp_x = BoxGuy1.X; // left side
;
L08CC:	lda     _BoxGuy1
	sta     _temp_x
;
; coordinates = (temp_x >> 4) + (temp_y & 0xf0); // bottom left
;
	lsr     a
	lsr     a
	lsr     a
	lsr     a
	sta     ptr1
	lda     _temp_y
	and     #$F0
	clc
	adc     ptr1
	sta     _coordinates
;
; if (c_map[coordinates])
;
	ldy     _coordinates
	lda     _c_map,y
	beq     L07CD
;
; ++collision_L;
;
	inc     _collision_L
;
; ++collision_D;
;
	inc     _collision_D
;
; }
;
L07CD:	rts

.endproc

; ---------------------------------------------------------------
; void __near__ check_start (void)
; ---------------------------------------------------------------

.segment	"CODE"

.proc	_check_start: near

.segment	"CODE"

;
; if (pad1_new & PAD_START)
;
	lda     _pad1_new
	and     #$10
	beq     L080E
;
; ++level;
;
	inc     _level
;
; if (level >= 4)
;
	lda     _level
	cmp     #$04
	bcc     L08D2
;
; level = 0;
;
	lda     #$00
	sta     _level
;
; game_mode = MODE_LEVEL_TITLE;
;
L08D2:	lda     #$05
	sta     _game_mode
;
; init_level_text();
;
	jmp     _init_level_text
;
; }
;
L080E:	rts

.endproc

; ---------------------------------------------------------------
; void __near__ sprite_collision (void)
; ---------------------------------------------------------------

.segment	"CODE"

.proc	_sprite_collision: near

.segment	"CODE"

;
; if (BoxGuy1.X >= level_goal_x[level]-3 && BoxGuy1.X <= level_goal_x[level]+3
;
	lda     _BoxGuy1
	jsr     pusha0
	ldy     _level
	lda     _level_goal_x,y
	sec
	sbc     #$03
	bcs     L0785
	ldx     #$FF
L0785:	jsr     tosicmp
	bcc     L0786
	lda     _BoxGuy1
	jsr     pusha0
	ldy     _level
	lda     _level_goal_x,y
;
; && BoxGuy1.Y >= level_goal_y[level]-3 && BoxGuy1.Y <= level_goal_y[level]+3)
;
	clc
	adc     #$03
	bcc     L0789
	ldx     #$01
L0789:	jsr     tosicmp
	beq     L08D3
	bcs     L0786
L08D3:	lda     _BoxGuy1+1
	jsr     pusha0
	ldy     _level
	lda     _level_goal_y,y
	sec
	sbc     #$03
	bcs     L078C
	ldx     #$FF
L078C:	jsr     tosicmp
	bcc     L0786
	lda     _BoxGuy1+1
	jsr     pusha0
	ldy     _level
	lda     _level_goal_y,y
	clc
	adc     #$03
	bcc     L078F
	ldx     #$01
L078F:	jsr     tosicmp
	bcc     L0782
	beq     L0782
L0786:	rts
;
; level_up();
;
L0782:	jsr     _level_up
;
; show_text = 1;
;
	lda     #$01
	sta     _show_text
;
; }
;
	rts

.endproc

; ---------------------------------------------------------------
; void __near__ level_up (void)
; ---------------------------------------------------------------

.segment	"CODE"

.proc	_level_up: near

.segment	"CODE"

;
; ++level;
;
	inc     _level
;
; if (level >= 4)
;
	lda     _level
	cmp     #$04
	bcc     L08D4
;
; level = 0;
;
	lda     #$00
	sta     _level
;
; game_mode = MODE_LEVEL_TITLE;
;
L08D4:	lda     #$05
	sta     _game_mode
;
; init_level_text();
;
	jmp     _init_level_text

.endproc

; ---------------------------------------------------------------
; void __near__ init_level_text (void)
; ---------------------------------------------------------------

.segment	"CODE"

.proc	_init_level_text: near

.segment	"CODE"

;
; BoxGuy1.X = level_player_x[level];
;
	ldy     _level
	lda     _level_player_x,y
	sta     _BoxGuy1
;
; BoxGuy1.Y = level_player_y[level];
;
	ldy     _level
	lda     _level_player_y,y
	sta     _BoxGuy1+1
;
; oam_clear();
;
	jsr     _oam_clear
;
; ppu_off();
;
	jsr     _ppu_off
;
; vram_adr(NAMETABLE_A);
;
	ldx     #$20
	lda     #$00
	jsr     _vram_adr
;
; vram_fill(0, 0x1000);
;
	lda     #$00
	jsr     pusha
	ldx     #$10
	jsr     _vram_fill
;
; ppu_wait_nmi();
;
	jsr     _ppu_wait_nmi
;
; multi_vram_buffer_horz("Level", 5, NTADR_A(3,7));
;
	jsr     decsp3
	lda     #<(L07EE)
	ldy     #$01
	sta     (sp),y
	iny
	lda     #>(L07EE)
	sta     (sp),y
	lda     #$05
	ldy     #$00
	sta     (sp),y
	ldx     #$20
	lda     #$E3
	jsr     _multi_vram_buffer_horz
;
; one_vram_buffer(49+level, NTADR_A(9,7));
;
	lda     _level
	clc
	adc     #$31
	jsr     pusha
	ldx     #$20
	lda     #$E9
	jsr     _one_vram_buffer
;
; multi_vram_buffer_horz(level_text[level], level_text_length[level], NTADR_A(3,10));
;
	jsr     decsp3
	ldx     #$00
	lda     _level
	asl     a
	bcc     L08D6
	inx
	clc
L08D6:	adc     #<(_level_text)
	sta     ptr1
	txa
	adc     #>(_level_text)
	sta     ptr1+1
	ldy     #$01
	lda     (ptr1),y
	tax
	dey
	lda     (ptr1),y
	iny
	sta     (sp),y
	iny
	txa
	sta     (sp),y
	ldy     _level
	lda     _level_text_length,y
	ldy     #$00
	sta     (sp),y
	ldx     #$21
	lda     #$43
	jsr     _multi_vram_buffer_horz
;
; ppu_on_all();
;
	jmp     _ppu_on_all

.endproc

; ---------------------------------------------------------------
; void __near__ set_direction (void)
; ---------------------------------------------------------------

.segment	"CODE"

.proc	_set_direction: near

.segment	"CODE"

;
; local_up = PAD_UP;
;
	lda     #$08
	sta     _local_up
;
; local_down = PAD_DOWN;
;
	lda     #$04
	sta     _local_down
;
; local_left = PAD_LEFT;
;
	lda     #$02
	sta     _local_left
;
; local_right = PAD_RIGHT;
;
	lda     #$01
	sta     _local_right
;
; if(level == 2){
;
	lda     _level
	cmp     #$02
	bne     L0821
;
; local_up = PAD_LEFT;
;
	sta     _local_up
;
; local_down = PAD_RIGHT;
;
	lda     #$01
	sta     _local_down
;
; local_left = PAD_DOWN;
;
	lda     #$04
	sta     _local_left
;
; local_right = PAD_UP;
;
	lda     #$08
	sta     _local_right
;
; }
;
L0821:	rts

.endproc

; ---------------------------------------------------------------
; void __near__ draw_player_sprite (void)
; ---------------------------------------------------------------

.segment	"CODE"

.proc	_draw_player_sprite: near

.segment	"CODE"

;
; ++player_moved_frames;
;
	inc     _player_moved_frames
;
; if(player_moved_frames > 32){
;
	lda     _player_moved_frames
	cmp     #$21
	bcc     L08DC
;
; player_moved_frames = 0;
;
	lda     #$00
	sta     _player_moved_frames
;
; switch (BoxGuy1.direction)
;
L08DC:	lda     _BoxGuy1+4
;
; }
;
	beq     L0835
	cmp     #$01
	beq     L0852
	cmp     #$02
	jeq     L086F
	cmp     #$03
	jeq     L088C
	jmp     L08A8
;
; if(is_moving) {
;
L0835:	lda     _is_moving
	beq     L0836
;
; if(player_moved_frames < 8){
;
	lda     _player_moved_frames
	cmp     #$08
	bcs     L08DD
;
; pointer2 = perrywalkleft0_data;
;
	lda     #>(_perrywalkleft0_data)
	sta     _pointer2+1
	lda     #<(_perrywalkleft0_data)
;
; } else if(player_moved_frames < 16){
;
	jmp     L08D8
L08DD:	lda     _player_moved_frames
	cmp     #$10
	bcs     L08DE
;
; pointer2 = perrywalkleft1_data;
;
	lda     #>(_perrywalkleft1_data)
	sta     _pointer2+1
	lda     #<(_perrywalkleft1_data)
;
; } else if(player_moved_frames < 24) {
;
	jmp     L08D8
L08DE:	lda     _player_moved_frames
	cmp     #$18
	bcs     L08DF
;
; pointer2 = perrywalkleft2_data;
;
	lda     #>(_perrywalkleft2_data)
	sta     _pointer2+1
	lda     #<(_perrywalkleft2_data)
;
; } else if(player_moved_frames < 32) {
;
	jmp     L08D8
L08DF:	lda     _player_moved_frames
	cmp     #$20
	bcs     L0847
;
; pointer2 = perrywalkleft1_data;
;
	lda     #>(_perrywalkleft1_data)
	sta     _pointer2+1
	lda     #<(_perrywalkleft1_data)
;
; } else {
;
	jmp     L08D8
;
; pointer2 = perrywalkleft0_data;
;
L0847:	lda     #>(_perrywalkleft0_data)
	sta     _pointer2+1
	lda     #<(_perrywalkleft0_data)
;
; } else {
;
	jmp     L08D8
;
; pointer2 = perrystandleft_data;
;
L0836:	lda     #>(_perrystandleft_data)
	sta     _pointer2+1
	lda     #<(_perrystandleft_data)
;
; break;
;
	jmp     L08D8
;
; if(is_moving) {
;
L0852:	lda     _is_moving
	jeq     L08A8
;
; if(player_moved_frames < 8){
;
	lda     _player_moved_frames
	cmp     #$08
	bcs     L08E0
;
; pointer2 = perrywalkright0_data;
;
	lda     #>(_perrywalkright0_data)
	sta     _pointer2+1
	lda     #<(_perrywalkright0_data)
;
; } else if(player_moved_frames < 16){
;
	jmp     L08D8
L08E0:	lda     _player_moved_frames
	cmp     #$10
	bcs     L08E1
;
; pointer2 = perrywalkright1_data;
;
	lda     #>(_perrywalkright1_data)
	sta     _pointer2+1
	lda     #<(_perrywalkright1_data)
;
; } else if(player_moved_frames < 24) {
;
	jmp     L08D8
L08E1:	lda     _player_moved_frames
	cmp     #$18
	bcs     L08E2
;
; pointer2 = perrywalkright2_data;
;
	lda     #>(_perrywalkright2_data)
	sta     _pointer2+1
	lda     #<(_perrywalkright2_data)
;
; } else if(player_moved_frames < 32) {
;
	jmp     L08D8
L08E2:	lda     _player_moved_frames
	cmp     #$20
	bcs     L0864
;
; pointer2 = perrywalkright1_data;
;
	lda     #>(_perrywalkright1_data)
	sta     _pointer2+1
	lda     #<(_perrywalkright1_data)
;
; } else {
;
	jmp     L08D8
;
; pointer2 = perrywalkright0_data;
;
L0864:	lda     #>(_perrywalkright0_data)
	sta     _pointer2+1
	lda     #<(_perrywalkright0_data)
;
; } else {
;
	jmp     L08D8
;
; if(is_moving) {
;
L086F:	lda     _is_moving
	beq     L0870
;
; if(player_moved_frames < 8){
;
	lda     _player_moved_frames
	cmp     #$08
	bcs     L08E3
;
; pointer2 = perrywalkup0_data;
;
	lda     #>(_perrywalkup0_data)
	sta     _pointer2+1
	lda     #<(_perrywalkup0_data)
;
; } else if(player_moved_frames < 16){
;
	jmp     L08D8
L08E3:	lda     _player_moved_frames
	cmp     #$10
	bcs     L08E4
;
; pointer2 = perrywalkup1_data;
;
	lda     #>(_perrywalkup1_data)
	sta     _pointer2+1
	lda     #<(_perrywalkup1_data)
;
; } else if(player_moved_frames < 24) {
;
	jmp     L08D8
L08E4:	lda     _player_moved_frames
	cmp     #$18
	bcs     L08E5
;
; pointer2 = perrywalkup2_data;
;
	lda     #>(_perrywalkup2_data)
	sta     _pointer2+1
	lda     #<(_perrywalkup2_data)
;
; } else if(player_moved_frames < 32) {
;
	jmp     L08D8
L08E5:	lda     _player_moved_frames
	cmp     #$20
	bcs     L0881
;
; pointer2 = perrywalkup1_data;
;
	lda     #>(_perrywalkup1_data)
	sta     _pointer2+1
	lda     #<(_perrywalkup1_data)
;
; } else {
;
	jmp     L08D8
;
; pointer2 = perrywalkup0_data;
;
L0881:	lda     #>(_perrywalkup0_data)
	sta     _pointer2+1
	lda     #<(_perrywalkup0_data)
;
; } else {
;
	jmp     L08D8
;
; pointer2 = perrywalkup0_data;
;
L0870:	lda     #>(_perrywalkup0_data)
	sta     _pointer2+1
	lda     #<(_perrywalkup0_data)
;
; break;
;
	jmp     L08D8
;
; if(is_moving) {
;
L088C:	lda     _is_moving
	beq     L088D
;
; if(player_moved_frames < 8){
;
	lda     _player_moved_frames
	cmp     #$08
	bcs     L08E6
;
; pointer2 = perrywalkdown0_data;
;
	lda     #>(_perrywalkdown0_data)
	sta     _pointer2+1
	lda     #<(_perrywalkdown0_data)
;
; } else if(player_moved_frames < 16){
;
	jmp     L08D8
L08E6:	lda     _player_moved_frames
	cmp     #$10
	bcs     L08E7
;
; pointer2 = perrywalkdown1_data;
;
	lda     #>(_perrywalkdown1_data)
	sta     _pointer2+1
	lda     #<(_perrywalkdown1_data)
;
; } else if(player_moved_frames < 24) {
;
	jmp     L08D8
L08E7:	lda     _player_moved_frames
	cmp     #$18
	bcs     L08E8
;
; pointer2 = perrywalkdown2_data;
;
	lda     #>(_perrywalkdown2_data)
	sta     _pointer2+1
	lda     #<(_perrywalkdown2_data)
;
; } else if(player_moved_frames < 32) {
;
	jmp     L08D8
L08E8:	lda     _player_moved_frames
	cmp     #$20
	bcs     L089E
;
; pointer2 = perrywalkdown1_data;
;
	lda     #>(_perrywalkdown1_data)
	sta     _pointer2+1
	lda     #<(_perrywalkdown1_data)
;
; } else {
;
	jmp     L08D8
;
; pointer2 = perrywalkdown0_data;
;
L089E:	lda     #>(_perrywalkdown0_data)
	sta     _pointer2+1
	lda     #<(_perrywalkdown0_data)
;
; } else {
;
	jmp     L08D8
;
; pointer2 = perrywalkdown0_data;
;
L088D:	lda     #>(_perrywalkdown0_data)
	sta     _pointer2+1
	lda     #<(_perrywalkdown0_data)
;
; break;
;
	jmp     L08D8
;
; pointer2 = perrystandright_data;
;
L08A8:	lda     #>(_perrystandright_data)
	sta     _pointer2+1
	lda     #<(_perrystandright_data)
L08D8:	sta     _pointer2
;
; oam_meta_spr(BoxGuy1.X, BoxGuy1.Y, pointer2);
;
	jsr     decsp2
	lda     _BoxGuy1
	ldy     #$01
	sta     (sp),y
	lda     _BoxGuy1+1
	dey
	sta     (sp),y
	lda     _pointer2
	ldx     _pointer2+1
	jmp     _oam_meta_spr

.endproc

; ---------------------------------------------------------------
; void __near__ main (void)
; ---------------------------------------------------------------

.segment	"CODE"

.proc	_main: near

.segment	"CODE"

;
; ppu_off(); // screen off
;
	jsr     _ppu_off
;
; pal_bg(palette_bg);
;
	lda     #<(_palette_bg)
	ldx     #>(_palette_bg)
	jsr     _pal_bg
;
; pal_spr(palette_sp);  
;
	lda     #<(_palette_sp)
	ldx     #>(_palette_sp)
	jsr     _pal_spr
;
; bank_spr(1);
;
	lda     #$01
	jsr     _bank_spr
;
; set_scroll_y(0xff); // shift the bg down 1 pixel
;
	ldx     #$00
	lda     #$FF
	jsr     _set_scroll_y
;
; set_vram_buffer();
;
	jsr     _set_vram_buffer
;
; ppu_wait_nmi();
;
	jsr     _ppu_wait_nmi
;
; ppu_off();
;
	jsr     _ppu_off
;
; multi_vram_buffer_horz("Feral Perry's", 13, NTADR_A(9,10));
;
	jsr     decsp3
	lda     #<(L067B)
	ldy     #$01
	sta     (sp),y
	iny
	lda     #>(L067B)
	sta     (sp),y
	lda     #$0D
	ldy     #$00
	sta     (sp),y
	ldx     #$21
	lda     #$49
	jsr     _multi_vram_buffer_horz
;
; multi_vram_buffer_horz("Peripheral Palace", 17, NTADR_A(7,12));
;
	jsr     decsp3
	lda     #<(L0685)
	ldy     #$01
	sta     (sp),y
	iny
	lda     #>(L0685)
	sta     (sp),y
	lda     #$11
	ldy     #$00
	sta     (sp),y
	ldx     #$21
	lda     #$87
	jsr     _multi_vram_buffer_horz
;
; ppu_on_all();
;
	jsr     _ppu_on_all
;
; game_mode = MODE_TITLE;
;
L08F4:	lda     #$00
L08EB:	sta     _game_mode
;
; if (game_mode == MODE_TITLE)
;
L08ED:	lda     _game_mode
	bne     L08EE
;
; ppu_wait_nmi();
;
	jsr     _ppu_wait_nmi
;
; pad1 = pad_poll(0);
;
	lda     #$00
	jsr     _pad_poll
	sta     _pad1
;
; pad1_new = get_pad_new(0);
;
	lda     #$00
	jsr     _get_pad_new
	sta     _pad1_new
;
; if (pad1_new & PAD_START)
;
	and     #$10
	beq     L08ED
;
; level = 0; //debug this value
;
	lda     #$00
	sta     _level
;
; init_level_text();
;
	jsr     _init_level_text
;
; game_mode = MODE_LEVEL_TITLE;
;
	lda     #$05
;
; else if (game_mode == MODE_GAME_OVER)
;
	jmp     L08EB
L08EE:	lda     _game_mode
	cmp     #$07
	bne     L08EF
;
; ppu_wait_nmi();
;
	jsr     _ppu_wait_nmi
;
; pad1 = pad_poll(0);
;
	lda     #$00
	jsr     _pad_poll
	sta     _pad1
;
; pad1_new = get_pad_new(0);
;
	lda     #$00
	jsr     _get_pad_new
	sta     _pad1_new
;
; if (pad1_new & PAD_START)
;
	and     #$10
	beq     L08ED
;
; game_mode = MODE_GAME;
;
	lda     #$01
;
; else if (game_mode == MODE_LEVEL_SELECT)
;
	jmp     L08EB
L08EF:	lda     _game_mode
	cmp     #$06
	bne     L08F0
;
; ppu_wait_nmi();
;
	jsr     _ppu_wait_nmi
;
; pad1 = pad_poll(0);
;
	lda     #$00
	jsr     _pad_poll
	sta     _pad1
;
; pad1_new = get_pad_new(0);
;
	lda     #$00
	jsr     _get_pad_new
	sta     _pad1_new
;
; if (pad1_new & PAD_START)
;
	and     #$10
	beq     L08ED
;
; game_mode = MODE_GAME;
;
	lda     #$01
;
; else if (game_mode == MODE_LEVEL_TITLE)
;
	jmp     L08EB
L08F0:	lda     _game_mode
	cmp     #$05
	bne     L08F1
;
; oam_clear();
;
	jsr     _oam_clear
;
; ppu_wait_nmi();
;
	jsr     _ppu_wait_nmi
;
; pad1 = pad_poll(0);
;
	lda     #$00
	jsr     _pad_poll
	sta     _pad1
;
; pad1_new = get_pad_new(0);
;
	lda     #$00
	jsr     _get_pad_new
	sta     _pad1_new
;
; if (pad1_new & PAD_START)
;
	and     #$10
	jeq     L08ED
;
; game_mode = MODE_GAME;
;
	lda     #$01
	sta     _game_mode
;
; draw_bg(); 
;
	jsr     _draw_bg
;
; set_direction();
;
	jsr     _set_direction
;
; else if (game_mode == MODE_GAME)
;
	jmp     L08ED
L08F1:	lda     _game_mode
	cmp     #$01
	jne     L08F4
;
; ppu_wait_nmi();
;
	jsr     _ppu_wait_nmi
;
; if(level == 3){
;
	lda     _level
	cmp     #$03
	bne     L06D6
;
; pad1 = pad_poll(1);     // read the first controller
;
	lda     #$01
	jsr     _pad_poll
	sta     _pad1
;
; pad1_new = get_pad_new(1); // newly pressed button. do pad_poll first
;
	lda     #$01
;
; } else {
;
	jmp     L08F3
;
; pad1 = pad_poll(0);     // read the first controller
;
L06D6:	lda     #$00
	jsr     _pad_poll
	sta     _pad1
;
; pad1_new = get_pad_new(0); // newly pressed button. do pad_poll first
;
	lda     #$00
L08F3:	jsr     _get_pad_new
	sta     _pad1_new
;
; movement();
;
	jsr     _movement
;
; sprite_collision();
;
	jsr     _sprite_collision
;
; draw_sprites();
;
	jsr     _draw_sprites
;
; check_start();
;
	jsr     _check_start
;
; else
;
	jmp     L08ED

.endproc

