;
; File generated by cc65 v 2.18 - N/A
;
	.fopt		compiler,"cc65 v 2.18 - N/A"
	.setcpu		"6502"
	.smart		on
	.autoimport	on
	.case		on
	.debuginfo	off
	.importzp	sp, sreg, regsave, regbank
	.importzp	tmp1, tmp2, tmp3, tmp4, ptr1, ptr2, ptr3, ptr4
	.macpack	longbranch
	.forceimport	__STARTUP__
	.import		_pal_bg
	.import		_pal_spr
	.import		_ppu_wait_nmi
	.import		_ppu_off
	.import		_ppu_on_all
	.import		_ppu_mask
	.import		_oam_clear
	.import		_oam_meta_spr
	.import		_pad_poll
	.import		_bank_spr
	.import		_memcpy
	.import		_zap_shoot
	.import		_zap_read
	.import		_read_powerpad
	.import		_set_vram_buffer
	.import		_one_vram_buffer
	.import		_multi_vram_buffer_horz
	.import		_clear_vram_buffer
	.import		_get_pad_new
	.import		_pal_fade_to
	.import		_set_scroll_x
	.import		_set_scroll_y
	.import		_get_ppu_addr
	.import		_set_data_pointer
	.import		_set_mt_pointer
	.import		_buffer_4_mt
	.import		_flush_vram_update2
	.export		_perrystandright_data
	.export		_perrystandleft_data
	.export		_perrywalkright0_data
	.export		_perrywalkright1_data
	.export		_perrywalkright2_data
	.export		_perrywalkleft0_data
	.export		_perrywalkleft1_data
	.export		_perrywalkleft2_data
	.export		_perrywalkdown0_data
	.export		_perrywalkdown1_data
	.export		_perrywalkdown2_data
	.export		_perrywalkup0_data
	.export		_perrywalkup1_data
	.export		_perrywalkup2_data
	.export		_nudeman_data
	.export		_Duck_data
	.export		_switchleft_data
	.export		_switchright_data
	.export		_lighton_data
	.export		_lightoff_data
	.export		_rock_data
	.export		_perryflag0_data
	.export		_perryflag1_data
	.export		_perryflag2_data
	.export		_blankflag0_data
	.export		_blankflag1_data
	.export		_blankflag2_data
	.export		_flagpole_data
	.export		_flagpolelong_data
	.export		_tailwag0_data
	.export		_tailwag1_data
	.export		_tailwag2_data
	.export		_tonguewag0_data
	.export		_tonguewag1_data
	.export		_tonguewag2_data
	.export		_eyewag0_data
	.export		_eyewag1_data
	.export		_eyewag2_data
	.export		_eyewag3_data
	.export		_perryshrink0_data
	.export		_perryshrink1_data
	.export		_perryshrink2_data
	.export		_floateyes0_data
	.export		_floateyes1_data
	.export		_floateyes2_data
	.export		_bigdoor0_data
	.export		_bigdoor1_data
	.export		_bigdoor2_data
	.export		_bigdoor3_data
	.export		_bigdoor4_data
	.export		_bigdoor5_data
	.export		_bigdoor6_data
	.export		_bigdoor7_data
	.export		_gamepad_data
	.export		_advantage_data
	.export		_powerpad_data
	.export		_zapper_data
	.export		_arrowdown0_data
	.export		_arrowdown1_data
	.export		_arrowup0_data
	.export		_arrowup1_data
	.export		_arrowright0_data
	.export		_arrowright1_data
	.export		_arrowleft_data
	.export		_arrowleft1_data
	.export		_button0_data
	.export		_button1_data
	.export		_widebutton0_data
	.export		_widebutton0__1_data
	.export		_mower0_data
	.export		_mower1_data
	.export		_buddywalkeft0_data
	.export		_buddywalkleft1_data
	.export		_buddywalkeft0__1_data
	.export		_buddywalkleft1__1_data
	.export		_buddywalkdown0_data
	.export		_buddywalkdown1_data
	.export		_unnamed_data
	.export		_unnamed__3_data
	.export		_lock_data
	.export		_pitopen0_data
	.export		_pitopen1_data
	.export		_pitopen2_data
	.export		_pitopen3_data
	.export		_White_duck_data
	.export		_pad2_zapper
	.export		_zapper_ready
	.export		_hit_detected
	.export		_powerpad_cur
	.export		_powerpad_old
	.export		_powerpad_new
	.export		_nametable_to_use
	.export		_pad1
	.export		_pad1_new
	.export		_pad2
	.export		_pad2_new
	.export		_collision
	.export		_collision_L
	.export		_collision_R
	.export		_collision_U
	.export		_collision_D
	.export		_collision2
	.export		_level
	.export		_p_maps
	.export		_coordinates
	.export		_temp1
	.export		_temp2
	.export		_temp3
	.export		_temp4
	.export		_temp_x
	.export		_temp_y
	.export		_game_mode
	.export		_show_text
	.export		_has_moved
	.export		_is_moving
	.export		_player_moved_frames
	.export		_frame_count
	.export		_frame_count2
	.export		_frame_count3
	.export		_frame_count4
	.export		_duck_exists
	.export		_scroll_x
	.export		_flag_a_pos
	.export		_flag_b_pos
	.export		_flag_a
	.export		_flag_b
	.export		_turbo_a_rate
	.export		_turbo_b_rate
	.export		_last_turbo_a_rate
	.export		_last_turbo_b_rate
	.export		_local_left
	.export		_local_right
	.export		_local_up
	.export		_local_down
	.export		_pointer2
	.export		_Generic
	.export		_Generic2
	.export		_address
	.export		_x
	.export		_y
	.export		_index
	.export		_index2
	.export		_c_map
	.export		_BoxGuy1
	.export		_level1_0
	.export		_level2_0
	.export		_level3_0
	.export		_level4_0
	.export		_level5_0
	.export		_level6_0
	.export		_level7_0
	.export		_level8_0
	.export		_level9_0
	.export		_level10_0
	.export		_level11_0
	.export		_level12_0
	.export		_level13_0
	.export		_level14_0
	.export		_level15_0
	.export		_level16_0
	.export		_level17_0
	.export		_bigperry_0
	.export		_Level_List
	.export		_level_text
	.export		_level_text_length
	.export		_level_player_x
	.export		_level_player_y
	.export		_palette_perrypuzzlesprites_a
	.export		_palette_perrytileset_a
	.export		_title_bg_palette
	.export		_metatile_colision_map
	.export		_draw_bg
	.export		_draw_sprites
	.export		_movement
	.export		_bg_collision
	.export		_sprite_collision
	.export		_level_up
	.export		_init_level
	.export		_set_direction
	.export		_draw_player_sprite
	.export		_init_mode_title
	.export		_title_cutscene
	.export		_init_mode_level_end
	.export		_draw_shootable_box
	.export		_process_powerpad
	.export		_perrytiles
	.export		_titletiles
	.export		_main
	.export		_title_0

.segment	"DATA"

_index:
	.byte	$00
_BoxGuy1:
	.byte	$40
	.byte	$50
	.byte	$0C
	.byte	$0C
	.byte	$00

.segment	"RODATA"

_perrystandright_data:
	.byte	$07
	.byte	$02
	.byte	$30
	.byte	$00
	.byte	$00
	.byte	$00
	.byte	$40
	.byte	$01
	.byte	$08
	.byte	$00
	.byte	$41
	.byte	$01
	.byte	$00
	.byte	$08
	.byte	$50
	.byte	$01
	.byte	$08
	.byte	$08
	.byte	$51
	.byte	$01
	.byte	$80
_perrystandleft_data:
	.byte	$01
	.byte	$02
	.byte	$30
	.byte	$40
	.byte	$00
	.byte	$00
	.byte	$41
	.byte	$41
	.byte	$08
	.byte	$00
	.byte	$40
	.byte	$41
	.byte	$08
	.byte	$08
	.byte	$50
	.byte	$41
	.byte	$00
	.byte	$08
	.byte	$51
	.byte	$41
	.byte	$80
_perrywalkright0_data:
	.byte	$07
	.byte	$02
	.byte	$30
	.byte	$00
	.byte	$00
	.byte	$00
	.byte	$40
	.byte	$01
	.byte	$08
	.byte	$00
	.byte	$41
	.byte	$01
	.byte	$00
	.byte	$08
	.byte	$54
	.byte	$01
	.byte	$08
	.byte	$08
	.byte	$55
	.byte	$01
	.byte	$80
_perrywalkright1_data:
	.byte	$07
	.byte	$02
	.byte	$30
	.byte	$00
	.byte	$00
	.byte	$00
	.byte	$40
	.byte	$01
	.byte	$08
	.byte	$00
	.byte	$41
	.byte	$01
	.byte	$00
	.byte	$08
	.byte	$52
	.byte	$01
	.byte	$08
	.byte	$08
	.byte	$53
	.byte	$01
	.byte	$80
_perrywalkright2_data:
	.byte	$07
	.byte	$02
	.byte	$30
	.byte	$00
	.byte	$00
	.byte	$00
	.byte	$40
	.byte	$01
	.byte	$08
	.byte	$00
	.byte	$41
	.byte	$01
	.byte	$00
	.byte	$08
	.byte	$56
	.byte	$01
	.byte	$08
	.byte	$08
	.byte	$57
	.byte	$01
	.byte	$80
_perrywalkleft0_data:
	.byte	$01
	.byte	$02
	.byte	$30
	.byte	$40
	.byte	$08
	.byte	$00
	.byte	$40
	.byte	$41
	.byte	$00
	.byte	$00
	.byte	$41
	.byte	$41
	.byte	$08
	.byte	$08
	.byte	$54
	.byte	$41
	.byte	$00
	.byte	$08
	.byte	$55
	.byte	$41
	.byte	$80
_perrywalkleft1_data:
	.byte	$01
	.byte	$02
	.byte	$30
	.byte	$40
	.byte	$08
	.byte	$00
	.byte	$40
	.byte	$41
	.byte	$00
	.byte	$00
	.byte	$41
	.byte	$41
	.byte	$08
	.byte	$08
	.byte	$52
	.byte	$41
	.byte	$00
	.byte	$08
	.byte	$53
	.byte	$41
	.byte	$80
_perrywalkleft2_data:
	.byte	$01
	.byte	$02
	.byte	$30
	.byte	$40
	.byte	$08
	.byte	$00
	.byte	$40
	.byte	$41
	.byte	$00
	.byte	$00
	.byte	$41
	.byte	$41
	.byte	$08
	.byte	$08
	.byte	$56
	.byte	$41
	.byte	$00
	.byte	$08
	.byte	$57
	.byte	$41
	.byte	$80
_perrywalkdown0_data:
	.byte	$02
	.byte	$02
	.byte	$31
	.byte	$00
	.byte	$00
	.byte	$00
	.byte	$60
	.byte	$01
	.byte	$08
	.byte	$00
	.byte	$61
	.byte	$01
	.byte	$00
	.byte	$08
	.byte	$72
	.byte	$01
	.byte	$08
	.byte	$08
	.byte	$73
	.byte	$01
	.byte	$80
_perrywalkdown1_data:
	.byte	$02
	.byte	$02
	.byte	$31
	.byte	$00
	.byte	$00
	.byte	$00
	.byte	$60
	.byte	$01
	.byte	$08
	.byte	$00
	.byte	$61
	.byte	$01
	.byte	$00
	.byte	$08
	.byte	$70
	.byte	$01
	.byte	$08
	.byte	$08
	.byte	$71
	.byte	$01
	.byte	$80
_perrywalkdown2_data:
	.byte	$02
	.byte	$02
	.byte	$31
	.byte	$00
	.byte	$00
	.byte	$00
	.byte	$60
	.byte	$01
	.byte	$08
	.byte	$00
	.byte	$61
	.byte	$01
	.byte	$00
	.byte	$08
	.byte	$74
	.byte	$01
	.byte	$08
	.byte	$08
	.byte	$75
	.byte	$01
	.byte	$80
_perrywalkup0_data:
	.byte	$00
	.byte	$00
	.byte	$80
	.byte	$01
	.byte	$08
	.byte	$00
	.byte	$81
	.byte	$01
	.byte	$00
	.byte	$08
	.byte	$90
	.byte	$01
	.byte	$08
	.byte	$08
	.byte	$93
	.byte	$01
	.byte	$80
_perrywalkup1_data:
	.byte	$00
	.byte	$00
	.byte	$80
	.byte	$01
	.byte	$08
	.byte	$00
	.byte	$81
	.byte	$01
	.byte	$00
	.byte	$08
	.byte	$90
	.byte	$01
	.byte	$08
	.byte	$08
	.byte	$91
	.byte	$01
	.byte	$80
_perrywalkup2_data:
	.byte	$00
	.byte	$00
	.byte	$80
	.byte	$01
	.byte	$08
	.byte	$00
	.byte	$81
	.byte	$01
	.byte	$00
	.byte	$08
	.byte	$92
	.byte	$01
	.byte	$08
	.byte	$08
	.byte	$91
	.byte	$01
	.byte	$80
_nudeman_data:
	.byte	$08
	.byte	$00
	.byte	$0D
	.byte	$01
	.byte	$10
	.byte	$00
	.byte	$0E
	.byte	$01
	.byte	$10
	.byte	$00
	.byte	$0F
	.byte	$01
	.byte	$08
	.byte	$08
	.byte	$1D
	.byte	$01
	.byte	$10
	.byte	$08
	.byte	$1E
	.byte	$01
	.byte	$10
	.byte	$08
	.byte	$1F
	.byte	$01
	.byte	$10
	.byte	$10
	.byte	$2E
	.byte	$01
	.byte	$18
	.byte	$10
	.byte	$2F
	.byte	$01
	.byte	$10
	.byte	$18
	.byte	$3E
	.byte	$01
	.byte	$10
	.byte	$18
	.byte	$3F
	.byte	$01
	.byte	$10
	.byte	$20
	.byte	$4E
	.byte	$01
	.byte	$18
	.byte	$20
	.byte	$4F
	.byte	$01
	.byte	$18
	.byte	$18
	.byte	$3F
	.byte	$01
	.byte	$08
	.byte	$10
	.byte	$2D
	.byte	$01
	.byte	$00
	.byte	$10
	.byte	$2C
	.byte	$01
	.byte	$00
	.byte	$08
	.byte	$1C
	.byte	$01
	.byte	$00
	.byte	$00
	.byte	$0C
	.byte	$01
	.byte	$08
	.byte	$18
	.byte	$3D
	.byte	$01
	.byte	$08
	.byte	$20
	.byte	$4D
	.byte	$01
	.byte	$08
	.byte	$28
	.byte	$5D
	.byte	$01
	.byte	$10
	.byte	$28
	.byte	$5E
	.byte	$01
	.byte	$08
	.byte	$30
	.byte	$6D
	.byte	$01
	.byte	$10
	.byte	$30
	.byte	$6E
	.byte	$01
	.byte	$18
	.byte	$30
	.byte	$6F
	.byte	$01
	.byte	$18
	.byte	$38
	.byte	$7F
	.byte	$01
	.byte	$10
	.byte	$38
	.byte	$7E
	.byte	$01
	.byte	$08
	.byte	$38
	.byte	$7D
	.byte	$01
	.byte	$00
	.byte	$38
	.byte	$7C
	.byte	$01
	.byte	$00
	.byte	$30
	.byte	$6C
	.byte	$01
	.byte	$80
_Duck_data:
	.byte	$08
	.byte	$00
	.byte	$BD
	.byte	$01
	.byte	$10
	.byte	$00
	.byte	$BE
	.byte	$01
	.byte	$08
	.byte	$08
	.byte	$CD
	.byte	$01
	.byte	$10
	.byte	$08
	.byte	$CE
	.byte	$01
	.byte	$18
	.byte	$08
	.byte	$CF
	.byte	$01
	.byte	$18
	.byte	$10
	.byte	$DF
	.byte	$01
	.byte	$10
	.byte	$10
	.byte	$DE
	.byte	$01
	.byte	$08
	.byte	$10
	.byte	$DD
	.byte	$01
	.byte	$00
	.byte	$10
	.byte	$DC
	.byte	$01
	.byte	$00
	.byte	$08
	.byte	$CC
	.byte	$01
	.byte	$00
	.byte	$18
	.byte	$EC
	.byte	$01
	.byte	$08
	.byte	$18
	.byte	$ED
	.byte	$01
	.byte	$10
	.byte	$18
	.byte	$EE
	.byte	$01
	.byte	$18
	.byte	$18
	.byte	$EF
	.byte	$01
	.byte	$18
	.byte	$20
	.byte	$FF
	.byte	$01
	.byte	$10
	.byte	$20
	.byte	$FE
	.byte	$01
	.byte	$08
	.byte	$20
	.byte	$FD
	.byte	$01
	.byte	$00
	.byte	$20
	.byte	$FC
	.byte	$01
	.byte	$80
_switchleft_data:
	.byte	$00
	.byte	$00
	.byte	$C0
	.byte	$00
	.byte	$00
	.byte	$08
	.byte	$D0
	.byte	$00
	.byte	$08
	.byte	$08
	.byte	$D1
	.byte	$00
	.byte	$80
_switchright_data:
	.byte	$08
	.byte	$00
	.byte	$C0
	.byte	$40
	.byte	$08
	.byte	$08
	.byte	$D0
	.byte	$40
	.byte	$00
	.byte	$08
	.byte	$D1
	.byte	$40
	.byte	$80
_lighton_data:
	.byte	$00
	.byte	$00
	.byte	$A2
	.byte	$00
	.byte	$08
	.byte	$00
	.byte	$A3
	.byte	$00
	.byte	$00
	.byte	$08
	.byte	$B2
	.byte	$00
	.byte	$08
	.byte	$08
	.byte	$B3
	.byte	$00
	.byte	$80
_lightoff_data:
	.byte	$00
	.byte	$00
	.byte	$C2
	.byte	$00
	.byte	$08
	.byte	$00
	.byte	$C3
	.byte	$00
	.byte	$00
	.byte	$08
	.byte	$D2
	.byte	$00
	.byte	$08
	.byte	$08
	.byte	$D3
	.byte	$00
	.byte	$80
_rock_data:
	.byte	$00
	.byte	$00
	.byte	$E0
	.byte	$02
	.byte	$08
	.byte	$00
	.byte	$E1
	.byte	$02
	.byte	$00
	.byte	$08
	.byte	$F0
	.byte	$02
	.byte	$08
	.byte	$08
	.byte	$F1
	.byte	$02
	.byte	$80
_perryflag0_data:
	.byte	$00
	.byte	$00
	.byte	$04
	.byte	$00
	.byte	$80
_perryflag1_data:
	.byte	$00
	.byte	$00
	.byte	$05
	.byte	$00
	.byte	$80
_perryflag2_data:
	.byte	$00
	.byte	$00
	.byte	$06
	.byte	$00
	.byte	$80
_blankflag0_data:
	.byte	$00
	.byte	$00
	.byte	$07
	.byte	$00
	.byte	$80
_blankflag1_data:
	.byte	$00
	.byte	$00
	.byte	$08
	.byte	$00
	.byte	$80
_blankflag2_data:
	.byte	$00
	.byte	$00
	.byte	$09
	.byte	$00
	.byte	$80
_flagpole_data:
	.byte	$03
	.byte	$00
	.byte	$14
	.byte	$00
	.byte	$80
_flagpolelong_data:
	.byte	$03
	.byte	$00
	.byte	$14
	.byte	$00
	.byte	$03
	.byte	$08
	.byte	$14
	.byte	$00
	.byte	$03
	.byte	$F8
	.byte	$14
	.byte	$00
	.byte	$03
	.byte	$F0
	.byte	$14
	.byte	$00
	.byte	$03
	.byte	$10
	.byte	$14
	.byte	$00
	.byte	$03
	.byte	$18
	.byte	$14
	.byte	$00
	.byte	$03
	.byte	$E8
	.byte	$14
	.byte	$00
	.byte	$03
	.byte	$E0
	.byte	$14
	.byte	$00
	.byte	$03
	.byte	$D8
	.byte	$14
	.byte	$00
	.byte	$03
	.byte	$D0
	.byte	$14
	.byte	$00
	.byte	$03
	.byte	$20
	.byte	$14
	.byte	$00
	.byte	$03
	.byte	$28
	.byte	$14
	.byte	$00
	.byte	$03
	.byte	$C8
	.byte	$14
	.byte	$00
	.byte	$03
	.byte	$30
	.byte	$14
	.byte	$00
	.byte	$03
	.byte	$C0
	.byte	$14
	.byte	$00
	.byte	$80
_tailwag0_data:
	.byte	$00
	.byte	$00
	.byte	$15
	.byte	$01
	.byte	$80
_tailwag1_data:
	.byte	$00
	.byte	$00
	.byte	$16
	.byte	$01
	.byte	$80
_tailwag2_data:
	.byte	$00
	.byte	$00
	.byte	$15
	.byte	$41
	.byte	$80
_tonguewag0_data:
	.byte	$00
	.byte	$00
	.byte	$11
	.byte	$00
	.byte	$80
_tonguewag1_data:
	.byte	$00
	.byte	$00
	.byte	$12
	.byte	$00
	.byte	$80
_tonguewag2_data:
	.byte	$00
	.byte	$00
	.byte	$13
	.byte	$00
	.byte	$80
_eyewag0_data:
	.byte	$00
	.byte	$00
	.byte	$20
	.byte	$00
	.byte	$08
	.byte	$00
	.byte	$20
	.byte	$00
	.byte	$80
_eyewag1_data:
	.byte	$00
	.byte	$00
	.byte	$23
	.byte	$01
	.byte	$08
	.byte	$00
	.byte	$23
	.byte	$01
	.byte	$00
	.byte	$00
	.byte	$20
	.byte	$00
	.byte	$08
	.byte	$00
	.byte	$20
	.byte	$00
	.byte	$80
_eyewag2_data:
	.byte	$00
	.byte	$00
	.byte	$22
	.byte	$01
	.byte	$08
	.byte	$00
	.byte	$22
	.byte	$01
	.byte	$00
	.byte	$00
	.byte	$20
	.byte	$00
	.byte	$08
	.byte	$00
	.byte	$20
	.byte	$00
	.byte	$80
_eyewag3_data:
	.byte	$00
	.byte	$00
	.byte	$21
	.byte	$01
	.byte	$08
	.byte	$00
	.byte	$21
	.byte	$01
	.byte	$80
_perryshrink0_data:
	.byte	$04
	.byte	$02
	.byte	$32
	.byte	$01
	.byte	$04
	.byte	$0A
	.byte	$42
	.byte	$01
	.byte	$80
_perryshrink1_data:
	.byte	$06
	.byte	$04
	.byte	$33
	.byte	$01
	.byte	$80
_perryshrink2_data:
	.byte	$06
	.byte	$04
	.byte	$34
	.byte	$01
	.byte	$80
_floateyes0_data:
	.byte	$FF
	.byte	$00
	.byte	$35
	.byte	$00
	.byte	$00
	.byte	$00
	.byte	$43
	.byte	$01
	.byte	$80
_floateyes1_data:
	.byte	$FF
	.byte	$00
	.byte	$35
	.byte	$00
	.byte	$00
	.byte	$00
	.byte	$44
	.byte	$01
	.byte	$80
_floateyes2_data:
	.byte	$FF
	.byte	$00
	.byte	$35
	.byte	$00
	.byte	$00
	.byte	$00
	.byte	$45
	.byte	$01
	.byte	$80
_bigdoor0_data:
	.byte	$00
	.byte	$00
	.byte	$A4
	.byte	$00
	.byte	$80
_bigdoor1_data:
	.byte	$FF
	.byte	$FA
	.byte	$94
	.byte	$00
	.byte	$07
	.byte	$FA
	.byte	$95
	.byte	$00
	.byte	$FF
	.byte	$02
	.byte	$02
	.byte	$00
	.byte	$07
	.byte	$02
	.byte	$A5
	.byte	$00
	.byte	$80
_bigdoor2_data:
	.byte	$FC
	.byte	$FC
	.byte	$96
	.byte	$00
	.byte	$04
	.byte	$FC
	.byte	$96
	.byte	$40
	.byte	$FE
	.byte	$04
	.byte	$02
	.byte	$00
	.byte	$02
	.byte	$04
	.byte	$02
	.byte	$00
	.byte	$80
_bigdoor3_data:
	.byte	$FC
	.byte	$06
	.byte	$02
	.byte	$00
	.byte	$04
	.byte	$06
	.byte	$02
	.byte	$00
	.byte	$FC
	.byte	$FE
	.byte	$02
	.byte	$00
	.byte	$04
	.byte	$FE
	.byte	$02
	.byte	$00
	.byte	$FC
	.byte	$F6
	.byte	$A6
	.byte	$00
	.byte	$04
	.byte	$F6
	.byte	$A6
	.byte	$40
	.byte	$80
_bigdoor4_data:
	.byte	$FA
	.byte	$08
	.byte	$02
	.byte	$00
	.byte	$06
	.byte	$08
	.byte	$02
	.byte	$00
	.byte	$FA
	.byte	$00
	.byte	$02
	.byte	$00
	.byte	$06
	.byte	$00
	.byte	$02
	.byte	$00
	.byte	$FD
	.byte	$F4
	.byte	$A6
	.byte	$00
	.byte	$04
	.byte	$F5
	.byte	$96
	.byte	$40
	.byte	$00
	.byte	$08
	.byte	$02
	.byte	$00
	.byte	$01
	.byte	$00
	.byte	$02
	.byte	$00
	.byte	$F9
	.byte	$F5
	.byte	$96
	.byte	$00
	.byte	$07
	.byte	$F5
	.byte	$96
	.byte	$40
	.byte	$00
	.byte	$F8
	.byte	$02
	.byte	$00
	.byte	$FA
	.byte	$FC
	.byte	$02
	.byte	$00
	.byte	$06
	.byte	$FC
	.byte	$02
	.byte	$00
	.byte	$FE
	.byte	$EF
	.byte	$94
	.byte	$00
	.byte	$06
	.byte	$F4
	.byte	$A5
	.byte	$00
	.byte	$08
	.byte	$EF
	.byte	$95
	.byte	$00
	.byte	$80
_bigdoor5_data:
	.byte	$F8
	.byte	$0A
	.byte	$02
	.byte	$00
	.byte	$08
	.byte	$0A
	.byte	$02
	.byte	$00
	.byte	$F8
	.byte	$02
	.byte	$02
	.byte	$00
	.byte	$08
	.byte	$02
	.byte	$02
	.byte	$00
	.byte	$00
	.byte	$0A
	.byte	$02
	.byte	$00
	.byte	$00
	.byte	$02
	.byte	$02
	.byte	$00
	.byte	$00
	.byte	$FC
	.byte	$02
	.byte	$00
	.byte	$F8
	.byte	$FC
	.byte	$02
	.byte	$00
	.byte	$08
	.byte	$FC
	.byte	$02
	.byte	$00
	.byte	$FF
	.byte	$F5
	.byte	$02
	.byte	$00
	.byte	$F7
	.byte	$F4
	.byte	$96
	.byte	$00
	.byte	$09
	.byte	$F4
	.byte	$96
	.byte	$40
	.byte	$03
	.byte	$F5
	.byte	$02
	.byte	$00
	.byte	$FB
	.byte	$F0
	.byte	$A6
	.byte	$00
	.byte	$05
	.byte	$F0
	.byte	$A6
	.byte	$40
	.byte	$00
	.byte	$F2
	.byte	$02
	.byte	$00
	.byte	$80
_bigdoor6_data:
	.byte	$F6
	.byte	$0C
	.byte	$02
	.byte	$00
	.byte	$0A
	.byte	$0C
	.byte	$02
	.byte	$00
	.byte	$F6
	.byte	$04
	.byte	$02
	.byte	$00
	.byte	$0A
	.byte	$04
	.byte	$02
	.byte	$00
	.byte	$FD
	.byte	$0C
	.byte	$02
	.byte	$00
	.byte	$03
	.byte	$FC
	.byte	$02
	.byte	$00
	.byte	$FD
	.byte	$04
	.byte	$02
	.byte	$00
	.byte	$FE
	.byte	$FC
	.byte	$02
	.byte	$00
	.byte	$F6
	.byte	$FC
	.byte	$02
	.byte	$00
	.byte	$04
	.byte	$F4
	.byte	$02
	.byte	$00
	.byte	$0A
	.byte	$FC
	.byte	$02
	.byte	$00
	.byte	$0B
	.byte	$F4
	.byte	$96
	.byte	$40
	.byte	$FD
	.byte	$F4
	.byte	$02
	.byte	$00
	.byte	$F5
	.byte	$F4
	.byte	$96
	.byte	$00
	.byte	$F7
	.byte	$F0
	.byte	$96
	.byte	$00
	.byte	$09
	.byte	$F0
	.byte	$96
	.byte	$40
	.byte	$FE
	.byte	$F0
	.byte	$02
	.byte	$00
	.byte	$03
	.byte	$0C
	.byte	$02
	.byte	$00
	.byte	$04
	.byte	$04
	.byte	$02
	.byte	$00
	.byte	$02
	.byte	$F0
	.byte	$02
	.byte	$00
	.byte	$80
_bigdoor7_data:
	.byte	$F4
	.byte	$0E
	.byte	$02
	.byte	$00
	.byte	$0C
	.byte	$0E
	.byte	$02
	.byte	$00
	.byte	$F4
	.byte	$06
	.byte	$02
	.byte	$00
	.byte	$0C
	.byte	$06
	.byte	$02
	.byte	$00
	.byte	$FC
	.byte	$0E
	.byte	$02
	.byte	$00
	.byte	$FC
	.byte	$06
	.byte	$02
	.byte	$00
	.byte	$FC
	.byte	$FE
	.byte	$02
	.byte	$00
	.byte	$F4
	.byte	$FE
	.byte	$02
	.byte	$00
	.byte	$0C
	.byte	$FE
	.byte	$02
	.byte	$00
	.byte	$04
	.byte	$FE
	.byte	$02
	.byte	$00
	.byte	$0B
	.byte	$FA
	.byte	$02
	.byte	$00
	.byte	$F7
	.byte	$EE
	.byte	$96
	.byte	$00
	.byte	$09
	.byte	$EE
	.byte	$96
	.byte	$40
	.byte	$FE
	.byte	$EE
	.byte	$02
	.byte	$00
	.byte	$0C
	.byte	$F2
	.byte	$96
	.byte	$40
	.byte	$04
	.byte	$0E
	.byte	$02
	.byte	$00
	.byte	$04
	.byte	$06
	.byte	$02
	.byte	$00
	.byte	$F5
	.byte	$FA
	.byte	$02
	.byte	$00
	.byte	$02
	.byte	$EE
	.byte	$02
	.byte	$00
	.byte	$F4
	.byte	$F2
	.byte	$96
	.byte	$00
	.byte	$FC
	.byte	$F6
	.byte	$02
	.byte	$00
	.byte	$04
	.byte	$F6
	.byte	$02
	.byte	$00
	.byte	$80
_gamepad_data:
	.byte	$00
	.byte	$00
	.byte	$F4
	.byte	$03
	.byte	$08
	.byte	$00
	.byte	$F9
	.byte	$00
	.byte	$08
	.byte	$00
	.byte	$F5
	.byte	$03
	.byte	$80
_advantage_data:
	.byte	$07
	.byte	$00
	.byte	$F8
	.byte	$00
	.byte	$00
	.byte	$00
	.byte	$F6
	.byte	$03
	.byte	$08
	.byte	$00
	.byte	$F7
	.byte	$03
	.byte	$08
	.byte	$F8
	.byte	$E7
	.byte	$03
	.byte	$00
	.byte	$F8
	.byte	$E6
	.byte	$03
	.byte	$80
_powerpad_data:
	.byte	$01
	.byte	$06
	.byte	$E5
	.byte	$00
	.byte	$08
	.byte	$06
	.byte	$E5
	.byte	$00
	.byte	$00
	.byte	$00
	.byte	$D4
	.byte	$03
	.byte	$08
	.byte	$00
	.byte	$D4
	.byte	$43
	.byte	$00
	.byte	$08
	.byte	$E4
	.byte	$03
	.byte	$08
	.byte	$08
	.byte	$E4
	.byte	$43
	.byte	$80
_zapper_data:
	.byte	$08
	.byte	$00
	.byte	$F2
	.byte	$00
	.byte	$00
	.byte	$00
	.byte	$E2
	.byte	$03
	.byte	$08
	.byte	$00
	.byte	$E3
	.byte	$03
	.byte	$08
	.byte	$08
	.byte	$F3
	.byte	$03
	.byte	$80
_arrowdown0_data:
	.byte	$00
	.byte	$08
	.byte	$19
	.byte	$80
	.byte	$00
	.byte	$00
	.byte	$2A
	.byte	$80
	.byte	$08
	.byte	$08
	.byte	$19
	.byte	$C0
	.byte	$08
	.byte	$00
	.byte	$2A
	.byte	$C0
	.byte	$00
	.byte	$08
	.byte	$28
	.byte	$00
	.byte	$08
	.byte	$08
	.byte	$28
	.byte	$40
	.byte	$80
_arrowdown1_data:
	.byte	$00
	.byte	$09
	.byte	$19
	.byte	$80
	.byte	$00
	.byte	$01
	.byte	$2A
	.byte	$80
	.byte	$08
	.byte	$09
	.byte	$19
	.byte	$C0
	.byte	$08
	.byte	$01
	.byte	$2A
	.byte	$C0
	.byte	$00
	.byte	$08
	.byte	$28
	.byte	$00
	.byte	$08
	.byte	$08
	.byte	$28
	.byte	$40
	.byte	$80
_arrowup0_data:
	.byte	$00
	.byte	$00
	.byte	$19
	.byte	$00
	.byte	$00
	.byte	$08
	.byte	$29
	.byte	$00
	.byte	$08
	.byte	$00
	.byte	$19
	.byte	$40
	.byte	$08
	.byte	$08
	.byte	$29
	.byte	$40
	.byte	$80
_arrowup1_data:
	.byte	$00
	.byte	$01
	.byte	$19
	.byte	$00
	.byte	$00
	.byte	$08
	.byte	$2A
	.byte	$00
	.byte	$08
	.byte	$01
	.byte	$19
	.byte	$40
	.byte	$08
	.byte	$08
	.byte	$2A
	.byte	$40
	.byte	$80
_arrowright0_data:
	.byte	$08
	.byte	$08
	.byte	$19
	.byte	$C0
	.byte	$08
	.byte	$00
	.byte	$19
	.byte	$40
	.byte	$00
	.byte	$09
	.byte	$18
	.byte	$40
	.byte	$00
	.byte	$01
	.byte	$17
	.byte	$C0
	.byte	$08
	.byte	$08
	.byte	$28
	.byte	$40
	.byte	$80
_arrowright1_data:
	.byte	$08
	.byte	$09
	.byte	$19
	.byte	$C0
	.byte	$08
	.byte	$01
	.byte	$19
	.byte	$40
	.byte	$00
	.byte	$09
	.byte	$17
	.byte	$40
	.byte	$00
	.byte	$02
	.byte	$17
	.byte	$C0
	.byte	$80
_arrowleft_data:
	.byte	$00
	.byte	$08
	.byte	$19
	.byte	$80
	.byte	$00
	.byte	$00
	.byte	$19
	.byte	$00
	.byte	$08
	.byte	$08
	.byte	$18
	.byte	$00
	.byte	$08
	.byte	$00
	.byte	$17
	.byte	$80
	.byte	$00
	.byte	$08
	.byte	$28
	.byte	$00
	.byte	$80
_arrowleft1_data:
	.byte	$00
	.byte	$09
	.byte	$19
	.byte	$80
	.byte	$00
	.byte	$01
	.byte	$19
	.byte	$00
	.byte	$08
	.byte	$09
	.byte	$17
	.byte	$00
	.byte	$08
	.byte	$01
	.byte	$17
	.byte	$80
	.byte	$80
_button0_data:
	.byte	$00
	.byte	$00
	.byte	$0A
	.byte	$00
	.byte	$08
	.byte	$00
	.byte	$0A
	.byte	$40
	.byte	$00
	.byte	$08
	.byte	$1A
	.byte	$00
	.byte	$08
	.byte	$08
	.byte	$1A
	.byte	$40
	.byte	$80
_button1_data:
	.byte	$00
	.byte	$02
	.byte	$0A
	.byte	$00
	.byte	$08
	.byte	$02
	.byte	$0A
	.byte	$40
	.byte	$00
	.byte	$08
	.byte	$0A
	.byte	$80
	.byte	$08
	.byte	$08
	.byte	$0A
	.byte	$C0
	.byte	$80
_widebutton0_data:
	.byte	$04
	.byte	$02
	.byte	$18
	.byte	$40
	.byte	$FF
	.byte	$02
	.byte	$18
	.byte	$40
	.byte	$00
	.byte	$01
	.byte	$17
	.byte	$00
	.byte	$05
	.byte	$01
	.byte	$17
	.byte	$00
	.byte	$80
_widebutton0__1_data:
	.byte	$00
	.byte	$02
	.byte	$17
	.byte	$00
	.byte	$05
	.byte	$02
	.byte	$17
	.byte	$00
	.byte	$80
_mower0_data:
	.byte	$00
	.byte	$08
	.byte	$46
	.byte	$00
	.byte	$08
	.byte	$08
	.byte	$47
	.byte	$00
	.byte	$08
	.byte	$00
	.byte	$37
	.byte	$00
	.byte	$80
_mower1_data:
	.byte	$00
	.byte	$08
	.byte	$48
	.byte	$00
	.byte	$08
	.byte	$08
	.byte	$49
	.byte	$00
	.byte	$07
	.byte	$00
	.byte	$37
	.byte	$00
	.byte	$80
_buddywalkeft0_data:
	.byte	$02
	.byte	$06
	.byte	$9D
	.byte	$01
	.byte	$00
	.byte	$00
	.byte	$8E
	.byte	$00
	.byte	$08
	.byte	$00
	.byte	$8F
	.byte	$00
	.byte	$00
	.byte	$08
	.byte	$9E
	.byte	$00
	.byte	$08
	.byte	$08
	.byte	$9F
	.byte	$00
	.byte	$00
	.byte	$10
	.byte	$AE
	.byte	$00
	.byte	$08
	.byte	$10
	.byte	$AF
	.byte	$00
	.byte	$80
_buddywalkleft1_data:
	.byte	$02
	.byte	$06
	.byte	$9D
	.byte	$01
	.byte	$00
	.byte	$00
	.byte	$8E
	.byte	$00
	.byte	$08
	.byte	$00
	.byte	$8F
	.byte	$00
	.byte	$00
	.byte	$08
	.byte	$9E
	.byte	$00
	.byte	$08
	.byte	$08
	.byte	$9F
	.byte	$00
	.byte	$00
	.byte	$10
	.byte	$AC
	.byte	$00
	.byte	$08
	.byte	$10
	.byte	$AD
	.byte	$00
	.byte	$80
_buddywalkeft0__1_data:
	.byte	$06
	.byte	$06
	.byte	$9D
	.byte	$41
	.byte	$08
	.byte	$00
	.byte	$8E
	.byte	$40
	.byte	$00
	.byte	$00
	.byte	$8F
	.byte	$40
	.byte	$08
	.byte	$08
	.byte	$9E
	.byte	$40
	.byte	$00
	.byte	$08
	.byte	$9F
	.byte	$40
	.byte	$08
	.byte	$10
	.byte	$AE
	.byte	$40
	.byte	$00
	.byte	$10
	.byte	$AF
	.byte	$40
	.byte	$80
_buddywalkleft1__1_data:
	.byte	$06
	.byte	$06
	.byte	$9D
	.byte	$41
	.byte	$08
	.byte	$00
	.byte	$8E
	.byte	$40
	.byte	$00
	.byte	$00
	.byte	$8F
	.byte	$40
	.byte	$08
	.byte	$08
	.byte	$9E
	.byte	$40
	.byte	$00
	.byte	$08
	.byte	$9F
	.byte	$40
	.byte	$08
	.byte	$10
	.byte	$AC
	.byte	$40
	.byte	$00
	.byte	$10
	.byte	$AD
	.byte	$40
	.byte	$80
_buddywalkdown0_data:
	.byte	$04
	.byte	$07
	.byte	$9C
	.byte	$01
	.byte	$00
	.byte	$00
	.byte	$8A
	.byte	$00
	.byte	$08
	.byte	$00
	.byte	$8B
	.byte	$00
	.byte	$00
	.byte	$08
	.byte	$9A
	.byte	$00
	.byte	$08
	.byte	$08
	.byte	$9B
	.byte	$00
	.byte	$00
	.byte	$10
	.byte	$AA
	.byte	$00
	.byte	$08
	.byte	$10
	.byte	$AB
	.byte	$00
	.byte	$80
_buddywalkdown1_data:
	.byte	$04
	.byte	$07
	.byte	$9C
	.byte	$01
	.byte	$00
	.byte	$00
	.byte	$8A
	.byte	$00
	.byte	$08
	.byte	$00
	.byte	$8B
	.byte	$00
	.byte	$00
	.byte	$08
	.byte	$9A
	.byte	$00
	.byte	$08
	.byte	$08
	.byte	$9B
	.byte	$00
	.byte	$00
	.byte	$10
	.byte	$A8
	.byte	$00
	.byte	$08
	.byte	$10
	.byte	$A9
	.byte	$00
	.byte	$80
_unnamed_data:
	.byte	$00
	.byte	$00
	.byte	$88
	.byte	$00
	.byte	$08
	.byte	$00
	.byte	$89
	.byte	$00
	.byte	$00
	.byte	$08
	.byte	$98
	.byte	$00
	.byte	$08
	.byte	$08
	.byte	$99
	.byte	$00
	.byte	$00
	.byte	$10
	.byte	$78
	.byte	$00
	.byte	$08
	.byte	$10
	.byte	$79
	.byte	$00
	.byte	$80
_unnamed__3_data:
	.byte	$00
	.byte	$00
	.byte	$88
	.byte	$00
	.byte	$08
	.byte	$00
	.byte	$89
	.byte	$00
	.byte	$00
	.byte	$08
	.byte	$98
	.byte	$00
	.byte	$08
	.byte	$08
	.byte	$99
	.byte	$00
	.byte	$00
	.byte	$10
	.byte	$7A
	.byte	$00
	.byte	$08
	.byte	$10
	.byte	$7B
	.byte	$00
	.byte	$80
_lock_data:
	.byte	$00
	.byte	$00
	.byte	$B4
	.byte	$03
	.byte	$08
	.byte	$00
	.byte	$B5
	.byte	$03
	.byte	$00
	.byte	$08
	.byte	$C4
	.byte	$03
	.byte	$08
	.byte	$08
	.byte	$C5
	.byte	$03
	.byte	$80
_pitopen0_data:
	.byte	$04
	.byte	$04
	.byte	$24
	.byte	$00
	.byte	$80
_pitopen1_data:
	.byte	$04
	.byte	$04
	.byte	$25
	.byte	$00
	.byte	$80
_pitopen2_data:
	.byte	$01
	.byte	$01
	.byte	$26
	.byte	$00
	.byte	$07
	.byte	$01
	.byte	$26
	.byte	$40
	.byte	$01
	.byte	$07
	.byte	$26
	.byte	$80
	.byte	$07
	.byte	$07
	.byte	$26
	.byte	$C0
	.byte	$80
_pitopen3_data:
	.byte	$00
	.byte	$00
	.byte	$26
	.byte	$00
	.byte	$08
	.byte	$00
	.byte	$26
	.byte	$40
	.byte	$00
	.byte	$08
	.byte	$26
	.byte	$80
	.byte	$08
	.byte	$08
	.byte	$26
	.byte	$C0
	.byte	$80
_White_duck_data:
	.byte	$08
	.byte	$00
	.byte	$03
	.byte	$00
	.byte	$10
	.byte	$00
	.byte	$03
	.byte	$00
	.byte	$08
	.byte	$08
	.byte	$03
	.byte	$00
	.byte	$10
	.byte	$08
	.byte	$03
	.byte	$00
	.byte	$18
	.byte	$08
	.byte	$03
	.byte	$00
	.byte	$18
	.byte	$10
	.byte	$03
	.byte	$00
	.byte	$10
	.byte	$10
	.byte	$03
	.byte	$00
	.byte	$08
	.byte	$10
	.byte	$03
	.byte	$00
	.byte	$00
	.byte	$10
	.byte	$03
	.byte	$00
	.byte	$00
	.byte	$08
	.byte	$03
	.byte	$00
	.byte	$00
	.byte	$18
	.byte	$03
	.byte	$00
	.byte	$08
	.byte	$18
	.byte	$03
	.byte	$00
	.byte	$10
	.byte	$18
	.byte	$03
	.byte	$00
	.byte	$18
	.byte	$18
	.byte	$03
	.byte	$00
	.byte	$18
	.byte	$20
	.byte	$03
	.byte	$00
	.byte	$10
	.byte	$20
	.byte	$03
	.byte	$00
	.byte	$08
	.byte	$20
	.byte	$03
	.byte	$00
	.byte	$00
	.byte	$20
	.byte	$03
	.byte	$00
	.byte	$80
_level1_0:
	.byte	$A0
	.byte	$A0
	.byte	$A0
	.byte	$A0
	.byte	$A0
	.byte	$A0
	.byte	$A0
	.byte	$A0
	.byte	$A0
	.byte	$A0
	.byte	$A0
	.byte	$A0
	.byte	$A0
	.byte	$A0
	.byte	$A0
	.byte	$A0
	.byte	$A0
	.byte	$A0
	.byte	$A0
	.byte	$A0
	.byte	$A0
	.byte	$A0
	.byte	$A0
	.byte	$A0
	.byte	$A0
	.byte	$A0
	.byte	$A0
	.byte	$A0
	.byte	$A0
	.byte	$A0
	.byte	$A0
	.byte	$A0
	.byte	$34
	.byte	$31
	.byte	$31
	.byte	$31
	.byte	$31
	.byte	$31
	.byte	$31
	.byte	$31
	.byte	$31
	.byte	$31
	.byte	$31
	.byte	$31
	.byte	$31
	.byte	$31
	.byte	$31
	.byte	$33
	.byte	$35
	.byte	$04
	.byte	$02
	.byte	$03
	.byte	$04
	.byte	$05
	.byte	$06
	.byte	$07
	.byte	$08
	.byte	$04
	.byte	$0A
	.byte	$00
	.byte	$04
	.byte	$0A
	.byte	$26
	.byte	$36
	.byte	$35
	.byte	$00
	.byte	$00
	.byte	$07
	.byte	$2B
	.byte	$00
	.byte	$00
	.byte	$00
	.byte	$00
	.byte	$00
	.byte	$00
	.byte	$00
	.byte	$0A
	.byte	$07
	.byte	$00
	.byte	$36
	.byte	$35
	.byte	$06
	.byte	$00
	.byte	$2C
	.byte	$09
	.byte	$0A
	.byte	$00
	.byte	$06
	.byte	$00
	.byte	$04
	.byte	$00
	.byte	$07
	.byte	$00
	.byte	$07
	.byte	$1B
	.byte	$36
	.byte	$35
	.byte	$00
	.byte	$07
	.byte	$0A
	.byte	$00
	.byte	$00
	.byte	$00
	.byte	$07
	.byte	$00
	.byte	$00
	.byte	$00
	.byte	$00
	.byte	$00
	.byte	$00
	.byte	$04
	.byte	$36
	.byte	$35
	.byte	$00
	.byte	$07
	.byte	$00
	.byte	$00
	.byte	$03
	.byte	$00
	.byte	$00
	.byte	$00
	.byte	$07
	.byte	$00
	.byte	$07
	.byte	$03
	.byte	$00
	.byte	$00
	.byte	$36
	.byte	$35
	.byte	$03
	.byte	$00
	.byte	$00
	.byte	$04
	.byte	$00
	.byte	$07
	.byte	$00
	.byte	$00
	.byte	$00
	.byte	$00
	.byte	$00
	.byte	$00
	.byte	$00
	.byte	$07
	.byte	$36
	.byte	$35
	.byte	$00
	.byte	$2B
	.byte	$00
	.byte	$00
	.byte	$00
	.byte	$07
	.byte	$00
	.byte	$07
	.byte	$00
	.byte	$0A
	.byte	$00
	.byte	$00
	.byte	$07
	.byte	$00
	.byte	$36
	.byte	$35
	.byte	$02
	.byte	$00
	.byte	$09
	.byte	$0A
	.byte	$00
	.byte	$00
	.byte	$00
	.byte	$00
	.byte	$00
	.byte	$00
	.byte	$2C
	.byte	$2B
	.byte	$00
	.byte	$00
	.byte	$36
	.byte	$35
	.byte	$00
	.byte	$06
	.byte	$00
	.byte	$00
	.byte	$00
	.byte	$00
	.byte	$09
	.byte	$0A
	.byte	$00
	.byte	$07
	.byte	$2B
	.byte	$4B
	.byte	$2A
	.byte	$07
	.byte	$36
	.byte	$35
	.byte	$14
	.byte	$17
	.byte	$00
	.byte	$09
	.byte	$0A
	.byte	$00
	.byte	$00
	.byte	$00
	.byte	$07
	.byte	$00
	.byte	$00
	.byte	$22
	.byte	$00
	.byte	$00
	.byte	$36
	.byte	$35
	.byte	$01
	.byte	$17
	.byte	$19
	.byte	$00
	.byte	$03
	.byte	$00
	.byte	$07
	.byte	$00
	.byte	$23
	.byte	$00
	.byte	$00
	.byte	$07
	.byte	$07
	.byte	$00
	.byte	$36
	.byte	$39
	.byte	$37
	.byte	$37
	.byte	$37
	.byte	$37
	.byte	$37
	.byte	$37
	.byte	$37
	.byte	$37
	.byte	$37
	.byte	$37
	.byte	$37
	.byte	$37
	.byte	$37
	.byte	$37
	.byte	$38
_level2_0:
	.byte	$A0
	.byte	$A0
	.byte	$A0
	.byte	$A0
	.byte	$A0
	.byte	$A0
	.byte	$A0
	.byte	$A0
	.byte	$A0
	.byte	$A0
	.byte	$A0
	.byte	$A0
	.byte	$A0
	.byte	$A0
	.byte	$A0
	.byte	$A0
	.byte	$A0
	.byte	$A0
	.byte	$A0
	.byte	$A0
	.byte	$A0
	.byte	$A0
	.byte	$A0
	.byte	$A0
	.byte	$A0
	.byte	$A0
	.byte	$A0
	.byte	$A0
	.byte	$A0
	.byte	$A0
	.byte	$A0
	.byte	$A0
	.byte	$34
	.byte	$31
	.byte	$31
	.byte	$31
	.byte	$31
	.byte	$31
	.byte	$31
	.byte	$31
	.byte	$31
	.byte	$31
	.byte	$31
	.byte	$31
	.byte	$31
	.byte	$31
	.byte	$31
	.byte	$33
	.byte	$35
	.byte	$04
	.byte	$02
	.byte	$03
	.byte	$04
	.byte	$05
	.byte	$06
	.byte	$07
	.byte	$08
	.byte	$04
	.byte	$0A
	.byte	$00
	.byte	$04
	.byte	$3A
	.byte	$26
	.byte	$36
	.byte	$35
	.byte	$00
	.byte	$00
	.byte	$07
	.byte	$00
	.byte	$00
	.byte	$00
	.byte	$00
	.byte	$3C
	.byte	$3C
	.byte	$3C
	.byte	$3C
	.byte	$0A
	.byte	$3B
	.byte	$4B
	.byte	$36
	.byte	$35
	.byte	$03
	.byte	$00
	.byte	$00
	.byte	$09
	.byte	$0A
	.byte	$00
	.byte	$06
	.byte	$21
	.byte	$04
	.byte	$22
	.byte	$3C
	.byte	$00
	.byte	$3A
	.byte	$22
	.byte	$36
	.byte	$35
	.byte	$00
	.byte	$3A
	.byte	$00
	.byte	$00
	.byte	$00
	.byte	$00
	.byte	$07
	.byte	$3A
	.byte	$3C
	.byte	$3C
	.byte	$3C
	.byte	$00
	.byte	$3A
	.byte	$00
	.byte	$36
	.byte	$35
	.byte	$07
	.byte	$3C
	.byte	$3A
	.byte	$3C
	.byte	$3A
	.byte	$3C
	.byte	$3C
	.byte	$3C
	.byte	$07
	.byte	$00
	.byte	$07
	.byte	$00
	.byte	$3A
	.byte	$00
	.byte	$36
	.byte	$35
	.byte	$00
	.byte	$21
	.byte	$3A
	.byte	$04
	.byte	$3A
	.byte	$21
	.byte	$21
	.byte	$22
	.byte	$00
	.byte	$00
	.byte	$00
	.byte	$00
	.byte	$3B
	.byte	$07
	.byte	$36
	.byte	$35
	.byte	$00
	.byte	$3C
	.byte	$3B
	.byte	$04
	.byte	$3B
	.byte	$07
	.byte	$3A
	.byte	$07
	.byte	$00
	.byte	$0A
	.byte	$00
	.byte	$00
	.byte	$3B
	.byte	$00
	.byte	$36
	.byte	$35
	.byte	$0A
	.byte	$21
	.byte	$3A
	.byte	$04
	.byte	$3A
	.byte	$00
	.byte	$3B
	.byte	$00
	.byte	$3A
	.byte	$3C
	.byte	$3C
	.byte	$3C
	.byte	$3A
	.byte	$00
	.byte	$36
	.byte	$35
	.byte	$00
	.byte	$3C
	.byte	$3A
	.byte	$00
	.byte	$3C
	.byte	$3C
	.byte	$3B
	.byte	$0A
	.byte	$3A
	.byte	$25
	.byte	$08
	.byte	$22
	.byte	$3C
	.byte	$07
	.byte	$36
	.byte	$35
	.byte	$00
	.byte	$07
	.byte	$3C
	.byte	$09
	.byte	$0A
	.byte	$00
	.byte	$3A
	.byte	$00
	.byte	$3C
	.byte	$00
	.byte	$3A
	.byte	$00
	.byte	$00
	.byte	$00
	.byte	$36
	.byte	$35
	.byte	$07
	.byte	$00
	.byte	$21
	.byte	$00
	.byte	$00
	.byte	$00
	.byte	$3B
	.byte	$00
	.byte	$22
	.byte	$08
	.byte	$3B
	.byte	$07
	.byte	$07
	.byte	$00
	.byte	$36
	.byte	$39
	.byte	$37
	.byte	$37
	.byte	$37
	.byte	$37
	.byte	$37
	.byte	$37
	.byte	$37
	.byte	$37
	.byte	$37
	.byte	$37
	.byte	$37
	.byte	$37
	.byte	$37
	.byte	$37
	.byte	$38
_level3_0:
	.byte	$A0
	.byte	$A0
	.byte	$A0
	.byte	$A0
	.byte	$A0
	.byte	$A0
	.byte	$A0
	.byte	$A0
	.byte	$A0
	.byte	$A0
	.byte	$A0
	.byte	$A0
	.byte	$A0
	.byte	$A0
	.byte	$A0
	.byte	$A0
	.byte	$A0
	.byte	$A0
	.byte	$A0
	.byte	$A0
	.byte	$A0
	.byte	$A0
	.byte	$A0
	.byte	$A0
	.byte	$A0
	.byte	$A0
	.byte	$A0
	.byte	$A0
	.byte	$A0
	.byte	$A0
	.byte	$A0
	.byte	$A0
	.byte	$1C
	.byte	$1C
	.byte	$1C
	.byte	$00
	.byte	$1E
	.byte	$1F
	.byte	$00
	.byte	$77
	.byte	$68
	.byte	$1C
	.byte	$0E
	.byte	$1D
	.byte	$0F
	.byte	$0C
	.byte	$0F
	.byte	$00
	.byte	$1C
	.byte	$1C
	.byte	$1C
	.byte	$1C
	.byte	$0E
	.byte	$0C
	.byte	$00
	.byte	$67
	.byte	$78
	.byte	$00
	.byte	$00
	.byte	$1D
	.byte	$1D
	.byte	$0D
	.byte	$00
	.byte	$00
	.byte	$1C
	.byte	$0E
	.byte	$1C
	.byte	$1C
	.byte	$00
	.byte	$0E
	.byte	$00
	.byte	$67
	.byte	$68
	.byte	$00
	.byte	$00
	.byte	$00
	.byte	$00
	.byte	$0E
	.byte	$1F
	.byte	$00
	.byte	$2B
	.byte	$2A
	.byte	$1C
	.byte	$1C
	.byte	$1C
	.byte	$00
	.byte	$1E
	.byte	$77
	.byte	$68
	.byte	$1F
	.byte	$00
	.byte	$00
	.byte	$00
	.byte	$2B
	.byte	$4B
	.byte	$2A
	.byte	$00
	.byte	$1B
	.byte	$00
	.byte	$1C
	.byte	$00
	.byte	$00
	.byte	$0E
	.byte	$67
	.byte	$68
	.byte	$0E
	.byte	$1F
	.byte	$00
	.byte	$00
	.byte	$00
	.byte	$21
	.byte	$1D
	.byte	$1C
	.byte	$00
	.byte	$1D
	.byte	$1C
	.byte	$00
	.byte	$00
	.byte	$00
	.byte	$67
	.byte	$4D
	.byte	$25
	.byte	$00
	.byte	$00
	.byte	$00
	.byte	$00
	.byte	$00
	.byte	$0E
	.byte	$00
	.byte	$00
	.byte	$00
	.byte	$0E
	.byte	$1F
	.byte	$00
	.byte	$1D
	.byte	$67
	.byte	$68
	.byte	$1C
	.byte	$00
	.byte	$00
	.byte	$00
	.byte	$00
	.byte	$00
	.byte	$00
	.byte	$00
	.byte	$00
	.byte	$00
	.byte	$00
	.byte	$00
	.byte	$00
	.byte	$26
	.byte	$4D
	.byte	$68
	.byte	$1D
	.byte	$00
	.byte	$1D
	.byte	$00
	.byte	$00
	.byte	$00
	.byte	$00
	.byte	$0E
	.byte	$00
	.byte	$00
	.byte	$00
	.byte	$00
	.byte	$1D
	.byte	$00
	.byte	$67
	.byte	$68
	.byte	$00
	.byte	$00
	.byte	$0E
	.byte	$0C
	.byte	$00
	.byte	$00
	.byte	$00
	.byte	$00
	.byte	$1D
	.byte	$00
	.byte	$00
	.byte	$00
	.byte	$0C
	.byte	$1C
	.byte	$77
	.byte	$78
	.byte	$00
	.byte	$00
	.byte	$00
	.byte	$0D
	.byte	$0C
	.byte	$00
	.byte	$00
	.byte	$0F
	.byte	$1C
	.byte	$1D
	.byte	$00
	.byte	$1E
	.byte	$0F
	.byte	$00
	.byte	$67
	.byte	$68
	.byte	$1F
	.byte	$00
	.byte	$00
	.byte	$1C
	.byte	$0E
	.byte	$0C
	.byte	$00
	.byte	$2A
	.byte	$1D
	.byte	$0C
	.byte	$1F
	.byte	$00
	.byte	$00
	.byte	$00
	.byte	$67
	.byte	$68
	.byte	$0F
	.byte	$2B
	.byte	$00
	.byte	$00
	.byte	$1D
	.byte	$0F
	.byte	$1D
	.byte	$00
	.byte	$00
	.byte	$0E
	.byte	$0C
	.byte	$00
	.byte	$00
	.byte	$00
	.byte	$67
	.byte	$68
	.byte	$25
	.byte	$1C
	.byte	$00
	.byte	$00
	.byte	$00
	.byte	$00
	.byte	$1C
_level4_0:
	.byte	$A0
	.byte	$A0
	.byte	$A0
	.byte	$A0
	.byte	$A0
	.byte	$A0
	.byte	$A0
	.byte	$A0
	.byte	$A0
	.byte	$A0
	.byte	$A0
	.byte	$A0
	.byte	$A0
	.byte	$A0
	.byte	$A0
	.byte	$A0
	.byte	$A0
	.byte	$A0
	.byte	$A0
	.byte	$A0
	.byte	$A0
	.byte	$A0
	.byte	$A0
	.byte	$A0
	.byte	$A0
	.byte	$A0
	.byte	$A0
	.byte	$A0
	.byte	$A0
	.byte	$A0
	.byte	$A0
	.byte	$A0
	.byte	$32
	.byte	$A0
	.byte	$32
	.byte	$31
	.byte	$4C
	.byte	$0E
	.byte	$1C
	.byte	$3B
	.byte	$3A
	.byte	$0A
	.byte	$11
	.byte	$4C
	.byte	$31
	.byte	$31
	.byte	$A0
	.byte	$31
	.byte	$0E
	.byte	$1C
	.byte	$00
	.byte	$1D
	.byte	$0C
	.byte	$0E
	.byte	$0E
	.byte	$3A
	.byte	$3A
	.byte	$11
	.byte	$02
	.byte	$0A
	.byte	$02
	.byte	$11
	.byte	$0A
	.byte	$11
	.byte	$0E
	.byte	$0D
	.byte	$1F
	.byte	$1C
	.byte	$00
	.byte	$0E
	.byte	$0E
	.byte	$3A
	.byte	$3A
	.byte	$0A
	.byte	$0A
	.byte	$11
	.byte	$11
	.byte	$0A
	.byte	$0A
	.byte	$0A
	.byte	$3E
	.byte	$3E
	.byte	$3E
	.byte	$3E
	.byte	$1F
	.byte	$00
	.byte	$0E
	.byte	$3C
	.byte	$3C
	.byte	$11
	.byte	$0A
	.byte	$0A
	.byte	$3F
	.byte	$3E
	.byte	$3E
	.byte	$3E
	.byte	$8A
	.byte	$AB
	.byte	$8B
	.byte	$8A
	.byte	$8A
	.byte	$8B
	.byte	$8A
	.byte	$AB
	.byte	$8B
	.byte	$8A
	.byte	$99
	.byte	$8B
	.byte	$AB
	.byte	$AB
	.byte	$8B
	.byte	$8A
	.byte	$6C
	.byte	$6C
	.byte	$6C
	.byte	$6C
	.byte	$6C
	.byte	$6C
	.byte	$6C
	.byte	$6C
	.byte	$6C
	.byte	$6C
	.byte	$6C
	.byte	$6C
	.byte	$6C
	.byte	$6C
	.byte	$6C
	.byte	$6C
	.byte	$7C
	.byte	$6C
	.byte	$7C
	.byte	$6C
	.byte	$7C
	.byte	$6C
	.byte	$7C
	.byte	$6C
	.byte	$7C
	.byte	$6C
	.byte	$7C
	.byte	$6C
	.byte	$7C
	.byte	$6C
	.byte	$7C
	.byte	$6C
	.byte	$6C
	.byte	$6C
	.byte	$6C
	.byte	$6C
	.byte	$6C
	.byte	$6C
	.byte	$6C
	.byte	$6C
	.byte	$6C
	.byte	$6C
	.byte	$6C
	.byte	$6C
	.byte	$6C
	.byte	$6C
	.byte	$6C
	.byte	$6C
	.byte	$69
	.byte	$7B
	.byte	$69
	.byte	$6A
	.byte	$7B
	.byte	$69
	.byte	$69
	.byte	$7B
	.byte	$69
	.byte	$9A
	.byte	$7B
	.byte	$A9
	.byte	$69
	.byte	$7B
	.byte	$69
	.byte	$69
	.byte	$3D
	.byte	$3E
	.byte	$3D
	.byte	$3D
	.byte	$0A
	.byte	$00
	.byte	$00
	.byte	$3A
	.byte	$3A
	.byte	$00
	.byte	$00
	.byte	$00
	.byte	$3F
	.byte	$3E
	.byte	$3D
	.byte	$3E
	.byte	$21
	.byte	$21
	.byte	$00
	.byte	$22
	.byte	$00
	.byte	$00
	.byte	$00
	.byte	$3B
	.byte	$3A
	.byte	$00
	.byte	$00
	.byte	$04
	.byte	$08
	.byte	$00
	.byte	$00
	.byte	$22
	.byte	$00
	.byte	$00
	.byte	$00
	.byte	$09
	.byte	$00
	.byte	$09
	.byte	$08
	.byte	$3B
	.byte	$3A
	.byte	$07
	.byte	$1B
	.byte	$4B
	.byte	$2C
	.byte	$08
	.byte	$00
	.byte	$00
	.byte	$08
	.byte	$0A
	.byte	$00
	.byte	$00
	.byte	$00
	.byte	$00
	.byte	$00
	.byte	$3B
	.byte	$3B
	.byte	$00
	.byte	$2A
	.byte	$22
	.byte	$2B
	.byte	$07
	.byte	$00
	.byte	$07
_level5_0:
	.byte	$A0
	.byte	$A0
	.byte	$A0
	.byte	$A0
	.byte	$A0
	.byte	$A0
	.byte	$A0
	.byte	$A0
	.byte	$A0
	.byte	$A0
	.byte	$A0
	.byte	$A0
	.byte	$A0
	.byte	$A0
	.byte	$A0
	.byte	$A0
	.byte	$A0
	.byte	$A0
	.byte	$A0
	.byte	$A0
	.byte	$A0
	.byte	$A0
	.byte	$A0
	.byte	$A0
	.byte	$A0
	.byte	$A0
	.byte	$A0
	.byte	$A0
	.byte	$A0
	.byte	$A0
	.byte	$A0
	.byte	$A0
	.byte	$3E
	.byte	$3D
	.byte	$3F
	.byte	$3E
	.byte	$3E
	.byte	$3E
	.byte	$3E
	.byte	$3E
	.byte	$3E
	.byte	$3E
	.byte	$3F
	.byte	$3E
	.byte	$3F
	.byte	$3E
	.byte	$3E
	.byte	$3E
	.byte	$03
	.byte	$04
	.byte	$22
	.byte	$00
	.byte	$00
	.byte	$22
	.byte	$04
	.byte	$01
	.byte	$00
	.byte	$00
	.byte	$00
	.byte	$00
	.byte	$21
	.byte	$08
	.byte	$00
	.byte	$0A
	.byte	$08
	.byte	$01
	.byte	$0A
	.byte	$00
	.byte	$00
	.byte	$04
	.byte	$00
	.byte	$00
	.byte	$04
	.byte	$00
	.byte	$00
	.byte	$0A
	.byte	$00
	.byte	$00
	.byte	$04
	.byte	$00
	.byte	$00
	.byte	$08
	.byte	$01
	.byte	$00
	.byte	$00
	.byte	$63
	.byte	$64
	.byte	$64
	.byte	$64
	.byte	$64
	.byte	$65
	.byte	$00
	.byte	$0A
	.byte	$0A
	.byte	$00
	.byte	$00
	.byte	$00
	.byte	$00
	.byte	$00
	.byte	$00
	.byte	$00
	.byte	$73
	.byte	$0C
	.byte	$4B
	.byte	$0D
	.byte	$0C
	.byte	$75
	.byte	$00
	.byte	$00
	.byte	$01
	.byte	$04
	.byte	$00
	.byte	$04
	.byte	$0A
	.byte	$0A
	.byte	$00
	.byte	$00
	.byte	$66
	.byte	$1E
	.byte	$0C
	.byte	$1F
	.byte	$0E
	.byte	$66
	.byte	$00
	.byte	$08
	.byte	$00
	.byte	$0A
	.byte	$00
	.byte	$00
	.byte	$00
	.byte	$04
	.byte	$06
	.byte	$00
	.byte	$76
	.byte	$0C
	.byte	$0D
	.byte	$0C
	.byte	$0C
	.byte	$75
	.byte	$00
	.byte	$00
	.byte	$0A
	.byte	$00
	.byte	$00
	.byte	$00
	.byte	$05
	.byte	$01
	.byte	$01
	.byte	$00
	.byte	$83
	.byte	$86
	.byte	$0C
	.byte	$0D
	.byte	$87
	.byte	$85
	.byte	$00
	.byte	$00
	.byte	$00
	.byte	$00
	.byte	$00
	.byte	$00
	.byte	$00
	.byte	$00
	.byte	$0A
	.byte	$00
	.byte	$00
	.byte	$4C
	.byte	$0E
	.byte	$0F
	.byte	$4C
	.byte	$00
	.byte	$00
	.byte	$1E
	.byte	$1F
	.byte	$1D
	.byte	$1C
	.byte	$00
	.byte	$01
	.byte	$00
	.byte	$00
	.byte	$00
	.byte	$00
	.byte	$22
	.byte	$00
	.byte	$1D
	.byte	$21
	.byte	$00
	.byte	$1E
	.byte	$0C
	.byte	$0D
	.byte	$0C
	.byte	$0C
	.byte	$0A
	.byte	$00
	.byte	$00
	.byte	$00
	.byte	$0A
	.byte	$00
	.byte	$00
	.byte	$00
	.byte	$00
	.byte	$00
	.byte	$00
	.byte	$0C
	.byte	$0F
	.byte	$00
	.byte	$0E
	.byte	$0C
	.byte	$00
	.byte	$00
	.byte	$00
	.byte	$00
	.byte	$00
	.byte	$00
	.byte	$0A
	.byte	$01
	.byte	$00
	.byte	$00
	.byte	$00
	.byte	$1D
	.byte	$1C
	.byte	$1D
	.byte	$1E
	.byte	$0D
	.byte	$00
	.byte	$01
	.byte	$00
	.byte	$01
	.byte	$00
	.byte	$00
	.byte	$00
	.byte	$00
	.byte	$06
	.byte	$00
	.byte	$00
	.byte	$1D
	.byte	$0E
	.byte	$0C
	.byte	$0D
	.byte	$0D
_level6_0:
	.byte	$A0
	.byte	$A0
	.byte	$A0
	.byte	$A0
	.byte	$A0
	.byte	$A0
	.byte	$A0
	.byte	$A0
	.byte	$A0
	.byte	$A0
	.byte	$A0
	.byte	$A0
	.byte	$A0
	.byte	$A0
	.byte	$A0
	.byte	$A0
	.byte	$A0
	.byte	$A0
	.byte	$A0
	.byte	$A0
	.byte	$A0
	.byte	$A0
	.byte	$A0
	.byte	$A0
	.byte	$A0
	.byte	$A0
	.byte	$A0
	.byte	$A0
	.byte	$A0
	.byte	$A0
	.byte	$A0
	.byte	$A0
	.byte	$32
	.byte	$31
	.byte	$32
	.byte	$31
	.byte	$32
	.byte	$31
	.byte	$31
	.byte	$32
	.byte	$32
	.byte	$31
	.byte	$32
	.byte	$32
	.byte	$31
	.byte	$32
	.byte	$32
	.byte	$31
	.byte	$02
	.byte	$01
	.byte	$0A
	.byte	$07
	.byte	$07
	.byte	$02
	.byte	$0A
	.byte	$4C
	.byte	$4C
	.byte	$0C
	.byte	$0C
	.byte	$1C
	.byte	$0A
	.byte	$01
	.byte	$0A
	.byte	$01
	.byte	$08
	.byte	$00
	.byte	$00
	.byte	$07
	.byte	$07
	.byte	$08
	.byte	$00
	.byte	$4C
	.byte	$4C
	.byte	$0C
	.byte	$1F
	.byte	$00
	.byte	$00
	.byte	$00
	.byte	$0A
	.byte	$02
	.byte	$3D
	.byte	$4E
	.byte	$4E
	.byte	$4E
	.byte	$4E
	.byte	$3F
	.byte	$3D
	.byte	$4E
	.byte	$4E
	.byte	$4E
	.byte	$4E
	.byte	$4E
	.byte	$3A
	.byte	$00
	.byte	$01
	.byte	$3A
	.byte	$0C
	.byte	$0F
	.byte	$22
	.byte	$00
	.byte	$21
	.byte	$00
	.byte	$02
	.byte	$22
	.byte	$00
	.byte	$21
	.byte	$0E
	.byte	$0D
	.byte	$3B
	.byte	$00
	.byte	$08
	.byte	$3A
	.byte	$0E
	.byte	$07
	.byte	$00
	.byte	$00
	.byte	$0A
	.byte	$00
	.byte	$00
	.byte	$00
	.byte	$02
	.byte	$00
	.byte	$1D
	.byte	$0E
	.byte	$3A
	.byte	$00
	.byte	$00
	.byte	$3B
	.byte	$00
	.byte	$00
	.byte	$00
	.byte	$63
	.byte	$64
	.byte	$64
	.byte	$84
	.byte	$64
	.byte	$84
	.byte	$65
	.byte	$00
	.byte	$00
	.byte	$3C
	.byte	$00
	.byte	$00
	.byte	$3A
	.byte	$00
	.byte	$00
	.byte	$00
	.byte	$66
	.byte	$2B
	.byte	$2A
	.byte	$00
	.byte	$00
	.byte	$2C
	.byte	$76
	.byte	$00
	.byte	$00
	.byte	$00
	.byte	$00
	.byte	$00
	.byte	$3A
	.byte	$00
	.byte	$0A
	.byte	$00
	.byte	$4D
	.byte	$00
	.byte	$00
	.byte	$00
	.byte	$00
	.byte	$00
	.byte	$73
	.byte	$00
	.byte	$00
	.byte	$00
	.byte	$00
	.byte	$00
	.byte	$3A
	.byte	$00
	.byte	$00
	.byte	$00
	.byte	$66
	.byte	$00
	.byte	$00
	.byte	$00
	.byte	$00
	.byte	$00
	.byte	$77
	.byte	$84
	.byte	$64
	.byte	$3C
	.byte	$3C
	.byte	$3C
	.byte	$3C
	.byte	$0A
	.byte	$00
	.byte	$00
	.byte	$75
	.byte	$00
	.byte	$00
	.byte	$00
	.byte	$00
	.byte	$00
	.byte	$66
	.byte	$0A
	.byte	$0A
	.byte	$00
	.byte	$2B
	.byte	$0A
	.byte	$01
	.byte	$00
	.byte	$00
	.byte	$63
	.byte	$85
	.byte	$00
	.byte	$00
	.byte	$00
	.byte	$00
	.byte	$07
	.byte	$4D
	.byte	$07
	.byte	$07
	.byte	$1B
	.byte	$4B
	.byte	$0A
	.byte	$01
	.byte	$00
	.byte	$00
	.byte	$73
	.byte	$00
	.byte	$00
	.byte	$00
	.byte	$07
	.byte	$01
	.byte	$0A
	.byte	$66
	.byte	$02
	.byte	$02
	.byte	$00
	.byte	$21
	.byte	$01
	.byte	$07
_level7_0:
	.byte	$A0
	.byte	$A0
	.byte	$A0
	.byte	$A0
	.byte	$A0
	.byte	$A0
	.byte	$A0
	.byte	$A0
	.byte	$A0
	.byte	$A0
	.byte	$A0
	.byte	$A0
	.byte	$A0
	.byte	$A0
	.byte	$A0
	.byte	$A0
	.byte	$A0
	.byte	$A0
	.byte	$A0
	.byte	$A0
	.byte	$A0
	.byte	$A0
	.byte	$A0
	.byte	$A0
	.byte	$A0
	.byte	$A0
	.byte	$A0
	.byte	$A0
	.byte	$A0
	.byte	$A0
	.byte	$A0
	.byte	$A0
	.byte	$3A
	.byte	$03
	.byte	$00
	.byte	$00
	.byte	$00
	.byte	$00
	.byte	$02
	.byte	$03
	.byte	$04
	.byte	$05
	.byte	$1D
	.byte	$1D
	.byte	$1C
	.byte	$00
	.byte	$0E
	.byte	$3B
	.byte	$3B
	.byte	$00
	.byte	$00
	.byte	$00
	.byte	$00
	.byte	$00
	.byte	$00
	.byte	$00
	.byte	$00
	.byte	$00
	.byte	$1E
	.byte	$0C
	.byte	$0D
	.byte	$1F
	.byte	$1E
	.byte	$3A
	.byte	$3A
	.byte	$00
	.byte	$00
	.byte	$00
	.byte	$00
	.byte	$06
	.byte	$07
	.byte	$08
	.byte	$00
	.byte	$0A
	.byte	$31
	.byte	$32
	.byte	$31
	.byte	$31
	.byte	$32
	.byte	$31
	.byte	$3B
	.byte	$06
	.byte	$07
	.byte	$08
	.byte	$00
	.byte	$00
	.byte	$00
	.byte	$00
	.byte	$00
	.byte	$00
	.byte	$00
	.byte	$21
	.byte	$21
	.byte	$21
	.byte	$06
	.byte	$3A
	.byte	$4E
	.byte	$4E
	.byte	$3D
	.byte	$4E
	.byte	$4E
	.byte	$4E
	.byte	$00
	.byte	$00
	.byte	$00
	.byte	$03
	.byte	$04
	.byte	$05
	.byte	$06
	.byte	$07
	.byte	$08
	.byte	$3A
	.byte	$3A
	.byte	$21
	.byte	$00
	.byte	$22
	.byte	$06
	.byte	$5F
	.byte	$08
	.byte	$00
	.byte	$00
	.byte	$00
	.byte	$00
	.byte	$00
	.byte	$00
	.byte	$00
	.byte	$00
	.byte	$3A
	.byte	$3A
	.byte	$00
	.byte	$02
	.byte	$03
	.byte	$04
	.byte	$5F
	.byte	$06
	.byte	$00
	.byte	$00
	.byte	$00
	.byte	$05
	.byte	$06
	.byte	$07
	.byte	$08
	.byte	$00
	.byte	$3A
	.byte	$3B
	.byte	$00
	.byte	$00
	.byte	$06
	.byte	$07
	.byte	$5F
	.byte	$25
	.byte	$00
	.byte	$00
	.byte	$00
	.byte	$31
	.byte	$32
	.byte	$31
	.byte	$31
	.byte	$32
	.byte	$32
	.byte	$3A
	.byte	$06
	.byte	$07
	.byte	$08
	.byte	$00
	.byte	$5F
	.byte	$00
	.byte	$08
	.byte	$0A
	.byte	$00
	.byte	$75
	.byte	$0A
	.byte	$07
	.byte	$08
	.byte	$01
	.byte	$3A
	.byte	$3D
	.byte	$3D
	.byte	$3D
	.byte	$3D
	.byte	$3D
	.byte	$3D
	.byte	$00
	.byte	$08
	.byte	$08
	.byte	$00
	.byte	$73
	.byte	$00
	.byte	$00
	.byte	$4B
	.byte	$03
	.byte	$3B
	.byte	$3B
	.byte	$21
	.byte	$02
	.byte	$03
	.byte	$04
	.byte	$22
	.byte	$06
	.byte	$07
	.byte	$08
	.byte	$26
	.byte	$4D
	.byte	$25
	.byte	$07
	.byte	$00
	.byte	$00
	.byte	$3A
	.byte	$3A
	.byte	$00
	.byte	$00
	.byte	$06
	.byte	$07
	.byte	$08
	.byte	$00
	.byte	$00
	.byte	$00
	.byte	$00
	.byte	$73
	.byte	$00
	.byte	$00
	.byte	$00
	.byte	$09
	.byte	$3A
	.byte	$3C
	.byte	$3C
	.byte	$3C
	.byte	$3C
	.byte	$3C
	.byte	$3C
	.byte	$3C
	.byte	$3C
	.byte	$3C
	.byte	$3C
	.byte	$73
	.byte	$3C
	.byte	$3C
	.byte	$3C
	.byte	$3C
	.byte	$3C
_level8_0:
	.byte	$A0
	.byte	$A0
	.byte	$A0
	.byte	$A0
	.byte	$A0
	.byte	$A0
	.byte	$A0
	.byte	$A0
	.byte	$A0
	.byte	$A0
	.byte	$A0
	.byte	$A0
	.byte	$A0
	.byte	$A0
	.byte	$A0
	.byte	$A0
	.byte	$A0
	.byte	$A0
	.byte	$A0
	.byte	$A0
	.byte	$A0
	.byte	$A0
	.byte	$A0
	.byte	$A0
	.byte	$A0
	.byte	$A0
	.byte	$A0
	.byte	$A0
	.byte	$A0
	.byte	$A0
	.byte	$A0
	.byte	$A0
	.byte	$32
	.byte	$32
	.byte	$32
	.byte	$32
	.byte	$32
	.byte	$32
	.byte	$32
	.byte	$32
	.byte	$32
	.byte	$32
	.byte	$32
	.byte	$32
	.byte	$32
	.byte	$32
	.byte	$32
	.byte	$32
	.byte	$0A
	.byte	$01
	.byte	$01
	.byte	$01
	.byte	$01
	.byte	$01
	.byte	$01
	.byte	$06
	.byte	$00
	.byte	$00
	.byte	$00
	.byte	$05
	.byte	$01
	.byte	$01
	.byte	$01
	.byte	$0A
	.byte	$01
	.byte	$01
	.byte	$06
	.byte	$00
	.byte	$00
	.byte	$00
	.byte	$00
	.byte	$00
	.byte	$00
	.byte	$00
	.byte	$08
	.byte	$01
	.byte	$01
	.byte	$0A
	.byte	$01
	.byte	$01
	.byte	$0A
	.byte	$01
	.byte	$01
	.byte	$01
	.byte	$07
	.byte	$00
	.byte	$3F
	.byte	$3F
	.byte	$3D
	.byte	$3D
	.byte	$00
	.byte	$08
	.byte	$01
	.byte	$01
	.byte	$01
	.byte	$01
	.byte	$07
	.byte	$01
	.byte	$01
	.byte	$01
	.byte	$01
	.byte	$00
	.byte	$4F
	.byte	$4B
	.byte	$1D
	.byte	$5F
	.byte	$00
	.byte	$00
	.byte	$00
	.byte	$00
	.byte	$08
	.byte	$01
	.byte	$03
	.byte	$01
	.byte	$01
	.byte	$01
	.byte	$06
	.byte	$00
	.byte	$3F
	.byte	$00
	.byte	$4E
	.byte	$3D
	.byte	$00
	.byte	$05
	.byte	$01
	.byte	$01
	.byte	$01
	.byte	$01
	.byte	$01
	.byte	$02
	.byte	$00
	.byte	$00
	.byte	$00
	.byte	$00
	.byte	$00
	.byte	$21
	.byte	$00
	.byte	$00
	.byte	$08
	.byte	$01
	.byte	$01
	.byte	$01
	.byte	$01
	.byte	$01
	.byte	$01
	.byte	$00
	.byte	$3F
	.byte	$3D
	.byte	$3D
	.byte	$00
	.byte	$05
	.byte	$01
	.byte	$01
	.byte	$07
	.byte	$00
	.byte	$00
	.byte	$00
	.byte	$00
	.byte	$00
	.byte	$01
	.byte	$0A
	.byte	$00
	.byte	$4F
	.byte	$47
	.byte	$5F
	.byte	$00
	.byte	$01
	.byte	$01
	.byte	$01
	.byte	$07
	.byte	$00
	.byte	$3F
	.byte	$3E
	.byte	$3D
	.byte	$00
	.byte	$0A
	.byte	$01
	.byte	$00
	.byte	$3F
	.byte	$3D
	.byte	$3D
	.byte	$00
	.byte	$03
	.byte	$01
	.byte	$01
	.byte	$01
	.byte	$00
	.byte	$4F
	.byte	$47
	.byte	$5F
	.byte	$00
	.byte	$01
	.byte	$06
	.byte	$00
	.byte	$00
	.byte	$00
	.byte	$00
	.byte	$00
	.byte	$00
	.byte	$04
	.byte	$01
	.byte	$0A
	.byte	$00
	.byte	$3F
	.byte	$3E
	.byte	$3D
	.byte	$00
	.byte	$03
	.byte	$07
	.byte	$05
	.byte	$01
	.byte	$07
	.byte	$09
	.byte	$07
	.byte	$00
	.byte	$05
	.byte	$01
	.byte	$01
	.byte	$00
	.byte	$00
	.byte	$00
	.byte	$00
	.byte	$00
	.byte	$01
	.byte	$01
	.byte	$01
	.byte	$01
	.byte	$01
	.byte	$01
	.byte	$01
	.byte	$00
	.byte	$00
	.byte	$00
	.byte	$08
	.byte	$05
	.byte	$01
	.byte	$06
	.byte	$05
	.byte	$01
	.byte	$0A
_level9_0:
	.byte	$A0
	.byte	$A0
	.byte	$A0
	.byte	$A0
	.byte	$A0
	.byte	$A0
	.byte	$A0
	.byte	$A0
	.byte	$A0
	.byte	$A0
	.byte	$A0
	.byte	$A0
	.byte	$A0
	.byte	$A0
	.byte	$A0
	.byte	$A0
	.byte	$A0
	.byte	$A0
	.byte	$A0
	.byte	$A0
	.byte	$A0
	.byte	$A0
	.byte	$A0
	.byte	$A0
	.byte	$A0
	.byte	$A0
	.byte	$A0
	.byte	$A0
	.byte	$A0
	.byte	$A0
	.byte	$A0
	.byte	$A0
	.byte	$31
	.byte	$32
	.byte	$31
	.byte	$31
	.byte	$32
	.byte	$32
	.byte	$31
	.byte	$31
	.byte	$32
	.byte	$31
	.byte	$31
	.byte	$31
	.byte	$32
	.byte	$31
	.byte	$32
	.byte	$31
	.byte	$04
	.byte	$0A
	.byte	$00
	.byte	$00
	.byte	$00
	.byte	$07
	.byte	$00
	.byte	$07
	.byte	$00
	.byte	$07
	.byte	$00
	.byte	$05
	.byte	$01
	.byte	$07
	.byte	$00
	.byte	$00
	.byte	$00
	.byte	$00
	.byte	$07
	.byte	$02
	.byte	$05
	.byte	$05
	.byte	$00
	.byte	$00
	.byte	$07
	.byte	$00
	.byte	$03
	.byte	$00
	.byte	$07
	.byte	$02
	.byte	$00
	.byte	$03
	.byte	$00
	.byte	$00
	.byte	$00
	.byte	$00
	.byte	$00
	.byte	$07
	.byte	$05
	.byte	$00
	.byte	$00
	.byte	$02
	.byte	$09
	.byte	$07
	.byte	$00
	.byte	$00
	.byte	$03
	.byte	$05
	.byte	$04
	.byte	$0A
	.byte	$00
	.byte	$07
	.byte	$00
	.byte	$00
	.byte	$00
	.byte	$00
	.byte	$00
	.byte	$00
	.byte	$02
	.byte	$07
	.byte	$00
	.byte	$02
	.byte	$00
	.byte	$00
	.byte	$09
	.byte	$0A
	.byte	$00
	.byte	$00
	.byte	$09
	.byte	$00
	.byte	$04
	.byte	$08
	.byte	$09
	.byte	$04
	.byte	$00
	.byte	$00
	.byte	$00
	.byte	$00
	.byte	$02
	.byte	$00
	.byte	$00
	.byte	$04
	.byte	$00
	.byte	$00
	.byte	$24
	.byte	$24
	.byte	$00
	.byte	$00
	.byte	$00
	.byte	$08
	.byte	$04
	.byte	$09
	.byte	$00
	.byte	$24
	.byte	$23
	.byte	$00
	.byte	$3C
	.byte	$3C
	.byte	$3C
	.byte	$3C
	.byte	$21
	.byte	$21
	.byte	$3C
	.byte	$3C
	.byte	$3C
	.byte	$3A
	.byte	$00
	.byte	$00
	.byte	$09
	.byte	$3A
	.byte	$3C
	.byte	$3C
	.byte	$21
	.byte	$07
	.byte	$00
	.byte	$02
	.byte	$21
	.byte	$21
	.byte	$02
	.byte	$04
	.byte	$21
	.byte	$3C
	.byte	$3C
	.byte	$3C
	.byte	$3C
	.byte	$3C
	.byte	$03
	.byte	$03
	.byte	$0A
	.byte	$03
	.byte	$00
	.byte	$00
	.byte	$00
	.byte	$00
	.byte	$00
	.byte	$00
	.byte	$00
	.byte	$00
	.byte	$21
	.byte	$00
	.byte	$2B
	.byte	$1B
	.byte	$00
	.byte	$00
	.byte	$0A
	.byte	$06
	.byte	$03
	.byte	$00
	.byte	$06
	.byte	$00
	.byte	$00
	.byte	$06
	.byte	$02
	.byte	$00
	.byte	$07
	.byte	$00
	.byte	$2B
	.byte	$4B
	.byte	$2A
	.byte	$22
	.byte	$00
	.byte	$00
	.byte	$03
	.byte	$00
	.byte	$00
	.byte	$03
	.byte	$00
	.byte	$00
	.byte	$00
	.byte	$06
	.byte	$00
	.byte	$02
	.byte	$07
	.byte	$22
	.byte	$00
	.byte	$06
	.byte	$37
	.byte	$37
	.byte	$37
	.byte	$37
	.byte	$37
	.byte	$37
	.byte	$37
	.byte	$37
	.byte	$37
	.byte	$37
	.byte	$37
	.byte	$37
	.byte	$37
	.byte	$37
	.byte	$37
	.byte	$37
_level10_0:
	.byte	$A0
	.byte	$A0
	.byte	$A0
	.byte	$A0
	.byte	$A0
	.byte	$A0
	.byte	$A0
	.byte	$A0
	.byte	$A0
	.byte	$A0
	.byte	$A0
	.byte	$A0
	.byte	$A0
	.byte	$A0
	.byte	$A0
	.byte	$A0
	.byte	$A0
	.byte	$A0
	.byte	$A0
	.byte	$A0
	.byte	$A0
	.byte	$A0
	.byte	$A0
	.byte	$A0
	.byte	$A0
	.byte	$A0
	.byte	$A0
	.byte	$A0
	.byte	$A0
	.byte	$A0
	.byte	$A0
	.byte	$A0
	.byte	$06
	.byte	$14
	.byte	$14
	.byte	$0A
	.byte	$04
	.byte	$0A
	.byte	$24
	.byte	$08
	.byte	$4C
	.byte	$3C
	.byte	$3C
	.byte	$4C
	.byte	$4C
	.byte	$3C
	.byte	$3C
	.byte	$4C
	.byte	$AA
	.byte	$6A
	.byte	$AA
	.byte	$7B
	.byte	$8C
	.byte	$8C
	.byte	$8C
	.byte	$8C
	.byte	$79
	.byte	$AA
	.byte	$9B
	.byte	$7B
	.byte	$AA
	.byte	$7A
	.byte	$AA
	.byte	$7B
	.byte	$69
	.byte	$69
	.byte	$7A
	.byte	$7B
	.byte	$6C
	.byte	$6C
	.byte	$6C
	.byte	$8C
	.byte	$79
	.byte	$9B
	.byte	$69
	.byte	$7B
	.byte	$69
	.byte	$69
	.byte	$9B
	.byte	$7B
	.byte	$8A
	.byte	$8A
	.byte	$99
	.byte	$8B
	.byte	$6C
	.byte	$6C
	.byte	$6C
	.byte	$8C
	.byte	$89
	.byte	$8A
	.byte	$8A
	.byte	$8B
	.byte	$8A
	.byte	$8A
	.byte	$8A
	.byte	$8B
	.byte	$6C
	.byte	$6C
	.byte	$6C
	.byte	$6C
	.byte	$6C
	.byte	$6C
	.byte	$6C
	.byte	$6C
	.byte	$6C
	.byte	$6C
	.byte	$6C
	.byte	$8C
	.byte	$6C
	.byte	$6C
	.byte	$6C
	.byte	$6C
	.byte	$7C
	.byte	$6C
	.byte	$7C
	.byte	$6C
	.byte	$7C
	.byte	$6C
	.byte	$7C
	.byte	$6C
	.byte	$7C
	.byte	$6C
	.byte	$7C
	.byte	$8C
	.byte	$7C
	.byte	$6C
	.byte	$7C
	.byte	$6C
	.byte	$8C
	.byte	$8C
	.byte	$8C
	.byte	$8C
	.byte	$8C
	.byte	$8C
	.byte	$8C
	.byte	$8C
	.byte	$8C
	.byte	$8C
	.byte	$8C
	.byte	$8C
	.byte	$6C
	.byte	$6C
	.byte	$6C
	.byte	$6C
	.byte	$7A
	.byte	$9B
	.byte	$A9
	.byte	$7B
	.byte	$A9
	.byte	$69
	.byte	$9B
	.byte	$7B
	.byte	$69
	.byte	$9A
	.byte	$A9
	.byte	$7B
	.byte	$69
	.byte	$A9
	.byte	$6A
	.byte	$7B
	.byte	$69
	.byte	$69
	.byte	$69
	.byte	$7B
	.byte	$9B
	.byte	$69
	.byte	$69
	.byte	$7B
	.byte	$69
	.byte	$69
	.byte	$69
	.byte	$7B
	.byte	$69
	.byte	$69
	.byte	$6B
	.byte	$7B
	.byte	$8A
	.byte	$8A
	.byte	$8A
	.byte	$8B
	.byte	$8A
	.byte	$8A
	.byte	$99
	.byte	$8B
	.byte	$8A
	.byte	$8A
	.byte	$8A
	.byte	$8B
	.byte	$8A
	.byte	$8A
	.byte	$8A
	.byte	$8B
	.byte	$1E
	.byte	$0D
	.byte	$0C
	.byte	$1F
	.byte	$3F
	.byte	$3F
	.byte	$3F
	.byte	$3F
	.byte	$3F
	.byte	$3F
	.byte	$3F
	.byte	$3F
	.byte	$3F
	.byte	$4E
	.byte	$4E
	.byte	$4E
	.byte	$0C
	.byte	$0C
	.byte	$0D
	.byte	$0C
	.byte	$00
	.byte	$00
	.byte	$00
	.byte	$00
	.byte	$01
	.byte	$0A
	.byte	$01
	.byte	$0A
	.byte	$00
	.byte	$2B
	.byte	$4B
	.byte	$2A
	.byte	$0E
	.byte	$0D
	.byte	$0C
	.byte	$0F
	.byte	$00
	.byte	$00
	.byte	$00
	.byte	$00
	.byte	$0A
	.byte	$01
	.byte	$0A
	.byte	$01
	.byte	$00
	.byte	$00
	.byte	$22
	.byte	$2A
_level11_0:
	.byte	$A0
	.byte	$A0
	.byte	$A0
	.byte	$A0
	.byte	$A0
	.byte	$A0
	.byte	$A0
	.byte	$A0
	.byte	$A0
	.byte	$A0
	.byte	$A0
	.byte	$A0
	.byte	$A0
	.byte	$A0
	.byte	$A0
	.byte	$A0
	.byte	$A0
	.byte	$A0
	.byte	$A0
	.byte	$A0
	.byte	$A0
	.byte	$A0
	.byte	$A0
	.byte	$A0
	.byte	$A0
	.byte	$A0
	.byte	$A0
	.byte	$A0
	.byte	$A0
	.byte	$A0
	.byte	$A0
	.byte	$A0
	.byte	$3A
	.byte	$3C
	.byte	$3C
	.byte	$3C
	.byte	$3C
	.byte	$3C
	.byte	$3C
	.byte	$3C
	.byte	$3C
	.byte	$3C
	.byte	$3C
	.byte	$3C
	.byte	$3C
	.byte	$3C
	.byte	$3C
	.byte	$3A
	.byte	$3A
	.byte	$1E
	.byte	$4B
	.byte	$5F
	.byte	$06
	.byte	$09
	.byte	$0A
	.byte	$04
	.byte	$21
	.byte	$09
	.byte	$00
	.byte	$0A
	.byte	$22
	.byte	$19
	.byte	$0A
	.byte	$3A
	.byte	$3B
	.byte	$3F
	.byte	$00
	.byte	$3D
	.byte	$00
	.byte	$31
	.byte	$31
	.byte	$06
	.byte	$00
	.byte	$31
	.byte	$31
	.byte	$00
	.byte	$04
	.byte	$31
	.byte	$32
	.byte	$3A
	.byte	$3B
	.byte	$09
	.byte	$0A
	.byte	$00
	.byte	$0A
	.byte	$00
	.byte	$09
	.byte	$00
	.byte	$00
	.byte	$09
	.byte	$00
	.byte	$00
	.byte	$00
	.byte	$21
	.byte	$18
	.byte	$3A
	.byte	$3B
	.byte	$00
	.byte	$00
	.byte	$06
	.byte	$03
	.byte	$04
	.byte	$00
	.byte	$06
	.byte	$00
	.byte	$00
	.byte	$07
	.byte	$17
	.byte	$00
	.byte	$06
	.byte	$00
	.byte	$3A
	.byte	$3B
	.byte	$19
	.byte	$09
	.byte	$00
	.byte	$00
	.byte	$32
	.byte	$31
	.byte	$0A
	.byte	$00
	.byte	$31
	.byte	$31
	.byte	$00
	.byte	$00
	.byte	$31
	.byte	$32
	.byte	$3A
	.byte	$3B
	.byte	$00
	.byte	$08
	.byte	$02
	.byte	$00
	.byte	$06
	.byte	$03
	.byte	$00
	.byte	$00
	.byte	$07
	.byte	$01
	.byte	$00
	.byte	$06
	.byte	$22
	.byte	$04
	.byte	$3A
	.byte	$3B
	.byte	$25
	.byte	$00
	.byte	$00
	.byte	$00
	.byte	$00
	.byte	$00
	.byte	$09
	.byte	$18
	.byte	$01
	.byte	$06
	.byte	$00
	.byte	$00
	.byte	$00
	.byte	$00
	.byte	$3A
	.byte	$3B
	.byte	$09
	.byte	$00
	.byte	$03
	.byte	$06
	.byte	$31
	.byte	$31
	.byte	$00
	.byte	$00
	.byte	$32
	.byte	$31
	.byte	$00
	.byte	$00
	.byte	$31
	.byte	$31
	.byte	$3A
	.byte	$3B
	.byte	$09
	.byte	$02
	.byte	$03
	.byte	$00
	.byte	$06
	.byte	$00
	.byte	$00
	.byte	$0A
	.byte	$22
	.byte	$03
	.byte	$00
	.byte	$0A
	.byte	$00
	.byte	$19
	.byte	$3A
	.byte	$3B
	.byte	$00
	.byte	$00
	.byte	$00
	.byte	$0A
	.byte	$00
	.byte	$17
	.byte	$09
	.byte	$09
	.byte	$00
	.byte	$00
	.byte	$05
	.byte	$00
	.byte	$00
	.byte	$0A
	.byte	$3A
	.byte	$3A
	.byte	$04
	.byte	$0A
	.byte	$03
	.byte	$23
	.byte	$31
	.byte	$31
	.byte	$00
	.byte	$08
	.byte	$32
	.byte	$31
	.byte	$24
	.byte	$24
	.byte	$31
	.byte	$31
	.byte	$3A
	.byte	$3C
	.byte	$3C
	.byte	$3C
	.byte	$3C
	.byte	$3C
	.byte	$3C
	.byte	$3C
	.byte	$3C
	.byte	$3C
	.byte	$3C
	.byte	$3C
	.byte	$3C
	.byte	$3C
	.byte	$3C
	.byte	$3C
	.byte	$3C
_level12_0:
	.byte	$A0
	.byte	$A0
	.byte	$A0
	.byte	$A0
	.byte	$A0
	.byte	$A0
	.byte	$A0
	.byte	$A0
	.byte	$A0
	.byte	$A0
	.byte	$A0
	.byte	$A0
	.byte	$A0
	.byte	$A0
	.byte	$A0
	.byte	$A0
	.byte	$A0
	.byte	$A0
	.byte	$A0
	.byte	$A0
	.byte	$A0
	.byte	$A0
	.byte	$A0
	.byte	$A0
	.byte	$A0
	.byte	$A0
	.byte	$A0
	.byte	$A0
	.byte	$A0
	.byte	$A0
	.byte	$A0
	.byte	$A0
	.byte	$01
	.byte	$0A
	.byte	$01
	.byte	$01
	.byte	$01
	.byte	$0A
	.byte	$01
	.byte	$17
	.byte	$05
	.byte	$1A
	.byte	$01
	.byte	$01
	.byte	$01
	.byte	$1A
	.byte	$01
	.byte	$17
	.byte	$01
	.byte	$01
	.byte	$17
	.byte	$01
	.byte	$1A
	.byte	$01
	.byte	$01
	.byte	$01
	.byte	$1A
	.byte	$01
	.byte	$01
	.byte	$0A
	.byte	$07
	.byte	$01
	.byte	$04
	.byte	$03
	.byte	$1A
	.byte	$01
	.byte	$01
	.byte	$01
	.byte	$07
	.byte	$01
	.byte	$1A
	.byte	$01
	.byte	$01
	.byte	$01
	.byte	$01
	.byte	$01
	.byte	$01
	.byte	$01
	.byte	$02
	.byte	$1E
	.byte	$1A
	.byte	$1A
	.byte	$01
	.byte	$01
	.byte	$01
	.byte	$01
	.byte	$3F
	.byte	$3F
	.byte	$3D
	.byte	$3D
	.byte	$07
	.byte	$01
	.byte	$0A
	.byte	$02
	.byte	$1D
	.byte	$0D
	.byte	$01
	.byte	$01
	.byte	$01
	.byte	$01
	.byte	$07
	.byte	$1A
	.byte	$4F
	.byte	$2C
	.byte	$4B
	.byte	$5F
	.byte	$01
	.byte	$08
	.byte	$01
	.byte	$01
	.byte	$07
	.byte	$0E
	.byte	$08
	.byte	$01
	.byte	$01
	.byte	$01
	.byte	$01
	.byte	$01
	.byte	$3F
	.byte	$3E
	.byte	$00
	.byte	$3D
	.byte	$07
	.byte	$07
	.byte	$01
	.byte	$01
	.byte	$01
	.byte	$0A
	.byte	$01
	.byte	$01
	.byte	$0A
	.byte	$01
	.byte	$01
	.byte	$01
	.byte	$01
	.byte	$1A
	.byte	$00
	.byte	$07
	.byte	$1A
	.byte	$01
	.byte	$01
	.byte	$0A
	.byte	$01
	.byte	$0A
	.byte	$07
	.byte	$01
	.byte	$0A
	.byte	$09
	.byte	$1A
	.byte	$01
	.byte	$01
	.byte	$0A
	.byte	$00
	.byte	$06
	.byte	$01
	.byte	$01
	.byte	$01
	.byte	$01
	.byte	$01
	.byte	$01
	.byte	$01
	.byte	$01
	.byte	$01
	.byte	$01
	.byte	$1A
	.byte	$01
	.byte	$01
	.byte	$06
	.byte	$1E
	.byte	$1F
	.byte	$06
	.byte	$01
	.byte	$01
	.byte	$0A
	.byte	$01
	.byte	$01
	.byte	$01
	.byte	$01
	.byte	$01
	.byte	$01
	.byte	$0A
	.byte	$0A
	.byte	$0A
	.byte	$1E
	.byte	$0D
	.byte	$0D
	.byte	$09
	.byte	$01
	.byte	$1A
	.byte	$01
	.byte	$01
	.byte	$0A
	.byte	$07
	.byte	$1A
	.byte	$00
	.byte	$1A
	.byte	$09
	.byte	$01
	.byte	$1A
	.byte	$0E
	.byte	$0F
	.byte	$09
	.byte	$09
	.byte	$01
	.byte	$01
	.byte	$01
	.byte	$01
	.byte	$01
	.byte	$01
	.byte	$07
	.byte	$09
	.byte	$09
	.byte	$01
	.byte	$01
	.byte	$01
	.byte	$07
	.byte	$05
	.byte	$1A
	.byte	$01
	.byte	$01
	.byte	$0A
	.byte	$01
	.byte	$01
	.byte	$07
	.byte	$01
	.byte	$01
	.byte	$01
	.byte	$01
	.byte	$0A
	.byte	$0A
	.byte	$01
	.byte	$01
	.byte	$0A
	.byte	$01
	.byte	$01
	.byte	$01
	.byte	$01
	.byte	$07
	.byte	$01
	.byte	$01
_level13_0:
	.byte	$A0
	.byte	$A0
	.byte	$A0
	.byte	$A0
	.byte	$A0
	.byte	$A0
	.byte	$A0
	.byte	$A0
	.byte	$A0
	.byte	$A0
	.byte	$A0
	.byte	$A0
	.byte	$A0
	.byte	$A0
	.byte	$A0
	.byte	$A0
	.byte	$A0
	.byte	$A0
	.byte	$A0
	.byte	$A0
	.byte	$A0
	.byte	$A0
	.byte	$A0
	.byte	$A0
	.byte	$A0
	.byte	$A0
	.byte	$A0
	.byte	$A0
	.byte	$A0
	.byte	$A0
	.byte	$A0
	.byte	$A0
	.byte	$31
	.byte	$32
	.byte	$31
	.byte	$31
	.byte	$31
	.byte	$32
	.byte	$31
	.byte	$31
	.byte	$31
	.byte	$32
	.byte	$32
	.byte	$31
	.byte	$32
	.byte	$32
	.byte	$31
	.byte	$31
	.byte	$0E
	.byte	$0E
	.byte	$0E
	.byte	$0F
	.byte	$0F
	.byte	$0D
	.byte	$1F
	.byte	$1D
	.byte	$0D
	.byte	$0C
	.byte	$0D
	.byte	$0D
	.byte	$0C
	.byte	$3C
	.byte	$0D
	.byte	$0C
	.byte	$0D
	.byte	$1F
	.byte	$0E
	.byte	$3C
	.byte	$1C
	.byte	$1D
	.byte	$0C
	.byte	$0C
	.byte	$1F
	.byte	$0C
	.byte	$0E
	.byte	$0C
	.byte	$0D
	.byte	$0E
	.byte	$0C
	.byte	$0D
	.byte	$0D
	.byte	$0C
	.byte	$00
	.byte	$00
	.byte	$00
	.byte	$00
	.byte	$1D
	.byte	$1C
	.byte	$1D
	.byte	$1C
	.byte	$00
	.byte	$0E
	.byte	$1C
	.byte	$1D
	.byte	$4C
	.byte	$0C
	.byte	$0C
	.byte	$1F
	.byte	$4C
	.byte	$1F
	.byte	$1E
	.byte	$1F
	.byte	$0D
	.byte	$0E
	.byte	$0D
	.byte	$0C
	.byte	$0D
	.byte	$3C
	.byte	$0D
	.byte	$4C
	.byte	$0D
	.byte	$0D
	.byte	$0D
	.byte	$0D
	.byte	$4B
	.byte	$0C
	.byte	$0D
	.byte	$0D
	.byte	$0D
	.byte	$1F
	.byte	$0D
	.byte	$0D
	.byte	$0D
	.byte	$0C
	.byte	$0D
	.byte	$0D
	.byte	$0D
	.byte	$1F
	.byte	$0D
	.byte	$0C
	.byte	$0C
	.byte	$0E
	.byte	$0E
	.byte	$0E
	.byte	$0C
	.byte	$0C
	.byte	$0D
	.byte	$0E
	.byte	$0C
	.byte	$0F
	.byte	$0E
	.byte	$0C
	.byte	$0D
	.byte	$0D
	.byte	$3C
	.byte	$0C
	.byte	$0E
	.byte	$0D
	.byte	$0F
	.byte	$0C
	.byte	$1F
	.byte	$0C
	.byte	$0E
	.byte	$0C
	.byte	$0D
	.byte	$1F
	.byte	$3A
	.byte	$0D
	.byte	$0C
	.byte	$0C
	.byte	$1F
	.byte	$0D
	.byte	$0E
	.byte	$0D
	.byte	$1F
	.byte	$1E
	.byte	$1F
	.byte	$0E
	.byte	$0E
	.byte	$0E
	.byte	$0E
	.byte	$0C
	.byte	$3C
	.byte	$0D
	.byte	$1F
	.byte	$0C
	.byte	$0D
	.byte	$3C
	.byte	$0E
	.byte	$0C
	.byte	$0D
	.byte	$0C
	.byte	$1F
	.byte	$0D
	.byte	$0E
	.byte	$3C
	.byte	$0E
	.byte	$0D
	.byte	$1D
	.byte	$0C
	.byte	$0C
	.byte	$0D
	.byte	$0C
	.byte	$0F
	.byte	$3C
	.byte	$3C
	.byte	$0D
	.byte	$0D
	.byte	$0E
	.byte	$0E
	.byte	$3C
	.byte	$1D
	.byte	$0D
	.byte	$0C
	.byte	$0D
	.byte	$0D
	.byte	$0D
	.byte	$0D
	.byte	$0C
	.byte	$1F
	.byte	$00
	.byte	$1E
	.byte	$0C
	.byte	$0C
	.byte	$0D
	.byte	$0D
	.byte	$1C
	.byte	$1E
	.byte	$0C
	.byte	$0D
	.byte	$0C
	.byte	$1F
	.byte	$1F
	.byte	$4C
	.byte	$0E
	.byte	$0E
	.byte	$0C
	.byte	$0D
	.byte	$0D
	.byte	$0C
	.byte	$0E
	.byte	$0D
	.byte	$0D
	.byte	$4C
	.byte	$0D
	.byte	$0C
	.byte	$0C
	.byte	$0D
	.byte	$1F
	.byte	$0D
_level14_0:
	.byte	$A0
	.byte	$A0
	.byte	$A0
	.byte	$A0
	.byte	$A0
	.byte	$A0
	.byte	$A0
	.byte	$A0
	.byte	$A0
	.byte	$A0
	.byte	$A0
	.byte	$A0
	.byte	$A0
	.byte	$A0
	.byte	$A0
	.byte	$A0
	.byte	$A0
	.byte	$A0
	.byte	$A0
	.byte	$A0
	.byte	$A0
	.byte	$A0
	.byte	$A0
	.byte	$A0
	.byte	$A0
	.byte	$A0
	.byte	$A0
	.byte	$A0
	.byte	$A0
	.byte	$A0
	.byte	$A0
	.byte	$A0
	.byte	$00
	.byte	$00
	.byte	$1D
	.byte	$0F
	.byte	$0E
	.byte	$1F
	.byte	$1E
	.byte	$0E
	.byte	$0E
	.byte	$0C
	.byte	$0E
	.byte	$0E
	.byte	$0E
	.byte	$0E
	.byte	$0D
	.byte	$36
	.byte	$00
	.byte	$00
	.byte	$00
	.byte	$1D
	.byte	$0F
	.byte	$0C
	.byte	$0E
	.byte	$0D
	.byte	$0C
	.byte	$0C
	.byte	$0D
	.byte	$0F
	.byte	$00
	.byte	$00
	.byte	$0E
	.byte	$36
	.byte	$3C
	.byte	$3C
	.byte	$3C
	.byte	$3C
	.byte	$3C
	.byte	$3C
	.byte	$3C
	.byte	$3C
	.byte	$3C
	.byte	$3C
	.byte	$3C
	.byte	$3C
	.byte	$3C
	.byte	$00
	.byte	$00
	.byte	$36
	.byte	$0F
	.byte	$00
	.byte	$22
	.byte	$21
	.byte	$00
	.byte	$0E
	.byte	$3E
	.byte	$0F
	.byte	$22
	.byte	$00
	.byte	$22
	.byte	$0E
	.byte	$3E
	.byte	$00
	.byte	$1D
	.byte	$36
	.byte	$00
	.byte	$00
	.byte	$1E
	.byte	$3E
	.byte	$1F
	.byte	$00
	.byte	$21
	.byte	$00
	.byte	$1D
	.byte	$3E
	.byte	$1F
	.byte	$00
	.byte	$21
	.byte	$00
	.byte	$1E
	.byte	$36
	.byte	$00
	.byte	$00
	.byte	$3C
	.byte	$3C
	.byte	$3C
	.byte	$3C
	.byte	$3C
	.byte	$3C
	.byte	$3C
	.byte	$3C
	.byte	$3C
	.byte	$3C
	.byte	$3C
	.byte	$3C
	.byte	$3C
	.byte	$36
	.byte	$00
	.byte	$00
	.byte	$77
	.byte	$68
	.byte	$1D
	.byte	$0C
	.byte	$67
	.byte	$78
	.byte	$0F
	.byte	$0E
	.byte	$4D
	.byte	$4D
	.byte	$0F
	.byte	$0E
	.byte	$0C
	.byte	$36
	.byte	$00
	.byte	$00
	.byte	$4D
	.byte	$4D
	.byte	$00
	.byte	$1C
	.byte	$77
	.byte	$78
	.byte	$00
	.byte	$00
	.byte	$67
	.byte	$78
	.byte	$00
	.byte	$00
	.byte	$1E
	.byte	$36
	.byte	$1F
	.byte	$1D
	.byte	$77
	.byte	$68
	.byte	$1D
	.byte	$0C
	.byte	$4D
	.byte	$4D
	.byte	$1F
	.byte	$1D
	.byte	$77
	.byte	$68
	.byte	$1F
	.byte	$00
	.byte	$0E
	.byte	$36
	.byte	$3C
	.byte	$3C
	.byte	$3C
	.byte	$3C
	.byte	$3C
	.byte	$3C
	.byte	$3C
	.byte	$3C
	.byte	$3C
	.byte	$3C
	.byte	$3C
	.byte	$3C
	.byte	$3C
	.byte	$00
	.byte	$1D
	.byte	$36
	.byte	$0F
	.byte	$2B
	.byte	$2C
	.byte	$2B
	.byte	$2C
	.byte	$2B
	.byte	$2C
	.byte	$1D
	.byte	$0D
	.byte	$0F
	.byte	$22
	.byte	$21
	.byte	$21
	.byte	$00
	.byte	$0C
	.byte	$36
	.byte	$1C
	.byte	$4B
	.byte	$00
	.byte	$1C
	.byte	$00
	.byte	$00
	.byte	$00
	.byte	$00
	.byte	$00
	.byte	$00
	.byte	$00
	.byte	$1C
	.byte	$1D
	.byte	$1E
	.byte	$0C
	.byte	$36
	.byte	$1F
	.byte	$1B
	.byte	$2A
	.byte	$2A
	.byte	$1B
	.byte	$1D
	.byte	$2A
	.byte	$00
	.byte	$00
	.byte	$1D
	.byte	$1E
	.byte	$0C
	.byte	$0C
	.byte	$0C
	.byte	$0C
	.byte	$36
_level15_0:
	.byte	$A0
	.byte	$A0
	.byte	$A0
	.byte	$A0
	.byte	$A0
	.byte	$A0
	.byte	$A0
	.byte	$A0
	.byte	$A0
	.byte	$A0
	.byte	$A0
	.byte	$A0
	.byte	$A0
	.byte	$A0
	.byte	$A0
	.byte	$A0
	.byte	$A0
	.byte	$A0
	.byte	$A0
	.byte	$A0
	.byte	$A0
	.byte	$A0
	.byte	$A0
	.byte	$A0
	.byte	$A0
	.byte	$A0
	.byte	$A0
	.byte	$A0
	.byte	$A0
	.byte	$A0
	.byte	$A0
	.byte	$A0
	.byte	$69
	.byte	$69
	.byte	$69
	.byte	$69
	.byte	$69
	.byte	$69
	.byte	$69
	.byte	$69
	.byte	$69
	.byte	$69
	.byte	$69
	.byte	$69
	.byte	$69
	.byte	$69
	.byte	$69
	.byte	$69
	.byte	$69
	.byte	$69
	.byte	$7A
	.byte	$69
	.byte	$69
	.byte	$69
	.byte	$69
	.byte	$69
	.byte	$69
	.byte	$69
	.byte	$69
	.byte	$69
	.byte	$69
	.byte	$69
	.byte	$69
	.byte	$69
	.byte	$69
	.byte	$7A
	.byte	$69
	.byte	$7A
	.byte	$69
	.byte	$69
	.byte	$69
	.byte	$69
	.byte	$69
	.byte	$69
	.byte	$69
	.byte	$69
	.byte	$69
	.byte	$69
	.byte	$69
	.byte	$69
	.byte	$69
	.byte	$69
	.byte	$7A
	.byte	$69
	.byte	$69
	.byte	$69
	.byte	$69
	.byte	$69
	.byte	$69
	.byte	$69
	.byte	$69
	.byte	$7A
	.byte	$69
	.byte	$7A
	.byte	$69
	.byte	$69
	.byte	$69
	.byte	$69
	.byte	$69
	.byte	$69
	.byte	$69
	.byte	$69
	.byte	$7A
	.byte	$69
	.byte	$7A
	.byte	$69
	.byte	$69
	.byte	$69
	.byte	$69
	.byte	$69
	.byte	$69
	.byte	$69
	.byte	$4E
	.byte	$4E
	.byte	$4E
	.byte	$4E
	.byte	$4E
	.byte	$4E
	.byte	$4E
	.byte	$4E
	.byte	$4E
	.byte	$4E
	.byte	$4E
	.byte	$4E
	.byte	$4E
	.byte	$4E
	.byte	$4E
	.byte	$4E
	.byte	$3A
	.byte	$21
	.byte	$1E
	.byte	$3A
	.byte	$0F
	.byte	$0D
	.byte	$0F
	.byte	$3A
	.byte	$3A
	.byte	$0F
	.byte	$3C
	.byte	$4C
	.byte	$4C
	.byte	$3C
	.byte	$0C
	.byte	$3A
	.byte	$3B
	.byte	$1E
	.byte	$0D
	.byte	$3A
	.byte	$00
	.byte	$4B
	.byte	$00
	.byte	$3A
	.byte	$3A
	.byte	$00
	.byte	$3C
	.byte	$3C
	.byte	$3C
	.byte	$3C
	.byte	$0F
	.byte	$3A
	.byte	$3A
	.byte	$0D
	.byte	$0D
	.byte	$3C
	.byte	$00
	.byte	$00
	.byte	$00
	.byte	$3A
	.byte	$3B
	.byte	$00
	.byte	$00
	.byte	$00
	.byte	$00
	.byte	$00
	.byte	$00
	.byte	$3A
	.byte	$3B
	.byte	$0C
	.byte	$0D
	.byte	$0C
	.byte	$1F
	.byte	$00
	.byte	$00
	.byte	$3A
	.byte	$3A
	.byte	$00
	.byte	$00
	.byte	$3C
	.byte	$00
	.byte	$00
	.byte	$00
	.byte	$3B
	.byte	$3B
	.byte	$0C
	.byte	$3A
	.byte	$3C
	.byte	$3C
	.byte	$3A
	.byte	$1F
	.byte	$3A
	.byte	$3B
	.byte	$00
	.byte	$1E
	.byte	$3C
	.byte	$1E
	.byte	$0C
	.byte	$1F
	.byte	$3A
	.byte	$3A
	.byte	$0D
	.byte	$3A
	.byte	$4C
	.byte	$4C
	.byte	$3A
	.byte	$0C
	.byte	$3A
	.byte	$3A
	.byte	$1E
	.byte	$0D
	.byte	$3C
	.byte	$0C
	.byte	$0C
	.byte	$0C
	.byte	$3A
	.byte	$3C
	.byte	$3C
	.byte	$3C
	.byte	$3C
	.byte	$3C
	.byte	$3C
	.byte	$3C
	.byte	$3C
	.byte	$3C
	.byte	$3C
	.byte	$3C
	.byte	$3C
	.byte	$3C
	.byte	$3C
	.byte	$3C
	.byte	$3C
_level16_0:
	.byte	$A0
	.byte	$A0
	.byte	$A0
	.byte	$A0
	.byte	$A0
	.byte	$A0
	.byte	$A0
	.byte	$A0
	.byte	$A0
	.byte	$A0
	.byte	$A0
	.byte	$A0
	.byte	$A0
	.byte	$A0
	.byte	$A0
	.byte	$A0
	.byte	$A0
	.byte	$A0
	.byte	$A0
	.byte	$A0
	.byte	$A0
	.byte	$A0
	.byte	$A0
	.byte	$A0
	.byte	$A0
	.byte	$A0
	.byte	$A0
	.byte	$A0
	.byte	$A0
	.byte	$A0
	.byte	$A0
	.byte	$A0
	.byte	$0D
	.byte	$0C
	.byte	$0D
	.byte	$0C
	.byte	$0D
	.byte	$0D
	.byte	$0C
	.byte	$0C
	.byte	$0C
	.byte	$0D
	.byte	$0D
	.byte	$0D
	.byte	$0C
	.byte	$0D
	.byte	$0D
	.byte	$0D
	.byte	$0C
	.byte	$0E
	.byte	$3A
	.byte	$3C
	.byte	$3C
	.byte	$3C
	.byte	$3C
	.byte	$3C
	.byte	$3C
	.byte	$3C
	.byte	$3C
	.byte	$3C
	.byte	$3C
	.byte	$3A
	.byte	$0C
	.byte	$0E
	.byte	$0F
	.byte	$00
	.byte	$3B
	.byte	$A0
	.byte	$A0
	.byte	$A0
	.byte	$A0
	.byte	$A0
	.byte	$A0
	.byte	$A0
	.byte	$A0
	.byte	$A0
	.byte	$A0
	.byte	$3B
	.byte	$0E
	.byte	$0D
	.byte	$00
	.byte	$00
	.byte	$3A
	.byte	$A0
	.byte	$A0
	.byte	$A0
	.byte	$A0
	.byte	$A0
	.byte	$A0
	.byte	$A0
	.byte	$A0
	.byte	$A0
	.byte	$A0
	.byte	$3A
	.byte	$00
	.byte	$0E
	.byte	$00
	.byte	$00
	.byte	$3A
	.byte	$A0
	.byte	$A0
	.byte	$6C
	.byte	$A0
	.byte	$A0
	.byte	$A0
	.byte	$A0
	.byte	$A0
	.byte	$A0
	.byte	$A0
	.byte	$3A
	.byte	$00
	.byte	$00
	.byte	$00
	.byte	$00
	.byte	$3C
	.byte	$3C
	.byte	$3C
	.byte	$3C
	.byte	$3C
	.byte	$3C
	.byte	$3C
	.byte	$3C
	.byte	$3C
	.byte	$3C
	.byte	$3C
	.byte	$3C
	.byte	$00
	.byte	$00
	.byte	$00
	.byte	$00
	.byte	$00
	.byte	$00
	.byte	$00
	.byte	$00
	.byte	$00
	.byte	$00
	.byte	$00
	.byte	$00
	.byte	$00
	.byte	$00
	.byte	$00
	.byte	$00
	.byte	$00
	.byte	$00
	.byte	$00
	.byte	$00
	.byte	$00
	.byte	$00
	.byte	$00
	.byte	$00
	.byte	$00
	.byte	$00
	.byte	$00
	.byte	$00
	.byte	$00
	.byte	$00
	.byte	$00
	.byte	$00
	.byte	$4B
	.byte	$00
	.byte	$00
	.byte	$00
	.byte	$00
	.byte	$00
	.byte	$00
	.byte	$00
	.byte	$00
	.byte	$00
	.byte	$00
	.byte	$00
	.byte	$00
	.byte	$00
	.byte	$00
	.byte	$00
	.byte	$00
	.byte	$00
	.byte	$79
	.byte	$69
	.byte	$69
	.byte	$69
	.byte	$69
	.byte	$69
	.byte	$69
	.byte	$69
	.byte	$69
	.byte	$69
	.byte	$69
	.byte	$69
	.byte	$69
	.byte	$69
	.byte	$69
	.byte	$7B
	.byte	$79
	.byte	$69
	.byte	$69
	.byte	$69
	.byte	$69
	.byte	$69
	.byte	$69
	.byte	$69
	.byte	$69
	.byte	$69
	.byte	$69
	.byte	$69
	.byte	$69
	.byte	$69
	.byte	$69
	.byte	$7B
	.byte	$79
	.byte	$69
	.byte	$69
	.byte	$69
	.byte	$69
	.byte	$69
	.byte	$69
	.byte	$69
	.byte	$69
	.byte	$69
	.byte	$69
	.byte	$69
	.byte	$69
	.byte	$69
	.byte	$69
	.byte	$7B
	.byte	$89
	.byte	$8A
	.byte	$8A
	.byte	$8A
	.byte	$8A
	.byte	$8A
	.byte	$8A
	.byte	$8A
	.byte	$8A
	.byte	$8A
	.byte	$8A
	.byte	$8A
	.byte	$8A
	.byte	$8A
	.byte	$8A
	.byte	$8B
_level17_0:
	.byte	$A0
	.byte	$A0
	.byte	$A0
	.byte	$A0
	.byte	$A0
	.byte	$A0
	.byte	$A0
	.byte	$A0
	.byte	$A0
	.byte	$A0
	.byte	$A0
	.byte	$A0
	.byte	$A0
	.byte	$A0
	.byte	$A0
	.byte	$A0
	.byte	$A0
	.byte	$A0
	.byte	$A0
	.byte	$A0
	.byte	$A0
	.byte	$A0
	.byte	$A0
	.byte	$A0
	.byte	$A0
	.byte	$A0
	.byte	$A0
	.byte	$A0
	.byte	$A0
	.byte	$A0
	.byte	$A0
	.byte	$A0
	.byte	$3E
	.byte	$3F
	.byte	$3D
	.byte	$3E
	.byte	$3D
	.byte	$3E
	.byte	$3E
	.byte	$3D
	.byte	$3E
	.byte	$3E
	.byte	$3F
	.byte	$3E
	.byte	$3E
	.byte	$3E
	.byte	$3E
	.byte	$3F
	.byte	$01
	.byte	$00
	.byte	$04
	.byte	$08
	.byte	$02
	.byte	$00
	.byte	$06
	.byte	$04
	.byte	$01
	.byte	$00
	.byte	$00
	.byte	$0A
	.byte	$4F
	.byte	$4B
	.byte	$5F
	.byte	$11
	.byte	$00
	.byte	$0A
	.byte	$0A
	.byte	$04
	.byte	$04
	.byte	$0A
	.byte	$14
	.byte	$04
	.byte	$00
	.byte	$04
	.byte	$0A
	.byte	$01
	.byte	$4F
	.byte	$0A
	.byte	$5F
	.byte	$06
	.byte	$0A
	.byte	$00
	.byte	$0A
	.byte	$16
	.byte	$15
	.byte	$01
	.byte	$00
	.byte	$0A
	.byte	$0A
	.byte	$1A
	.byte	$00
	.byte	$14
	.byte	$3F
	.byte	$00
	.byte	$3D
	.byte	$04
	.byte	$11
	.byte	$04
	.byte	$04
	.byte	$04
	.byte	$00
	.byte	$0A
	.byte	$04
	.byte	$0A
	.byte	$01
	.byte	$00
	.byte	$04
	.byte	$00
	.byte	$0A
	.byte	$00
	.byte	$00
	.byte	$0A
	.byte	$0A
	.byte	$00
	.byte	$0A
	.byte	$11
	.byte	$16
	.byte	$16
	.byte	$01
	.byte	$00
	.byte	$0A
	.byte	$0A
	.byte	$01
	.byte	$14
	.byte	$0A
	.byte	$0A
	.byte	$00
	.byte	$01
	.byte	$3C
	.byte	$3C
	.byte	$3C
	.byte	$3C
	.byte	$3C
	.byte	$3C
	.byte	$3C
	.byte	$3C
	.byte	$3C
	.byte	$3C
	.byte	$3C
	.byte	$3C
	.byte	$3C
	.byte	$3C
	.byte	$3C
	.byte	$3C
	.byte	$AA
	.byte	$79
	.byte	$69
	.byte	$AA
	.byte	$69
	.byte	$69
	.byte	$69
	.byte	$AA
	.byte	$69
	.byte	$AA
	.byte	$7B
	.byte	$69
	.byte	$6C
	.byte	$6C
	.byte	$69
	.byte	$AA
	.byte	$69
	.byte	$79
	.byte	$69
	.byte	$69
	.byte	$69
	.byte	$69
	.byte	$69
	.byte	$69
	.byte	$69
	.byte	$69
	.byte	$7B
	.byte	$69
	.byte	$6C
	.byte	$6C
	.byte	$69
	.byte	$69
	.byte	$69
	.byte	$89
	.byte	$8A
	.byte	$8A
	.byte	$8A
	.byte	$8A
	.byte	$8A
	.byte	$8A
	.byte	$8A
	.byte	$8A
	.byte	$8B
	.byte	$69
	.byte	$6C
	.byte	$6C
	.byte	$69
	.byte	$69
	.byte	$69
	.byte	$69
	.byte	$8A
	.byte	$8A
	.byte	$69
	.byte	$8A
	.byte	$8A
	.byte	$69
	.byte	$69
	.byte	$69
	.byte	$69
	.byte	$69
	.byte	$6C
	.byte	$6C
	.byte	$69
	.byte	$69
	.byte	$69
	.byte	$69
	.byte	$89
	.byte	$8B
	.byte	$69
	.byte	$89
	.byte	$8B
	.byte	$69
	.byte	$69
	.byte	$69
	.byte	$69
	.byte	$69
	.byte	$7D
	.byte	$7D
	.byte	$69
	.byte	$69
	.byte	$69
	.byte	$69
	.byte	$69
	.byte	$69
	.byte	$69
	.byte	$69
	.byte	$69
	.byte	$69
	.byte	$69
	.byte	$69
	.byte	$69
	.byte	$69
	.byte	$6C
	.byte	$6C
	.byte	$69
	.byte	$69
_bigperry_0:
	.byte	$A0
	.byte	$A0
	.byte	$A0
	.byte	$A0
	.byte	$A1
	.byte	$A1
	.byte	$A1
	.byte	$A1
	.byte	$A1
	.byte	$A1
	.byte	$A1
	.byte	$A0
	.byte	$A0
	.byte	$A0
	.byte	$A0
	.byte	$A0
	.byte	$A0
	.byte	$A1
	.byte	$A0
	.byte	$A1
	.byte	$A1
	.byte	$A3
	.byte	$A3
	.byte	$A1
	.byte	$A3
	.byte	$A3
	.byte	$A1
	.byte	$A1
	.byte	$A0
	.byte	$A0
	.byte	$A0
	.byte	$A0
	.byte	$A0
	.byte	$A0
	.byte	$A1
	.byte	$A1
	.byte	$A1
	.byte	$A1
	.byte	$A2
	.byte	$A1
	.byte	$A2
	.byte	$A1
	.byte	$A1
	.byte	$A1
	.byte	$A1
	.byte	$A0
	.byte	$A0
	.byte	$A0
	.byte	$A0
	.byte	$A1
	.byte	$A1
	.byte	$A1
	.byte	$A1
	.byte	$A2
	.byte	$A0
	.byte	$A1
	.byte	$A0
	.byte	$A2
	.byte	$A1
	.byte	$A1
	.byte	$A1
	.byte	$A1
	.byte	$A0
	.byte	$A0
	.byte	$A3
	.byte	$A1
	.byte	$A1
	.byte	$A1
	.byte	$A1
	.byte	$A2
	.byte	$A2
	.byte	$A1
	.byte	$A2
	.byte	$A2
	.byte	$A1
	.byte	$A1
	.byte	$A1
	.byte	$A1
	.byte	$A3
	.byte	$A0
	.byte	$A3
	.byte	$A1
	.byte	$A1
	.byte	$A1
	.byte	$A1
	.byte	$A1
	.byte	$A1
	.byte	$A1
	.byte	$A1
	.byte	$A1
	.byte	$A1
	.byte	$A1
	.byte	$A1
	.byte	$A1
	.byte	$A3
	.byte	$A0
	.byte	$A3
	.byte	$A1
	.byte	$A1
	.byte	$A3
	.byte	$A1
	.byte	$A1
	.byte	$A3
	.byte	$A3
	.byte	$A3
	.byte	$A1
	.byte	$A1
	.byte	$A3
	.byte	$A1
	.byte	$A1
	.byte	$A3
	.byte	$A0
	.byte	$A3
	.byte	$A1
	.byte	$A1
	.byte	$A1
	.byte	$A3
	.byte	$A1
	.byte	$A1
	.byte	$A3
	.byte	$A1
	.byte	$A1
	.byte	$A3
	.byte	$A1
	.byte	$A1
	.byte	$A1
	.byte	$A3
	.byte	$A0
	.byte	$A0
	.byte	$A3
	.byte	$A1
	.byte	$A1
	.byte	$A3
	.byte	$A1
	.byte	$A4
	.byte	$A4
	.byte	$A4
	.byte	$A1
	.byte	$A3
	.byte	$A1
	.byte	$A1
	.byte	$A3
	.byte	$A0
	.byte	$A0
	.byte	$A0
	.byte	$A0
	.byte	$A3
	.byte	$A3
	.byte	$A1
	.byte	$A1
	.byte	$A1
	.byte	$A4
	.byte	$A4
	.byte	$A1
	.byte	$A1
	.byte	$A3
	.byte	$A3
	.byte	$A0
	.byte	$A0
	.byte	$A0
	.byte	$A0
	.byte	$A0
	.byte	$A0
	.byte	$A1
	.byte	$A1
	.byte	$A1
	.byte	$A1
	.byte	$A1
	.byte	$A1
	.byte	$A1
	.byte	$A1
	.byte	$A1
	.byte	$A0
	.byte	$A0
	.byte	$A0
	.byte	$A0
	.byte	$A0
	.byte	$A0
	.byte	$A3
	.byte	$A1
	.byte	$A3
	.byte	$A1
	.byte	$A3
	.byte	$A1
	.byte	$A3
	.byte	$A1
	.byte	$A3
	.byte	$A1
	.byte	$A3
	.byte	$A0
	.byte	$A0
	.byte	$A0
	.byte	$A0
	.byte	$A0
	.byte	$A3
	.byte	$A1
	.byte	$A1
	.byte	$A3
	.byte	$A3
	.byte	$A1
	.byte	$A3
	.byte	$A3
	.byte	$A1
	.byte	$A1
	.byte	$A3
	.byte	$A0
	.byte	$A0
	.byte	$A0
	.byte	$A0
	.byte	$A0
	.byte	$A0
	.byte	$A3
	.byte	$A1
	.byte	$A1
	.byte	$A1
	.byte	$A1
	.byte	$A1
	.byte	$A1
	.byte	$A1
	.byte	$A3
	.byte	$A0
	.byte	$A0
	.byte	$A0
	.byte	$A0
	.byte	$A0
	.byte	$A0
	.byte	$A0
	.byte	$A0
	.byte	$A1
	.byte	$A1
	.byte	$A1
	.byte	$A0
	.byte	$A1
	.byte	$A1
	.byte	$A1
	.byte	$A0
	.byte	$A0
	.byte	$A0
	.byte	$A0
	.byte	$A0
_Level_List:
	.addr	_level1_0
	.addr	_level2_0
	.addr	_level3_0
	.addr	_level4_0
	.addr	_level6_0
	.addr	_level5_0
	.addr	_level7_0
	.addr	_level8_0
	.addr	_level12_0
	.addr	_bigperry_0
_level_text:
	.addr	L180D
	.addr	L180F
	.addr	L1811
	.addr	L1813
	.addr	L1815
	.addr	L1817
	.addr	L1819
	.addr	L181B
	.addr	L181D
	.addr	L181F
	.addr	L1821
	.addr	L1823
	.addr	L1825
	.addr	L1827
	.addr	L1829
	.addr	L182B
	.addr	L182D
_level_text_length:
	.byte	$0A
	.byte	$0D
	.byte	$10
	.byte	$0A
	.byte	$0A
	.byte	$0F
	.byte	$0E
	.byte	$0D
	.byte	$14
	.byte	$0D
	.byte	$0A
	.byte	$07
	.byte	$0F
	.byte	$0B
	.byte	$07
	.byte	$10
	.byte	$0D
_level_player_x:
	.byte	$20
	.byte	$20
	.byte	$10
	.byte	$10
	.byte	$E0
	.byte	$0B
	.byte	$20
	.byte	$70
	.byte	$80
	.byte	$60
	.byte	$20
	.byte	$80
	.byte	$20
	.byte	$10
	.byte	$10
	.byte	$10
	.byte	$20
_level_player_y:
	.byte	$40
	.byte	$40
	.byte	$30
	.byte	$30
	.byte	$40
	.byte	$20
	.byte	$30
	.byte	$B0
	.byte	$50
	.byte	$20
	.byte	$B0
	.byte	$B0
	.byte	$50
	.byte	$20
	.byte	$80
	.byte	$90
	.byte	$50
_palette_perrypuzzlesprites_a:
	.byte	$1A
	.byte	$30
	.byte	$0F
	.byte	$15
	.byte	$1A
	.byte	$11
	.byte	$21
	.byte	$20
	.byte	$1A
	.byte	$38
	.byte	$17
	.byte	$07
	.byte	$1A
	.byte	$0F
	.byte	$2D
	.byte	$3D
_palette_perrytileset_a:
	.byte	$1A
	.byte	$30
	.byte	$0F
	.byte	$00
	.byte	$1A
	.byte	$21
	.byte	$11
	.byte	$30
	.byte	$1A
	.byte	$38
	.byte	$17
	.byte	$07
	.byte	$1A
	.byte	$17
	.byte	$2A
	.byte	$0F
_title_bg_palette:
	.byte	$0F
	.byte	$30
	.byte	$1A
	.byte	$15
	.byte	$0F
	.byte	$21
	.byte	$11
	.byte	$1A
	.byte	$0F
	.byte	$38
	.byte	$17
	.byte	$07
	.byte	$0F
	.byte	$17
	.byte	$2A
	.byte	$1A
_metatile_colision_map:
	.byte	$00
	.byte	$00
	.byte	$00
	.byte	$00
	.byte	$00
	.byte	$00
	.byte	$00
	.byte	$00
	.byte	$00
	.byte	$00
	.byte	$00
	.byte	$00
	.byte	$00
	.byte	$00
	.byte	$00
	.byte	$00
	.byte	$00
	.byte	$00
	.byte	$00
	.byte	$00
	.byte	$00
	.byte	$00
	.byte	$00
	.byte	$00
	.byte	$00
	.byte	$00
	.byte	$00
	.byte	$00
	.byte	$00
	.byte	$00
	.byte	$00
	.byte	$00
	.byte	$00
	.byte	$00
	.byte	$00
	.byte	$00
	.byte	$00
	.byte	$00
	.byte	$00
	.byte	$00
	.byte	$00
	.byte	$00
	.byte	$00
	.byte	$00
	.byte	$00
	.byte	$00
	.byte	$00
	.byte	$00
	.byte	$00
	.byte	$01
	.byte	$01
	.byte	$01
	.byte	$01
	.byte	$01
	.byte	$01
	.byte	$01
	.byte	$01
	.byte	$01
	.byte	$01
	.byte	$01
	.byte	$01
	.byte	$01
	.byte	$01
	.byte	$01
	.byte	$00
	.byte	$00
	.byte	$00
	.byte	$00
	.byte	$00
	.byte	$00
	.byte	$00
	.byte	$00
	.byte	$00
	.byte	$00
	.byte	$00
	.byte	$02
	.byte	$01
	.byte	$00
	.byte	$01
	.byte	$01
	.byte	$00
	.byte	$00
	.byte	$00
	.byte	$00
	.byte	$00
	.byte	$00
	.byte	$00
	.byte	$00
	.byte	$00
	.byte	$00
	.byte	$00
	.byte	$00
	.byte	$00
	.byte	$00
	.byte	$00
	.byte	$01
	.byte	$00
	.byte	$00
	.byte	$00
	.byte	$01
	.byte	$01
	.byte	$01
	.byte	$01
	.byte	$00
	.byte	$00
	.byte	$00
	.byte	$00
	.byte	$00
	.byte	$00
	.byte	$00
	.byte	$00
	.byte	$00
	.byte	$00
	.byte	$00
	.byte	$00
	.byte	$01
	.byte	$00
	.byte	$01
	.byte	$01
	.byte	$00
	.byte	$00
	.byte	$00
	.byte	$00
	.byte	$00
	.byte	$00
	.byte	$00
	.byte	$00
	.byte	$00
	.byte	$00
	.byte	$00
	.byte	$00
	.byte	$01
	.byte	$01
	.byte	$01
	.byte	$00
	.byte	$00
	.byte	$00
	.byte	$00
	.byte	$00
	.byte	$00
	.byte	$00
	.byte	$00
	.byte	$00
	.byte	$00
	.byte	$00
	.byte	$00
	.byte	$00
	.byte	$00
	.byte	$00
	.byte	$00
	.byte	$00
	.byte	$00
	.byte	$00
	.byte	$00
	.byte	$00
	.byte	$00
	.byte	$00
	.byte	$00
	.byte	$00
	.byte	$00
	.byte	$01
	.byte	$00
	.byte	$00
	.byte	$00
	.byte	$00
	.byte	$00
	.byte	$00
	.byte	$00
	.byte	$00
	.byte	$00
	.byte	$00
	.byte	$00
	.byte	$00
	.byte	$00
	.byte	$00
	.byte	$00
	.byte	$00
	.byte	$00
	.byte	$00
	.byte	$00
	.byte	$00
	.byte	$00
	.byte	$00
	.byte	$00
	.byte	$00
	.byte	$00
	.byte	$00
	.byte	$00
	.byte	$00
	.byte	$00
	.byte	$00
	.byte	$00
	.byte	$00
	.byte	$00
	.byte	$00
	.byte	$00
	.byte	$00
	.byte	$00
	.byte	$00
	.byte	$00
	.byte	$00
	.byte	$00
	.byte	$00
	.byte	$00
	.byte	$00
	.byte	$00
	.byte	$00
	.byte	$00
	.byte	$00
	.byte	$00
	.byte	$00
	.byte	$00
	.byte	$00
	.byte	$00
	.byte	$00
	.byte	$00
	.byte	$00
	.byte	$00
	.byte	$00
	.byte	$00
	.byte	$00
	.byte	$00
	.byte	$00
	.byte	$00
	.byte	$00
	.byte	$00
	.byte	$00
	.byte	$00
	.byte	$00
	.byte	$00
	.byte	$00
	.byte	$00
	.byte	$00
	.byte	$00
	.byte	$00
	.byte	$00
	.byte	$00
	.byte	$00
	.byte	$00
	.byte	$00
_perrytiles:
	.byte	$00
	.byte	$00
	.byte	$00
	.byte	$00
	.byte	$01
	.byte	$1E
	.byte	$1E
	.byte	$1F
	.byte	$1E
	.byte	$03
	.byte	$1E
	.byte	$00
	.byte	$00
	.byte	$00
	.byte	$03
	.byte	$00
	.byte	$1E
	.byte	$00
	.byte	$00
	.byte	$03
	.byte	$00
	.byte	$00
	.byte	$1E
	.byte	$00
	.byte	$03
	.byte	$00
	.byte	$00
	.byte	$00
	.byte	$1E
	.byte	$03
	.byte	$1F
	.byte	$00
	.byte	$00
	.byte	$00
	.byte	$03
	.byte	$00
	.byte	$00
	.byte	$1F
	.byte	$00
	.byte	$03
	.byte	$00
	.byte	$1F
	.byte	$00
	.byte	$00
	.byte	$03
	.byte	$00
	.byte	$00
	.byte	$00
	.byte	$1F
	.byte	$03
	.byte	$1E
	.byte	$00
	.byte	$00
	.byte	$1F
	.byte	$03
	.byte	$00
	.byte	$00
	.byte	$00
	.byte	$00
	.byte	$00
	.byte	$0E
	.byte	$0E
	.byte	$0E
	.byte	$0E
	.byte	$03
	.byte	$0F
	.byte	$0F
	.byte	$0F
	.byte	$0F
	.byte	$03
	.byte	$0E
	.byte	$0E
	.byte	$00
	.byte	$0E
	.byte	$03
	.byte	$0E
	.byte	$0E
	.byte	$0E
	.byte	$00
	.byte	$03
	.byte	$00
	.byte	$00
	.byte	$00
	.byte	$00
	.byte	$00
	.byte	$0C
	.byte	$0C
	.byte	$0D
	.byte	$0C
	.byte	$03
	.byte	$0C
	.byte	$00
	.byte	$00
	.byte	$00
	.byte	$03
	.byte	$00
	.byte	$0C
	.byte	$00
	.byte	$00
	.byte	$03
	.byte	$00
	.byte	$00
	.byte	$0C
	.byte	$00
	.byte	$03
	.byte	$00
	.byte	$00
	.byte	$00
	.byte	$0C
	.byte	$03
	.byte	$0D
	.byte	$00
	.byte	$00
	.byte	$00
	.byte	$03
	.byte	$00
	.byte	$00
	.byte	$0D
	.byte	$00
	.byte	$03
	.byte	$00
	.byte	$0D
	.byte	$00
	.byte	$00
	.byte	$03
	.byte	$00
	.byte	$00
	.byte	$00
	.byte	$0D
	.byte	$03
	.byte	$0C
	.byte	$00
	.byte	$00
	.byte	$0D
	.byte	$03
	.byte	$00
	.byte	$1D
	.byte	$00
	.byte	$00
	.byte	$00
	.byte	$00
	.byte	$00
	.byte	$0E
	.byte	$00
	.byte	$03
	.byte	$00
	.byte	$00
	.byte	$00
	.byte	$0F
	.byte	$03
	.byte	$00
	.byte	$0F
	.byte	$0F
	.byte	$0F
	.byte	$03
	.byte	$0E
	.byte	$00
	.byte	$0E
	.byte	$0E
	.byte	$03
	.byte	$00
	.byte	$00
	.byte	$00
	.byte	$00
	.byte	$00
	.byte	$8D
	.byte	$9D
	.byte	$00
	.byte	$00
	.byte	$02
	.byte	$9C
	.byte	$8D
	.byte	$00
	.byte	$00
	.byte	$02
	.byte	$00
	.byte	$00
	.byte	$7C
	.byte	$7D
	.byte	$02
	.byte	$00
	.byte	$00
	.byte	$7D
	.byte	$7E
	.byte	$02
	.byte	$9D
	.byte	$00
	.byte	$9C
	.byte	$00
	.byte	$02
	.byte	$00
	.byte	$8D
	.byte	$00
	.byte	$7E
	.byte	$02
	.byte	$00
	.byte	$00
	.byte	$00
	.byte	$00
	.byte	$00
	.byte	$00
	.byte	$00
	.byte	$00
	.byte	$00
	.byte	$00
	.byte	$00
	.byte	$00
	.byte	$00
	.byte	$00
	.byte	$00
	.byte	$1C
	.byte	$00
	.byte	$00
	.byte	$00
	.byte	$02
	.byte	$00
	.byte	$00
	.byte	$00
	.byte	$1D
	.byte	$02
	.byte	$00
	.byte	$00
	.byte	$00
	.byte	$1C
	.byte	$00
	.byte	$00
	.byte	$00
	.byte	$00
	.byte	$00
	.byte	$00
	.byte	$00
	.byte	$00
	.byte	$00
	.byte	$00
	.byte	$00
	.byte	$00
	.byte	$00
	.byte	$00
	.byte	$00
	.byte	$00
	.byte	$00
	.byte	$00
	.byte	$00
	.byte	$00
	.byte	$00
	.byte	$A4
	.byte	$A5
	.byte	$B4
	.byte	$B5
	.byte	$02
	.byte	$A6
	.byte	$A7
	.byte	$B6
	.byte	$B7
	.byte	$02
	.byte	$A8
	.byte	$A9
	.byte	$B8
	.byte	$B9
	.byte	$02
	.byte	$C8
	.byte	$C9
	.byte	$D8
	.byte	$D9
	.byte	$02
	.byte	$C4
	.byte	$C5
	.byte	$D4
	.byte	$D5
	.byte	$02
	.byte	$C6
	.byte	$C7
	.byte	$D6
	.byte	$D7
	.byte	$02
	.byte	$E4
	.byte	$E5
	.byte	$F4
	.byte	$F5
	.byte	$02
	.byte	$E6
	.byte	$E7
	.byte	$F6
	.byte	$F7
	.byte	$02
	.byte	$E8
	.byte	$E9
	.byte	$F8
	.byte	$F5
	.byte	$02
	.byte	$8E
	.byte	$8F
	.byte	$9E
	.byte	$9F
	.byte	$03
	.byte	$9E
	.byte	$9F
	.byte	$8E
	.byte	$8F
	.byte	$03
	.byte	$AC
	.byte	$AD
	.byte	$BC
	.byte	$BD
	.byte	$03
	.byte	$84
	.byte	$85
	.byte	$94
	.byte	$95
	.byte	$02
	.byte	$86
	.byte	$87
	.byte	$96
	.byte	$97
	.byte	$02
	.byte	$88
	.byte	$89
	.byte	$98
	.byte	$99
	.byte	$02
	.byte	$00
	.byte	$00
	.byte	$00
	.byte	$00
	.byte	$00
	.byte	$00
	.byte	$00
	.byte	$00
	.byte	$00
	.byte	$00
	.byte	$00
	.byte	$00
	.byte	$00
	.byte	$00
	.byte	$00
	.byte	$00
	.byte	$00
	.byte	$00
	.byte	$00
	.byte	$00
	.byte	$00
	.byte	$00
	.byte	$00
	.byte	$00
	.byte	$00
	.byte	$00
	.byte	$00
	.byte	$00
	.byte	$00
	.byte	$00
	.byte	$00
	.byte	$00
	.byte	$00
	.byte	$00
	.byte	$00
	.byte	$00
	.byte	$00
	.byte	$F2
	.byte	$F3
	.byte	$00
	.byte	$00
	.byte	$00
	.byte	$10
	.byte	$12
	.byte	$02
	.byte	$00
	.byte	$00
	.byte	$12
	.byte	$11
	.byte	$02
	.byte	$00
	.byte	$00
	.byte	$12
	.byte	$12
	.byte	$02
	.byte	$AE
	.byte	$AF
	.byte	$BE
	.byte	$BF
	.byte	$00
	.byte	$C2
	.byte	$C3
	.byte	$D2
	.byte	$D3
	.byte	$03
	.byte	$C0
	.byte	$C1
	.byte	$D0
	.byte	$D1
	.byte	$02
	.byte	$8A
	.byte	$85
	.byte	$9A
	.byte	$95
	.byte	$02
	.byte	$8B
	.byte	$00
	.byte	$8B
	.byte	$00
	.byte	$02
	.byte	$00
	.byte	$00
	.byte	$00
	.byte	$00
	.byte	$00
	.byte	$00
	.byte	$00
	.byte	$00
	.byte	$00
	.byte	$00
	.byte	$00
	.byte	$00
	.byte	$00
	.byte	$00
	.byte	$00
	.byte	$00
	.byte	$00
	.byte	$00
	.byte	$00
	.byte	$00
	.byte	$00
	.byte	$00
	.byte	$00
	.byte	$00
	.byte	$00
	.byte	$00
	.byte	$00
	.byte	$00
	.byte	$00
	.byte	$00
	.byte	$00
	.byte	$00
	.byte	$00
	.byte	$00
	.byte	$00
	.byte	$00
	.byte	$00
	.byte	$00
	.byte	$00
	.byte	$00
	.byte	$00
	.byte	$00
	.byte	$00
	.byte	$00
	.byte	$00
	.byte	$00
	.byte	$00
	.byte	$00
	.byte	$00
	.byte	$00
	.byte	$00
	.byte	$00
	.byte	$00
	.byte	$00
	.byte	$00
	.byte	$00
	.byte	$00
	.byte	$00
	.byte	$00
	.byte	$00
	.byte	$00
	.byte	$00
	.byte	$00
	.byte	$00
	.byte	$00
	.byte	$00
	.byte	$00
	.byte	$00
	.byte	$00
	.byte	$00
	.byte	$00
	.byte	$00
	.byte	$00
	.byte	$00
	.byte	$00
	.byte	$00
	.byte	$9B
	.byte	$00
	.byte	$9B
	.byte	$02
	.byte	$CC
	.byte	$CD
	.byte	$DC
	.byte	$EE
	.byte	$02
	.byte	$CE
	.byte	$CE
	.byte	$EE
	.byte	$EE
	.byte	$02
	.byte	$CF
	.byte	$CD
	.byte	$EE
	.byte	$DD
	.byte	$02
	.byte	$CC
	.byte	$CE
	.byte	$DC
	.byte	$02
	.byte	$01
	.byte	$CF
	.byte	$CE
	.byte	$DE
	.byte	$DF
	.byte	$01
	.byte	$CF
	.byte	$CD
	.byte	$DE
	.byte	$FF
	.byte	$01
	.byte	$DC
	.byte	$DD
	.byte	$FE
	.byte	$FF
	.byte	$01
	.byte	$FE
	.byte	$02
	.byte	$DC
	.byte	$02
	.byte	$01
	.byte	$02
	.byte	$ED
	.byte	$02
	.byte	$FF
	.byte	$01
	.byte	$03
	.byte	$03
	.byte	$03
	.byte	$03
	.byte	$00
	.byte	$B3
	.byte	$03
	.byte	$03
	.byte	$03
	.byte	$00
	.byte	$82
	.byte	$83
	.byte	$03
	.byte	$03
	.byte	$00
	.byte	$02
	.byte	$02
	.byte	$02
	.byte	$02
	.byte	$00
	.byte	$00
	.byte	$00
	.byte	$00
	.byte	$00
	.byte	$00
	.byte	$00
	.byte	$00
	.byte	$00
	.byte	$00
	.byte	$01
	.byte	$00
	.byte	$00
	.byte	$00
	.byte	$00
	.byte	$01
	.byte	$DC
	.byte	$EE
	.byte	$EC
	.byte	$EE
	.byte	$02
	.byte	$EE
	.byte	$EE
	.byte	$EE
	.byte	$EE
	.byte	$02
	.byte	$EE
	.byte	$ED
	.byte	$EE
	.byte	$DD
	.byte	$02
	.byte	$EC
	.byte	$DD
	.byte	$FE
	.byte	$ED
	.byte	$01
	.byte	$00
	.byte	$00
	.byte	$00
	.byte	$00
	.byte	$00
	.byte	$DC
	.byte	$ED
	.byte	$DC
	.byte	$DD
	.byte	$01
	.byte	$FE
	.byte	$ED
	.byte	$EC
	.byte	$DD
	.byte	$01
	.byte	$DC
	.byte	$02
	.byte	$DC
	.byte	$02
	.byte	$01
	.byte	$02
	.byte	$DD
	.byte	$02
	.byte	$ED
	.byte	$01
	.byte	$92
	.byte	$03
	.byte	$92
	.byte	$03
	.byte	$00
	.byte	$03
	.byte	$B1
	.byte	$03
	.byte	$03
	.byte	$00
	.byte	$03
	.byte	$93
	.byte	$03
	.byte	$93
	.byte	$00
	.byte	$5F
	.byte	$02
	.byte	$02
	.byte	$02
	.byte	$00
	.byte	$AA
	.byte	$AB
	.byte	$BA
	.byte	$BB
	.byte	$00
	.byte	$00
	.byte	$00
	.byte	$00
	.byte	$00
	.byte	$00
	.byte	$00
	.byte	$00
	.byte	$00
	.byte	$00
	.byte	$00
	.byte	$DC
	.byte	$EE
	.byte	$FC
	.byte	$DE
	.byte	$02
	.byte	$EE
	.byte	$EE
	.byte	$DF
	.byte	$DE
	.byte	$02
	.byte	$EE
	.byte	$DD
	.byte	$DF
	.byte	$FD
	.byte	$02
	.byte	$EC
	.byte	$DD
	.byte	$FC
	.byte	$DE
	.byte	$01
	.byte	$EF
	.byte	$CF
	.byte	$DF
	.byte	$DE
	.byte	$01
	.byte	$EF
	.byte	$ED
	.byte	$DE
	.byte	$FD
	.byte	$01
	.byte	$CF
	.byte	$CD
	.byte	$DF
	.byte	$FD
	.byte	$01
	.byte	$EF
	.byte	$CE
	.byte	$FC
	.byte	$DF
	.byte	$01
	.byte	$00
	.byte	$00
	.byte	$00
	.byte	$00
	.byte	$00
	.byte	$92
	.byte	$03
	.byte	$A2
	.byte	$A1
	.byte	$00
	.byte	$03
	.byte	$03
	.byte	$A1
	.byte	$A1
	.byte	$00
	.byte	$03
	.byte	$93
	.byte	$A1
	.byte	$A3
	.byte	$00
	.byte	$80
	.byte	$81
	.byte	$90
	.byte	$91
	.byte	$03
	.byte	$E0
	.byte	$E1
	.byte	$F0
	.byte	$F1
	.byte	$03
	.byte	$E0
	.byte	$E1
	.byte	$F0
	.byte	$F1
	.byte	$03
	.byte	$00
	.byte	$00
	.byte	$00
	.byte	$00
	.byte	$00
	.byte	$00
	.byte	$00
	.byte	$00
	.byte	$00
	.byte	$00
	.byte	$00
	.byte	$00
	.byte	$00
	.byte	$00
	.byte	$00
	.byte	$00
	.byte	$00
	.byte	$00
	.byte	$00
	.byte	$00
	.byte	$00
	.byte	$00
	.byte	$00
	.byte	$00
	.byte	$00
	.byte	$00
	.byte	$00
	.byte	$00
	.byte	$00
	.byte	$00
	.byte	$00
	.byte	$00
	.byte	$00
	.byte	$00
	.byte	$00
	.byte	$00
	.byte	$00
	.byte	$00
	.byte	$00
	.byte	$00
	.byte	$00
	.byte	$00
	.byte	$00
	.byte	$00
	.byte	$00
	.byte	$00
	.byte	$00
	.byte	$00
	.byte	$00
	.byte	$00
	.byte	$03
	.byte	$03
	.byte	$A1
	.byte	$B2
	.byte	$00
	.byte	$B0
	.byte	$03
	.byte	$03
	.byte	$03
	.byte	$00
	.byte	$A0
	.byte	$03
	.byte	$03
	.byte	$03
	.byte	$00
	.byte	$00
	.byte	$00
	.byte	$00
	.byte	$00
	.byte	$00
	.byte	$00
	.byte	$00
	.byte	$00
	.byte	$00
	.byte	$00
	.byte	$00
	.byte	$00
	.byte	$00
	.byte	$00
	.byte	$00
	.byte	$00
	.byte	$00
	.byte	$00
	.byte	$00
	.byte	$00
	.byte	$02
	.byte	$02
	.byte	$02
	.byte	$02
	.byte	$00
	.byte	$01
	.byte	$01
	.byte	$01
	.byte	$01
	.byte	$01
	.byte	$03
	.byte	$03
	.byte	$03
	.byte	$03
	.byte	$01
	.byte	$02
	.byte	$02
	.byte	$02
	.byte	$02
	.byte	$01
	.byte	$01
	.byte	$01
	.byte	$01
	.byte	$01
	.byte	$03
	.byte	$00
	.byte	$00
	.byte	$00
	.byte	$00
	.byte	$01
	.byte	$00
	.byte	$00
	.byte	$00
	.byte	$00
	.byte	$01
	.byte	$00
	.byte	$00
	.byte	$00
	.byte	$00
	.byte	$01
	.byte	$00
	.byte	$00
	.byte	$00
	.byte	$00
	.byte	$01
	.byte	$E2
	.byte	$03
	.byte	$03
	.byte	$03
	.byte	$00
	.byte	$E3
	.byte	$E3
	.byte	$03
	.byte	$03
	.byte	$00
	.byte	$E3
	.byte	$E3
	.byte	$A1
	.byte	$A1
	.byte	$00
	.byte	$00
	.byte	$00
	.byte	$00
	.byte	$00
	.byte	$01
	.byte	$00
	.byte	$00
	.byte	$00
	.byte	$00
	.byte	$01
	.byte	$00
	.byte	$00
	.byte	$00
	.byte	$00
	.byte	$00
	.byte	$00
	.byte	$00
	.byte	$00
	.byte	$00
	.byte	$00
	.byte	$00
	.byte	$00
	.byte	$00
	.byte	$00
	.byte	$01
	.byte	$00
	.byte	$00
	.byte	$00
	.byte	$00
	.byte	$01
	.byte	$00
	.byte	$00
	.byte	$00
	.byte	$00
	.byte	$01
	.byte	$00
	.byte	$00
	.byte	$00
	.byte	$00
	.byte	$01
	.byte	$00
	.byte	$00
	.byte	$00
	.byte	$00
	.byte	$01
	.byte	$00
	.byte	$00
	.byte	$00
	.byte	$00
	.byte	$01
	.byte	$00
	.byte	$00
	.byte	$00
	.byte	$00
	.byte	$01
	.byte	$00
	.byte	$00
	.byte	$00
	.byte	$00
	.byte	$01
	.byte	$00
	.byte	$00
	.byte	$00
	.byte	$00
	.byte	$01
	.byte	$00
	.byte	$00
	.byte	$00
	.byte	$00
	.byte	$01
	.byte	$00
	.byte	$00
	.byte	$00
	.byte	$00
	.byte	$01
	.byte	$00
	.byte	$00
	.byte	$00
	.byte	$00
	.byte	$00
	.byte	$00
	.byte	$00
	.byte	$00
	.byte	$00
	.byte	$01
	.byte	$00
	.byte	$00
	.byte	$00
	.byte	$00
	.byte	$01
	.byte	$00
	.byte	$00
	.byte	$00
	.byte	$00
	.byte	$01
	.byte	$00
	.byte	$00
	.byte	$00
	.byte	$00
	.byte	$01
	.byte	$00
	.byte	$00
	.byte	$00
	.byte	$00
	.byte	$01
	.byte	$00
	.byte	$00
	.byte	$00
	.byte	$00
	.byte	$01
	.byte	$00
	.byte	$00
	.byte	$00
	.byte	$00
	.byte	$01
	.byte	$00
	.byte	$00
	.byte	$00
	.byte	$00
	.byte	$01
	.byte	$00
	.byte	$00
	.byte	$00
	.byte	$00
	.byte	$01
	.byte	$00
	.byte	$00
	.byte	$00
	.byte	$00
	.byte	$01
	.byte	$00
	.byte	$00
	.byte	$00
	.byte	$00
	.byte	$01
	.byte	$00
	.byte	$00
	.byte	$00
	.byte	$00
	.byte	$01
	.byte	$00
	.byte	$00
	.byte	$00
	.byte	$00
	.byte	$01
	.byte	$00
	.byte	$00
	.byte	$00
	.byte	$00
	.byte	$01
	.byte	$00
	.byte	$00
	.byte	$00
	.byte	$00
	.byte	$01
	.byte	$00
	.byte	$00
	.byte	$00
	.byte	$00
	.byte	$01
	.byte	$00
	.byte	$00
	.byte	$00
	.byte	$00
	.byte	$01
	.byte	$00
	.byte	$00
	.byte	$00
	.byte	$00
	.byte	$01
	.byte	$00
	.byte	$00
	.byte	$00
	.byte	$00
	.byte	$01
	.byte	$00
	.byte	$00
	.byte	$00
	.byte	$00
	.byte	$01
	.byte	$00
	.byte	$00
	.byte	$00
	.byte	$00
	.byte	$01
	.byte	$00
	.byte	$00
	.byte	$00
	.byte	$00
	.byte	$01
	.byte	$00
	.byte	$00
	.byte	$00
	.byte	$00
	.byte	$01
	.byte	$00
	.byte	$00
	.byte	$00
	.byte	$00
	.byte	$01
	.byte	$00
	.byte	$00
	.byte	$00
	.byte	$00
	.byte	$01
	.byte	$00
	.byte	$00
	.byte	$00
	.byte	$00
	.byte	$01
	.byte	$00
	.byte	$00
	.byte	$00
	.byte	$00
	.byte	$01
	.byte	$00
	.byte	$00
	.byte	$00
	.byte	$00
	.byte	$01
	.byte	$00
	.byte	$00
	.byte	$00
	.byte	$00
	.byte	$01
	.byte	$00
	.byte	$00
	.byte	$00
	.byte	$00
	.byte	$01
	.byte	$00
	.byte	$00
	.byte	$00
	.byte	$00
	.byte	$01
	.byte	$00
	.byte	$00
	.byte	$00
	.byte	$00
	.byte	$01
	.byte	$00
	.byte	$00
	.byte	$00
	.byte	$00
	.byte	$01
	.byte	$00
	.byte	$00
	.byte	$00
	.byte	$00
	.byte	$01
	.byte	$00
	.byte	$00
	.byte	$00
	.byte	$00
	.byte	$01
	.byte	$00
	.byte	$00
	.byte	$00
	.byte	$00
	.byte	$01
	.byte	$00
	.byte	$00
	.byte	$00
	.byte	$00
	.byte	$01
	.byte	$00
	.byte	$00
	.byte	$00
	.byte	$00
	.byte	$01
	.byte	$00
	.byte	$00
	.byte	$00
	.byte	$00
	.byte	$01
	.byte	$00
	.byte	$00
	.byte	$00
	.byte	$00
	.byte	$01
	.byte	$00
	.byte	$00
	.byte	$00
	.byte	$00
	.byte	$01
	.byte	$00
	.byte	$00
	.byte	$00
	.byte	$00
	.byte	$01
	.byte	$00
	.byte	$00
	.byte	$00
	.byte	$00
	.byte	$01
	.byte	$00
	.byte	$00
	.byte	$00
	.byte	$00
	.byte	$01
	.byte	$00
	.byte	$00
	.byte	$00
	.byte	$00
	.byte	$01
	.byte	$00
	.byte	$00
	.byte	$00
	.byte	$00
	.byte	$01
	.byte	$00
	.byte	$00
	.byte	$00
	.byte	$00
	.byte	$01
	.byte	$00
	.byte	$00
	.byte	$00
	.byte	$00
	.byte	$01
	.byte	$00
	.byte	$00
	.byte	$00
	.byte	$00
	.byte	$01
	.byte	$00
	.byte	$00
	.byte	$00
	.byte	$00
	.byte	$01
	.byte	$00
	.byte	$00
	.byte	$00
	.byte	$00
	.byte	$01
	.byte	$00
	.byte	$00
	.byte	$00
	.byte	$00
	.byte	$01
_titletiles:
	.byte	$03
	.byte	$03
	.byte	$03
	.byte	$03
	.byte	$03
	.byte	$0A
	.byte	$0A
	.byte	$0B
	.byte	$0A
	.byte	$03
	.byte	$0A
	.byte	$03
	.byte	$03
	.byte	$03
	.byte	$03
	.byte	$03
	.byte	$0A
	.byte	$03
	.byte	$03
	.byte	$03
	.byte	$03
	.byte	$03
	.byte	$0A
	.byte	$03
	.byte	$03
	.byte	$03
	.byte	$03
	.byte	$03
	.byte	$0A
	.byte	$03
	.byte	$0B
	.byte	$03
	.byte	$03
	.byte	$03
	.byte	$03
	.byte	$03
	.byte	$03
	.byte	$0B
	.byte	$03
	.byte	$03
	.byte	$03
	.byte	$0B
	.byte	$03
	.byte	$03
	.byte	$03
	.byte	$03
	.byte	$03
	.byte	$03
	.byte	$0B
	.byte	$03
	.byte	$0A
	.byte	$03
	.byte	$03
	.byte	$0B
	.byte	$03
	.byte	$03
	.byte	$1B
	.byte	$03
	.byte	$03
	.byte	$03
	.byte	$0E
	.byte	$0E
	.byte	$0E
	.byte	$0E
	.byte	$03
	.byte	$0F
	.byte	$0F
	.byte	$0F
	.byte	$0F
	.byte	$03
	.byte	$0E
	.byte	$0E
	.byte	$00
	.byte	$0E
	.byte	$03
	.byte	$0E
	.byte	$0E
	.byte	$0E
	.byte	$00
	.byte	$03
	.byte	$00
	.byte	$00
	.byte	$00
	.byte	$00
	.byte	$00
	.byte	$08
	.byte	$08
	.byte	$09
	.byte	$08
	.byte	$03
	.byte	$08
	.byte	$03
	.byte	$03
	.byte	$03
	.byte	$03
	.byte	$03
	.byte	$08
	.byte	$03
	.byte	$03
	.byte	$03
	.byte	$03
	.byte	$03
	.byte	$08
	.byte	$03
	.byte	$03
	.byte	$03
	.byte	$03
	.byte	$03
	.byte	$08
	.byte	$03
	.byte	$09
	.byte	$03
	.byte	$03
	.byte	$03
	.byte	$03
	.byte	$03
	.byte	$03
	.byte	$09
	.byte	$03
	.byte	$03
	.byte	$03
	.byte	$09
	.byte	$03
	.byte	$03
	.byte	$03
	.byte	$03
	.byte	$03
	.byte	$03
	.byte	$09
	.byte	$03
	.byte	$08
	.byte	$03
	.byte	$03
	.byte	$09
	.byte	$03
	.byte	$00
	.byte	$1D
	.byte	$00
	.byte	$00
	.byte	$00
	.byte	$00
	.byte	$00
	.byte	$0E
	.byte	$00
	.byte	$03
	.byte	$00
	.byte	$00
	.byte	$00
	.byte	$0F
	.byte	$03
	.byte	$00
	.byte	$0F
	.byte	$0F
	.byte	$0F
	.byte	$03
	.byte	$0E
	.byte	$00
	.byte	$0E
	.byte	$0E
	.byte	$03
	.byte	$00
	.byte	$00
	.byte	$00
	.byte	$00
	.byte	$00
	.byte	$8D
	.byte	$9D
	.byte	$00
	.byte	$00
	.byte	$03
	.byte	$9C
	.byte	$8D
	.byte	$00
	.byte	$00
	.byte	$03
	.byte	$00
	.byte	$00
	.byte	$7C
	.byte	$7D
	.byte	$03
	.byte	$00
	.byte	$00
	.byte	$7D
	.byte	$7E
	.byte	$03
	.byte	$9D
	.byte	$00
	.byte	$9C
	.byte	$00
	.byte	$03
	.byte	$00
	.byte	$8D
	.byte	$00
	.byte	$7E
	.byte	$03
	.byte	$00
	.byte	$00
	.byte	$00
	.byte	$00
	.byte	$00
	.byte	$00
	.byte	$00
	.byte	$00
	.byte	$00
	.byte	$00
	.byte	$00
	.byte	$00
	.byte	$00
	.byte	$00
	.byte	$00
	.byte	$1C
	.byte	$00
	.byte	$00
	.byte	$00
	.byte	$02
	.byte	$00
	.byte	$00
	.byte	$00
	.byte	$1D
	.byte	$02
	.byte	$00
	.byte	$00
	.byte	$00
	.byte	$1C
	.byte	$00
	.byte	$00
	.byte	$00
	.byte	$00
	.byte	$00
	.byte	$00
	.byte	$00
	.byte	$00
	.byte	$00
	.byte	$00
	.byte	$00
	.byte	$00
	.byte	$00
	.byte	$00
	.byte	$00
	.byte	$00
	.byte	$00
	.byte	$00
	.byte	$00
	.byte	$00
	.byte	$00
	.byte	$A4
	.byte	$A5
	.byte	$B4
	.byte	$B5
	.byte	$02
	.byte	$A6
	.byte	$A7
	.byte	$B6
	.byte	$B7
	.byte	$02
	.byte	$A8
	.byte	$A9
	.byte	$B8
	.byte	$B9
	.byte	$02
	.byte	$C8
	.byte	$C9
	.byte	$D8
	.byte	$D9
	.byte	$02
	.byte	$C4
	.byte	$C5
	.byte	$D4
	.byte	$D5
	.byte	$02
	.byte	$C6
	.byte	$C7
	.byte	$D6
	.byte	$D7
	.byte	$02
	.byte	$E4
	.byte	$E5
	.byte	$F4
	.byte	$F5
	.byte	$02
	.byte	$E6
	.byte	$E7
	.byte	$F6
	.byte	$F7
	.byte	$02
	.byte	$E8
	.byte	$E9
	.byte	$F8
	.byte	$F9
	.byte	$02
	.byte	$8E
	.byte	$8F
	.byte	$9E
	.byte	$9F
	.byte	$03
	.byte	$9E
	.byte	$9F
	.byte	$8E
	.byte	$8F
	.byte	$03
	.byte	$AC
	.byte	$AD
	.byte	$BC
	.byte	$BD
	.byte	$03
	.byte	$84
	.byte	$85
	.byte	$94
	.byte	$95
	.byte	$02
	.byte	$86
	.byte	$87
	.byte	$96
	.byte	$97
	.byte	$02
	.byte	$88
	.byte	$89
	.byte	$98
	.byte	$99
	.byte	$02
	.byte	$00
	.byte	$00
	.byte	$00
	.byte	$00
	.byte	$00
	.byte	$00
	.byte	$00
	.byte	$00
	.byte	$00
	.byte	$00
	.byte	$00
	.byte	$00
	.byte	$00
	.byte	$00
	.byte	$00
	.byte	$00
	.byte	$00
	.byte	$00
	.byte	$00
	.byte	$00
	.byte	$00
	.byte	$00
	.byte	$00
	.byte	$00
	.byte	$00
	.byte	$00
	.byte	$00
	.byte	$00
	.byte	$00
	.byte	$00
	.byte	$00
	.byte	$00
	.byte	$00
	.byte	$00
	.byte	$00
	.byte	$E2
	.byte	$E3
	.byte	$F2
	.byte	$F3
	.byte	$00
	.byte	$00
	.byte	$00
	.byte	$10
	.byte	$12
	.byte	$02
	.byte	$00
	.byte	$00
	.byte	$12
	.byte	$11
	.byte	$02
	.byte	$00
	.byte	$00
	.byte	$12
	.byte	$12
	.byte	$02
	.byte	$AE
	.byte	$AF
	.byte	$BE
	.byte	$BF
	.byte	$00
	.byte	$C2
	.byte	$C3
	.byte	$D2
	.byte	$D3
	.byte	$03
	.byte	$C0
	.byte	$C1
	.byte	$D0
	.byte	$D1
	.byte	$02
	.byte	$8A
	.byte	$8B
	.byte	$9A
	.byte	$9B
	.byte	$02
	.byte	$8C
	.byte	$00
	.byte	$8C
	.byte	$00
	.byte	$02
	.byte	$00
	.byte	$00
	.byte	$00
	.byte	$00
	.byte	$00
	.byte	$00
	.byte	$00
	.byte	$00
	.byte	$00
	.byte	$00
	.byte	$00
	.byte	$00
	.byte	$00
	.byte	$00
	.byte	$00
	.byte	$00
	.byte	$00
	.byte	$00
	.byte	$00
	.byte	$00
	.byte	$00
	.byte	$00
	.byte	$00
	.byte	$00
	.byte	$00
	.byte	$00
	.byte	$00
	.byte	$00
	.byte	$00
	.byte	$00
	.byte	$00
	.byte	$00
	.byte	$00
	.byte	$00
	.byte	$00
	.byte	$00
	.byte	$00
	.byte	$00
	.byte	$00
	.byte	$00
	.byte	$00
	.byte	$00
	.byte	$00
	.byte	$00
	.byte	$00
	.byte	$00
	.byte	$00
	.byte	$00
	.byte	$00
	.byte	$00
	.byte	$00
	.byte	$00
	.byte	$00
	.byte	$00
	.byte	$00
	.byte	$00
	.byte	$00
	.byte	$00
	.byte	$00
	.byte	$00
	.byte	$00
	.byte	$00
	.byte	$00
	.byte	$00
	.byte	$00
	.byte	$00
	.byte	$00
	.byte	$00
	.byte	$00
	.byte	$00
	.byte	$00
	.byte	$00
	.byte	$00
	.byte	$00
	.byte	$00
	.byte	$00
	.byte	$AB
	.byte	$00
	.byte	$AB
	.byte	$02
	.byte	$CC
	.byte	$CD
	.byte	$DC
	.byte	$EE
	.byte	$02
	.byte	$CE
	.byte	$CE
	.byte	$EE
	.byte	$EE
	.byte	$02
	.byte	$CF
	.byte	$CD
	.byte	$EE
	.byte	$DD
	.byte	$02
	.byte	$CC
	.byte	$CE
	.byte	$DC
	.byte	$02
	.byte	$01
	.byte	$CF
	.byte	$CE
	.byte	$DE
	.byte	$DF
	.byte	$01
	.byte	$CF
	.byte	$CD
	.byte	$DE
	.byte	$FF
	.byte	$01
	.byte	$DC
	.byte	$DD
	.byte	$FE
	.byte	$FF
	.byte	$01
	.byte	$00
	.byte	$00
	.byte	$00
	.byte	$00
	.byte	$00
	.byte	$00
	.byte	$00
	.byte	$00
	.byte	$00
	.byte	$00
	.byte	$00
	.byte	$00
	.byte	$00
	.byte	$00
	.byte	$00
	.byte	$00
	.byte	$00
	.byte	$00
	.byte	$00
	.byte	$01
	.byte	$00
	.byte	$00
	.byte	$00
	.byte	$00
	.byte	$02
	.byte	$00
	.byte	$00
	.byte	$00
	.byte	$00
	.byte	$01
	.byte	$00
	.byte	$00
	.byte	$00
	.byte	$00
	.byte	$00
	.byte	$00
	.byte	$00
	.byte	$00
	.byte	$00
	.byte	$01
	.byte	$00
	.byte	$00
	.byte	$00
	.byte	$00
	.byte	$01
	.byte	$DC
	.byte	$EE
	.byte	$EC
	.byte	$EE
	.byte	$02
	.byte	$EE
	.byte	$EE
	.byte	$EE
	.byte	$EE
	.byte	$02
	.byte	$EE
	.byte	$ED
	.byte	$EE
	.byte	$DD
	.byte	$02
	.byte	$EC
	.byte	$DD
	.byte	$FE
	.byte	$ED
	.byte	$01
	.byte	$00
	.byte	$00
	.byte	$00
	.byte	$00
	.byte	$00
	.byte	$DC
	.byte	$ED
	.byte	$DC
	.byte	$DD
	.byte	$01
	.byte	$FE
	.byte	$ED
	.byte	$EC
	.byte	$DD
	.byte	$01
	.byte	$00
	.byte	$00
	.byte	$00
	.byte	$00
	.byte	$03
	.byte	$00
	.byte	$00
	.byte	$00
	.byte	$00
	.byte	$00
	.byte	$00
	.byte	$00
	.byte	$00
	.byte	$00
	.byte	$00
	.byte	$00
	.byte	$00
	.byte	$00
	.byte	$00
	.byte	$02
	.byte	$00
	.byte	$00
	.byte	$00
	.byte	$00
	.byte	$02
	.byte	$00
	.byte	$00
	.byte	$00
	.byte	$00
	.byte	$02
	.byte	$00
	.byte	$00
	.byte	$00
	.byte	$00
	.byte	$00
	.byte	$00
	.byte	$00
	.byte	$00
	.byte	$00
	.byte	$01
	.byte	$00
	.byte	$00
	.byte	$00
	.byte	$00
	.byte	$00
	.byte	$DC
	.byte	$EE
	.byte	$FC
	.byte	$DE
	.byte	$02
	.byte	$EE
	.byte	$EE
	.byte	$DF
	.byte	$DE
	.byte	$02
	.byte	$EE
	.byte	$DD
	.byte	$DF
	.byte	$FD
	.byte	$02
	.byte	$EC
	.byte	$DD
	.byte	$FC
	.byte	$DE
	.byte	$01
	.byte	$EF
	.byte	$CF
	.byte	$DF
	.byte	$DE
	.byte	$01
	.byte	$EF
	.byte	$ED
	.byte	$DE
	.byte	$FD
	.byte	$01
	.byte	$00
	.byte	$00
	.byte	$00
	.byte	$00
	.byte	$00
	.byte	$00
	.byte	$00
	.byte	$00
	.byte	$00
	.byte	$00
	.byte	$00
	.byte	$00
	.byte	$00
	.byte	$00
	.byte	$00
	.byte	$00
	.byte	$00
	.byte	$00
	.byte	$00
	.byte	$00
	.byte	$00
	.byte	$00
	.byte	$00
	.byte	$00
	.byte	$02
	.byte	$00
	.byte	$00
	.byte	$00
	.byte	$00
	.byte	$01
	.byte	$00
	.byte	$00
	.byte	$00
	.byte	$00
	.byte	$02
	.byte	$00
	.byte	$00
	.byte	$00
	.byte	$00
	.byte	$00
	.byte	$00
	.byte	$00
	.byte	$00
	.byte	$00
	.byte	$01
	.byte	$00
	.byte	$00
	.byte	$00
	.byte	$00
	.byte	$00
	.byte	$00
	.byte	$00
	.byte	$00
	.byte	$00
	.byte	$00
	.byte	$00
	.byte	$00
	.byte	$00
	.byte	$00
	.byte	$00
	.byte	$00
	.byte	$00
	.byte	$00
	.byte	$00
	.byte	$00
	.byte	$00
	.byte	$00
	.byte	$00
	.byte	$00
	.byte	$00
	.byte	$00
	.byte	$00
	.byte	$00
	.byte	$00
	.byte	$00
	.byte	$00
	.byte	$00
	.byte	$00
	.byte	$00
	.byte	$00
	.byte	$00
	.byte	$00
	.byte	$00
	.byte	$00
	.byte	$00
	.byte	$00
	.byte	$00
	.byte	$00
	.byte	$00
	.byte	$00
	.byte	$00
	.byte	$00
	.byte	$00
	.byte	$00
	.byte	$00
	.byte	$00
	.byte	$00
	.byte	$00
	.byte	$00
	.byte	$00
	.byte	$00
	.byte	$00
	.byte	$00
	.byte	$00
	.byte	$00
	.byte	$00
	.byte	$00
	.byte	$00
	.byte	$00
	.byte	$00
	.byte	$00
	.byte	$00
	.byte	$00
	.byte	$00
	.byte	$00
	.byte	$00
	.byte	$00
	.byte	$00
	.byte	$00
	.byte	$00
	.byte	$00
	.byte	$00
	.byte	$00
	.byte	$00
	.byte	$00
	.byte	$00
	.byte	$00
	.byte	$00
	.byte	$00
	.byte	$00
	.byte	$02
	.byte	$02
	.byte	$02
	.byte	$02
	.byte	$00
	.byte	$00
	.byte	$00
	.byte	$00
	.byte	$00
	.byte	$01
	.byte	$00
	.byte	$00
	.byte	$00
	.byte	$00
	.byte	$01
	.byte	$00
	.byte	$00
	.byte	$00
	.byte	$00
	.byte	$01
	.byte	$00
	.byte	$00
	.byte	$00
	.byte	$00
	.byte	$01
	.byte	$00
	.byte	$00
	.byte	$00
	.byte	$00
	.byte	$01
	.byte	$00
	.byte	$00
	.byte	$00
	.byte	$00
	.byte	$01
	.byte	$00
	.byte	$00
	.byte	$00
	.byte	$00
	.byte	$01
	.byte	$00
	.byte	$00
	.byte	$00
	.byte	$00
	.byte	$01
	.byte	$00
	.byte	$00
	.byte	$00
	.byte	$00
	.byte	$01
	.byte	$00
	.byte	$00
	.byte	$00
	.byte	$00
	.byte	$01
	.byte	$00
	.byte	$00
	.byte	$00
	.byte	$00
	.byte	$01
	.byte	$00
	.byte	$00
	.byte	$00
	.byte	$00
	.byte	$01
	.byte	$00
	.byte	$00
	.byte	$00
	.byte	$00
	.byte	$01
	.byte	$00
	.byte	$00
	.byte	$00
	.byte	$00
	.byte	$00
	.byte	$00
	.byte	$00
	.byte	$00
	.byte	$00
	.byte	$00
	.byte	$03
	.byte	$03
	.byte	$03
	.byte	$04
	.byte	$01
	.byte	$03
	.byte	$03
	.byte	$12
	.byte	$12
	.byte	$01
	.byte	$03
	.byte	$03
	.byte	$05
	.byte	$03
	.byte	$01
	.byte	$03
	.byte	$03
	.byte	$04
	.byte	$12
	.byte	$01
	.byte	$03
	.byte	$03
	.byte	$11
	.byte	$03
	.byte	$01
	.byte	$00
	.byte	$00
	.byte	$00
	.byte	$00
	.byte	$01
	.byte	$7F
	.byte	$02
	.byte	$02
	.byte	$02
	.byte	$00
	.byte	$42
	.byte	$72
	.byte	$02
	.byte	$02
	.byte	$00
	.byte	$69
	.byte	$61
	.byte	$02
	.byte	$02
	.byte	$00
	.byte	$6E
	.byte	$02
	.byte	$02
	.byte	$02
	.byte	$00
	.byte	$26
	.byte	$02
	.byte	$02
	.byte	$02
	.byte	$00
	.byte	$41
	.byte	$6C
	.byte	$02
	.byte	$02
	.byte	$00
	.byte	$61
	.byte	$6E
	.byte	$02
	.byte	$02
	.byte	$00
	.byte	$02
	.byte	$47
	.byte	$02
	.byte	$02
	.byte	$00
	.byte	$61
	.byte	$6D
	.byte	$02
	.byte	$02
	.byte	$00
	.byte	$65
	.byte	$73
	.byte	$02
	.byte	$02
	.byte	$00
	.byte	$04
	.byte	$14
	.byte	$16
	.byte	$14
	.byte	$01
	.byte	$03
	.byte	$03
	.byte	$03
	.byte	$03
	.byte	$01
	.byte	$14
	.byte	$05
	.byte	$14
	.byte	$16
	.byte	$01
	.byte	$14
	.byte	$03
	.byte	$14
	.byte	$03
	.byte	$01
	.byte	$03
	.byte	$03
	.byte	$12
	.byte	$05
	.byte	$01
	.byte	$18
	.byte	$15
	.byte	$06
	.byte	$05
	.byte	$01
	.byte	$03
	.byte	$03
	.byte	$17
	.byte	$03
	.byte	$01
	.byte	$03
	.byte	$03
	.byte	$03
	.byte	$17
	.byte	$01
	.byte	$02
	.byte	$2D
	.byte	$02
	.byte	$02
	.byte	$00
	.byte	$50
	.byte	$52
	.byte	$02
	.byte	$02
	.byte	$00
	.byte	$45
	.byte	$53
	.byte	$02
	.byte	$02
	.byte	$00
	.byte	$53
	.byte	$02
	.byte	$02
	.byte	$02
	.byte	$00
	.byte	$02
	.byte	$53
	.byte	$02
	.byte	$02
	.byte	$00
	.byte	$54
	.byte	$41
	.byte	$02
	.byte	$02
	.byte	$00
	.byte	$52
	.byte	$54
	.byte	$02
	.byte	$02
	.byte	$00
	.byte	$2D
	.byte	$02
	.byte	$02
	.byte	$02
	.byte	$00
	.byte	$03
	.byte	$14
	.byte	$03
	.byte	$13
	.byte	$01
	.byte	$03
	.byte	$03
	.byte	$12
	.byte	$1A
	.byte	$01
	.byte	$14
	.byte	$03
	.byte	$15
	.byte	$03
	.byte	$01
	.byte	$13
	.byte	$12
	.byte	$14
	.byte	$03
	.byte	$01
	.byte	$11
	.byte	$03
	.byte	$03
	.byte	$03
	.byte	$01
	.byte	$03
	.byte	$13
	.byte	$03
	.byte	$14
	.byte	$01
	.byte	$12
	.byte	$18
	.byte	$03
	.byte	$06
	.byte	$01
	.byte	$15
	.byte	$03
	.byte	$05
	.byte	$03
	.byte	$01
	.byte	$06
	.byte	$12
	.byte	$03
	.byte	$03
	.byte	$01
	.byte	$02
	.byte	$02
	.byte	$50
	.byte	$55
	.byte	$00
	.byte	$02
	.byte	$02
	.byte	$5A
	.byte	$5A
	.byte	$00
	.byte	$02
	.byte	$02
	.byte	$4C
	.byte	$45
	.byte	$00
	.byte	$02
	.byte	$02
	.byte	$02
	.byte	$51
	.byte	$00
	.byte	$02
	.byte	$02
	.byte	$55
	.byte	$45
	.byte	$00
	.byte	$02
	.byte	$02
	.byte	$53
	.byte	$54
	.byte	$00
	.byte	$02
	.byte	$02
	.byte	$27
	.byte	$02
	.byte	$00
	.byte	$03
	.byte	$14
	.byte	$03
	.byte	$16
	.byte	$01
	.byte	$03
	.byte	$03
	.byte	$03
	.byte	$03
	.byte	$01
	.byte	$14
	.byte	$03
	.byte	$06
	.byte	$12
	.byte	$01
	.byte	$14
	.byte	$03
	.byte	$16
	.byte	$03
	.byte	$01
	.byte	$03
	.byte	$14
	.byte	$03
	.byte	$14
	.byte	$01
	.byte	$14
	.byte	$03
	.byte	$14
	.byte	$03
	.byte	$01
	.byte	$03
	.byte	$03
	.byte	$06
	.byte	$12
	.byte	$01
	.byte	$03
	.byte	$14
	.byte	$12
	.byte	$15
	.byte	$01
	.byte	$12
	.byte	$19
	.byte	$03
	.byte	$14
	.byte	$01
	.byte	$02
	.byte	$02
	.byte	$46
	.byte	$65
	.byte	$00
	.byte	$02
	.byte	$02
	.byte	$52
	.byte	$61
	.byte	$00
	.byte	$02
	.byte	$02
	.byte	$4C
	.byte	$02
	.byte	$00
	.byte	$02
	.byte	$02
	.byte	$02
	.byte	$02
	.byte	$00
	.byte	$02
	.byte	$02
	.byte	$02
	.byte	$02
	.byte	$00
	.byte	$02
	.byte	$02
	.byte	$02
	.byte	$02
	.byte	$00
	.byte	$02
	.byte	$02
	.byte	$02
	.byte	$02
	.byte	$00
_title_0:
	.byte	$32
	.byte	$31
	.byte	$32
	.byte	$31
	.byte	$32
	.byte	$31
	.byte	$32
	.byte	$31
	.byte	$31
	.byte	$32
	.byte	$32
	.byte	$31
	.byte	$32
	.byte	$32
	.byte	$31
	.byte	$32
	.byte	$05
	.byte	$00
	.byte	$00
	.byte	$09
	.byte	$0A
	.byte	$00
	.byte	$0B
	.byte	$00
	.byte	$00
	.byte	$00
	.byte	$00
	.byte	$04
	.byte	$00
	.byte	$07
	.byte	$08
	.byte	$01
	.byte	$00
	.byte	$00
	.byte	$E9
	.byte	$EA
	.byte	$EB
	.byte	$00
	.byte	$00
	.byte	$07
	.byte	$08
	.byte	$00
	.byte	$00
	.byte	$00
	.byte	$00
	.byte	$00
	.byte	$00
	.byte	$03
	.byte	$05
	.byte	$00
	.byte	$B0
	.byte	$B1
	.byte	$B2
	.byte	$B3
	.byte	$B4
	.byte	$B3
	.byte	$C4
	.byte	$B0
	.byte	$B1
	.byte	$B2
	.byte	$C6
	.byte	$C7
	.byte	$DF
	.byte	$00
	.byte	$00
	.byte	$00
	.byte	$C0
	.byte	$C1
	.byte	$C2
	.byte	$C3
	.byte	$08
	.byte	$C3
	.byte	$E4
	.byte	$E4
	.byte	$03
	.byte	$E5
	.byte	$E5
	.byte	$E4
	.byte	$CC
	.byte	$00
	.byte	$02
	.byte	$00
	.byte	$D0
	.byte	$D1
	.byte	$D2
	.byte	$D3
	.byte	$D4
	.byte	$D3
	.byte	$C5
	.byte	$D5
	.byte	$D6
	.byte	$D7
	.byte	$D8
	.byte	$E8
	.byte	$00
	.byte	$00
	.byte	$00
	.byte	$00
	.byte	$E0
	.byte	$E1
	.byte	$00
	.byte	$E2
	.byte	$B4
	.byte	$E3
	.byte	$E0
	.byte	$E0
	.byte	$16
	.byte	$E3
	.byte	$E6
	.byte	$E7
	.byte	$00
	.byte	$08
	.byte	$08
	.byte	$08
	.byte	$00
	.byte	$00
	.byte	$00
	.byte	$D9
	.byte	$DA
	.byte	$DB
	.byte	$DC
	.byte	$DD
	.byte	$DE
	.byte	$00
	.byte	$06
	.byte	$00
	.byte	$0B
	.byte	$00
	.byte	$00
	.byte	$00
	.byte	$0B
	.byte	$00
	.byte	$00
	.byte	$0A
	.byte	$00
	.byte	$00
	.byte	$00
	.byte	$08
	.byte	$00
	.byte	$00
	.byte	$00
	.byte	$00
	.byte	$00
	.byte	$03
	.byte	$03
	.byte	$00
	.byte	$09
	.byte	$06
	.byte	$00
	.byte	$00
	.byte	$00
	.byte	$05
	.byte	$00
	.byte	$00
	.byte	$05
	.byte	$00
	.byte	$09
	.byte	$0A
	.byte	$00
	.byte	$00
	.byte	$00
	.byte	$00
	.byte	$00
	.byte	$00
	.byte	$C8
	.byte	$C9
	.byte	$CA
	.byte	$CB
	.byte	$CC
	.byte	$CD
	.byte	$CE
	.byte	$CF
	.byte	$00
	.byte	$00
	.byte	$00
	.byte	$07
	.byte	$00
	.byte	$00
	.byte	$00
	.byte	$03
	.byte	$00
	.byte	$00
	.byte	$03
	.byte	$00
	.byte	$00
	.byte	$09
	.byte	$08
	.byte	$0B
	.byte	$00
	.byte	$00
	.byte	$00
	.byte	$00
	.byte	$0A
	.byte	$00
	.byte	$09
	.byte	$B6
	.byte	$B7
	.byte	$B8
	.byte	$B9
	.byte	$BA
	.byte	$BB
	.byte	$BC
	.byte	$BD
	.byte	$BE
	.byte	$BF
	.byte	$00
	.byte	$04
	.byte	$00
	.byte	$00
	.byte	$00
	.byte	$00
	.byte	$00
	.byte	$07
	.byte	$00
	.byte	$00
	.byte	$00
	.byte	$0A
	.byte	$00
	.byte	$00
	.byte	$09
	.byte	$0A
	.byte	$00
	.byte	$00
	.byte	$03
	.byte	$37
	.byte	$37
	.byte	$37
	.byte	$37
	.byte	$37
	.byte	$37
	.byte	$37
	.byte	$37
	.byte	$37
	.byte	$37
	.byte	$37
	.byte	$37
	.byte	$37
	.byte	$37
	.byte	$37
	.byte	$37
L24BD:
	.byte	$50,$45,$52,$52,$59,$20,$50,$55,$5A,$5A,$4C,$45,$20,$32,$27,$3A
	.byte	$20,$54,$55,$52,$42,$4F,$00
L181D:
	.byte	$50,$75,$73,$68,$20,$69,$74,$20,$74,$6F,$20,$74,$68,$65,$20,$6C
	.byte	$69,$6D,$69,$74,$00
L182B:
	.byte	$43,$68,$65,$61,$74,$20,$74,$68,$65,$20,$73,$79,$73,$74,$65,$6D
	.byte	$00
L1811:
	.byte	$41,$20,$62,$72,$69,$64,$67,$65,$20,$74,$6F,$6F,$20,$66,$61,$72
	.byte	$00
L1817:
	.byte	$54,$77,$6F,$20,$50,$6C,$61,$79,$65,$72,$20,$47,$61,$6D,$65,$00
L1813	:=	L1817+0
L1825:
	.byte	$50,$6F,$69,$6E,$74,$20,$61,$6E,$64,$20,$73,$68,$6F,$6F,$74,$00
L1819:
	.byte	$47,$65,$74,$20,$74,$6F,$20,$74,$68,$65,$20,$65,$6E,$64,$00
L181F:
	.byte	$46,$61,$6E,$63,$79,$20,$66,$6F,$6F,$74,$77,$6F,$72,$6B,$00
L182D:
	.byte	$4C,$65,$61,$70,$20,$6F,$66,$20,$66,$61,$69,$74,$68,$00
L181B:
	.byte	$53,$79,$6E,$63,$20,$61,$6E,$64,$20,$53,$70,$69,$6E,$00
L180F:
	.byte	$4E,$6F,$74,$20,$73,$6F,$20,$73,$69,$6D,$70,$6C,$65,$00
L1827:
	.byte	$57,$6F,$72,$6B,$20,$69,$74,$20,$6F,$75,$74,$00
L1815:
	.byte	$41,$72,$74,$20,$43,$72,$69,$74,$69,$63,$00
L1821:
	.byte	$4C,$69,$67,$68,$74,$73,$20,$6F,$75,$74,$00
L180D:
	.byte	$45,$61,$73,$79,$20,$50,$65,$61,$73,$79,$00
L1829:
	.byte	$50,$75,$73,$68,$20,$69,$74,$00
L1823:
	.byte	$41,$6E,$61,$72,$63,$68,$79,$00

.segment	"BSS"

.segment	"ZEROPAGE"
_pad2_zapper:
	.res	1,$00
_zapper_ready:
	.res	1,$00
_hit_detected:
	.res	1,$00
_powerpad_cur:
	.res	2,$00
_powerpad_old:
	.res	2,$00
_powerpad_new:
	.res	2,$00
_nametable_to_use:
	.res	1,$00
_pad1:
	.res	1,$00
_pad1_new:
	.res	1,$00
_pad2:
	.res	1,$00
_pad2_new:
	.res	1,$00
_collision:
	.res	1,$00
_collision_L:
	.res	1,$00
_collision_R:
	.res	1,$00
_collision_U:
	.res	1,$00
_collision_D:
	.res	1,$00
_collision2:
	.res	1,$00
_level:
	.res	1,$00
_p_maps:
	.res	2,$00
_coordinates:
	.res	1,$00
_temp1:
	.res	1,$00
_temp2:
	.res	1,$00
_temp3:
	.res	1,$00
_temp4:
	.res	1,$00
_temp_x:
	.res	1,$00
_temp_y:
	.res	1,$00
_game_mode:
	.res	1,$00
_show_text:
	.res	1,$00
_has_moved:
	.res	1,$00
_is_moving:
	.res	1,$00
_player_moved_frames:
	.res	1,$00
_frame_count:
	.res	1,$00
_frame_count2:
	.res	1,$00
_frame_count3:
	.res	1,$00
_frame_count4:
	.res	1,$00
_duck_exists:
	.res	1,$00
_scroll_x:
	.res	2,$00
_flag_a_pos:
	.res	1,$00
_flag_b_pos:
	.res	1,$00
_flag_a:
	.res	1,$00
_flag_b:
	.res	1,$00
_turbo_a_rate:
	.res	1,$00
_turbo_b_rate:
	.res	1,$00
_last_turbo_a_rate:
	.res	1,$00
_last_turbo_b_rate:
	.res	1,$00
_local_left:
	.res	1,$00
_local_right:
	.res	1,$00
_local_up:
	.res	1,$00
_local_down:
	.res	1,$00
_pointer2:
	.res	2,$00
_Generic:
	.res	4,$00
_Generic2:
	.res	4,$00
_address:
	.res	2,$00
_x:
	.res	1,$00
_y:
	.res	1,$00
_index2:
	.res	1,$00
.segment	"BSS"
_c_map:
	.res	240,$00

; ---------------------------------------------------------------
; void __near__ draw_bg (void)
; ---------------------------------------------------------------

.segment	"CODE"

.proc	_draw_bg: near

.segment	"CODE"

;
; ppu_off(); // screen off
;
	jsr     _ppu_off
;
; p_maps = Level_List[level];
;
	ldx     #$00
	lda     _level
	asl     a
	bcc     L2888
	inx
	clc
L2888:	adc     #<(_Level_List)
	sta     ptr1
	txa
	adc     #>(_Level_List)
	sta     ptr1+1
	ldy     #$01
	lda     (ptr1),y
	sta     _p_maps+1
	dey
	lda     (ptr1),y
	sta     _p_maps
;
; memcpy(c_map, p_maps, 240);
;
	lda     #<(_c_map)
	ldx     #>(_c_map)
	jsr     pushax
	lda     _p_maps
	ldx     _p_maps+1
	jsr     pushax
	ldx     #$00
	lda     #$F0
	jsr     _memcpy
;
; clear_vram_buffer();
;
	jsr     _clear_vram_buffer
;
; set_data_pointer(Level_List[level]);
;
	ldx     #$00
	lda     _level
	asl     a
	bcc     L2889
	inx
	clc
L2889:	adc     #<(_Level_List)
	sta     ptr1
	txa
	adc     #>(_Level_List)
	sta     ptr1+1
	ldy     #$01
	lda     (ptr1),y
	tax
	dey
	lda     (ptr1),y
	jsr     _set_data_pointer
;
; set_mt_pointer(perrytiles);
;
	lda     #<(_perrytiles)
	ldx     #>(_perrytiles)
	jsr     _set_mt_pointer
;
; if (level == GIMMICK_SCREEN_SCROLL)
;
	ldx     #$00
	lda     _level
	cmp     #$06
	bne     L288B
;
; nametable_to_use = 1;
;
	lda     #$01
	sta     _nametable_to_use
;
; for (y = 0;; y += 0x20)
;
	txa
L2883:	sta     _y
;
; for (x = 0;; x += 0x20)
;
	lda     #$00
L2882:	sta     _x
;
; address = get_ppu_addr(0, x, y);
;
	jsr     decsp2
	lda     #$00
	ldy     #$01
	sta     (sp),y
	lda     _x
	dey
	sta     (sp),y
	lda     _y
	jsr     _get_ppu_addr
	sta     _address
	stx     _address+1
;
; buffer_4_mt(address, 0); // ppu_address, index to the data
;
	jsr     pushax
	lda     #$00
	jsr     _buffer_4_mt
;
; flush_vram_update2();
;
	jsr     _flush_vram_update2
;
; if (x == 0xe0)
;
	lda     _x
	cmp     #$E0
;
; break;
;
	beq     L288A
;
; for (x = 0;; x += 0x20)
;
	lda     #$20
	clc
	adc     _x
	jmp     L2882
;
; if (y == 0xe0)
;
L288A:	lda     _y
	cmp     #$E0
;
; break;
;
	beq     L24A0
;
; for (y = 0;; y += 0x20)
;
	lda     #$20
	clc
	adc     _y
	jmp     L2883
;
; multi_vram_buffer_horz("PERRY PUZZLE 2': TURBO", 22, NTADR_A(3, 2));
;
L24A0:	jsr     decsp3
	lda     #<(L24BD)
	ldy     #$01
	sta     (sp),y
	iny
	lda     #>(L24BD)
	sta     (sp),y
	lda     #$16
	ldy     #$00
	sta     (sp),y
	ldx     #$20
	lda     #$43
	jsr     _multi_vram_buffer_horz
;
; else
;
	jmp     L24C6
;
; scroll_x = 0;
;
L288B:	txa
	sta     _scroll_x
	sta     _scroll_x+1
;
; set_scroll_x(scroll_x);
;
	jsr     _set_scroll_x
;
; nametable_to_use = 0;
;
	lda     #$00
	sta     _nametable_to_use
;
; for (y = 0;; y += 0x20)
;
L24C6:	lda     #$00
L2885:	sta     _y
;
; for (x = 0;; x += 0x20)
;
	lda     #$00
L2884:	sta     _x
;
; address = get_ppu_addr(nametable_to_use, x, y);
;
	jsr     decsp2
	lda     _nametable_to_use
	ldy     #$01
	sta     (sp),y
	lda     _x
	dey
	sta     (sp),y
	lda     _y
	jsr     _get_ppu_addr
	sta     _address
	stx     _address+1
;
; index = (y & 0xf0) + (x >> 4);
;
	lda     _y
	and     #$F0
	sta     ptr1
	lda     _x
	lsr     a
	lsr     a
	lsr     a
	lsr     a
	clc
	adc     ptr1
	sta     _index
;
; buffer_4_mt(address, index); // ppu_address, index to the data
;
	lda     _address
	ldx     _address+1
	jsr     pushax
	lda     _index
	jsr     _buffer_4_mt
;
; flush_vram_update2();
;
	jsr     _flush_vram_update2
;
; if (x == 0xe0)
;
	lda     _x
	cmp     #$E0
;
; break;
;
	beq     L288C
;
; for (x = 0;; x += 0x20)
;
	lda     #$20
	clc
	adc     _x
	jmp     L2884
;
; if (y == 0xe0)
;
L288C:	lda     _y
	cmp     #$E0
;
; break;
;
	beq     L288D
;
; for (y = 0;; y += 0x20)
;
	lda     #$20
	clc
	adc     _y
	jmp     L2885
;
; for (y = 0;; y += 0x20)
;
L288D:	lda     #$00
L2887:	sta     _y
;
; for (x = 0;; x += 0x20)
;
	lda     #$00
L2886:	sta     _x
;
; address = get_ppu_addr(nametable_to_use, x, y);
;
	jsr     decsp2
	lda     _nametable_to_use
	ldy     #$01
	sta     (sp),y
	lda     _x
	dey
	sta     (sp),y
	lda     _y
	jsr     _get_ppu_addr
	sta     _address
	stx     _address+1
;
; index = (y & 0xf0) + (x >> 4);
;
	lda     _y
	and     #$F0
	sta     ptr1
	lda     _x
	lsr     a
	lsr     a
	lsr     a
	lsr     a
	clc
	adc     ptr1
	sta     _index
;
; buffer_4_mt(address, index); // ppu_address, index to the data
;
	lda     _address
	ldx     _address+1
	jsr     pushax
	lda     _index
	jsr     _buffer_4_mt
;
; flush_vram_update2();
;
	jsr     _flush_vram_update2
;
; if (x == 0xe0)
;
	lda     _x
	cmp     #$E0
;
; break;
;
	beq     L288E
;
; for (x = 0;; x += 0x20)
;
	lda     #$20
	clc
	adc     _x
	jmp     L2886
;
; if (y == 0xe0)
;
L288E:	lda     _y
	cmp     #$E0
;
; break;
;
	beq     L24EF
;
; for (y = 0;; y += 0x20)
;
	lda     #$20
	clc
	adc     _y
	jmp     L2887
;
; ppu_on_all(); // turn on screen
;
L24EF:	jmp     _ppu_on_all

.endproc

; ---------------------------------------------------------------
; void __near__ draw_sprites (void)
; ---------------------------------------------------------------

.segment	"CODE"

.proc	_draw_sprites: near

.segment	"CODE"

;
; oam_clear();
;
	jsr     _oam_clear
;
; if (level == GIMMICK_DUCK_HUNT && duck_exists)
;
	lda     _level
	cmp     #$05
	bne     L2891
	lda     _duck_exists
	beq     L2891
;
; oam_meta_spr(112, 136, Duck_data);
;
	jsr     decsp2
	lda     #$70
	ldy     #$01
	sta     (sp),y
	lda     #$88
	dey
	sta     (sp),y
	lda     #<(_Duck_data)
	ldx     #>(_Duck_data)
	jsr     _oam_meta_spr
;
; if (level == GIMMICK_TURBO_FLAGS)
;
L2891:	lda     _level
	cmp     #$07
	bne     L251A
;
; flag_a_pos = 160 - flag_a;
;
	lda     #$A0
	sec
	sbc     _flag_a
	sta     _flag_a_pos
;
; flag_b_pos = 176 - flag_b;
;
	lda     #$B0
	sec
	sbc     _flag_b
	sta     _flag_b_pos
;
; oam_meta_spr(53, flag_a_pos, perryflag0_data); // flag_a
;
	jsr     decsp2
	lda     #$35
	ldy     #$01
	sta     (sp),y
	lda     _flag_a_pos
	dey
	sta     (sp),y
	lda     #<(_perryflag0_data)
	ldx     #>(_perryflag0_data)
	jsr     _oam_meta_spr
;
; oam_meta_spr(197, flag_b_pos, perryflag0_data); // flag_b
;
	jsr     decsp2
	lda     #$C5
	ldy     #$01
	sta     (sp),y
	lda     _flag_b_pos
	dey
	sta     (sp),y
	lda     #<(_perryflag0_data)
	ldx     #>(_perryflag0_data)
	jsr     _oam_meta_spr
;
; oam_meta_spr(51, 112, flagpolelong_data);
;
	jsr     decsp2
	lda     #$33
	ldy     #$01
	sta     (sp),y
	lda     #$70
	dey
	sta     (sp),y
	lda     #<(_flagpolelong_data)
	ldx     #>(_flagpolelong_data)
	jsr     _oam_meta_spr
;
; oam_meta_spr(195, 128, flagpolelong_data);
;
	jsr     decsp2
	lda     #$C3
	ldy     #$01
	sta     (sp),y
	lda     #$80
	dey
	sta     (sp),y
	lda     #<(_flagpolelong_data)
	ldx     #>(_flagpolelong_data)
	jsr     _oam_meta_spr
;
; draw_player_sprite();
;
L251A:	jmp     _draw_player_sprite

.endproc

; ---------------------------------------------------------------
; void __near__ movement (void)
; ---------------------------------------------------------------

.segment	"CODE"

.proc	_movement: near

.segment	"CODE"

;
; is_moving = 0;
;
	lda     #$00
	sta     _is_moving
;
; has_moved = 0;
;
	sta     _has_moved
;
; if (pad1 & local_left)
;
	lda     _local_left
	and     _pad1
	pha
	pla
	beq     L2894
;
; is_moving = 1;
;
	lda     #$01
	sta     _is_moving
;
; BoxGuy1.direction = LEFT;
;
	lda     #$00
	sta     _BoxGuy1+4
;
; BoxGuy1.X -= 1;
;
	dec     _BoxGuy1
;
; has_moved = 1;
;
	lda     #$01
;
; else if (pad1 & local_right)
;
	jmp     L2892
L2894:	lda     _local_right
	and     _pad1
	pha
	pla
	beq     L2541
;
; is_moving = 1;
;
	lda     #$01
	sta     _is_moving
;
; BoxGuy1.direction = RIGHT;
;
	sta     _BoxGuy1+4
;
; BoxGuy1.X += 1;
;
	inc     _BoxGuy1
;
; has_moved = 1;
;
L2892:	sta     _has_moved
;
; bg_collision();
;
L2541:	jsr     _bg_collision
;
; if (collision_R)
;
	lda     _collision_R
	beq     L254C
;
; BoxGuy1.X -= 1;
;
	dec     _BoxGuy1
;
; if (collision_L)
;
L254C:	lda     _collision_L
	beq     L2550
;
; BoxGuy1.X += 1;
;
	inc     _BoxGuy1
;
; if (pad1 & local_up && has_moved == 0)
;
L2550:	lda     _local_up
	and     _pad1
	pha
	pla
	beq     L2898
	lda     _has_moved
	bne     L2898
;
; BoxGuy1.direction = UP;
;
	lda     #$02
	sta     _BoxGuy1+4
;
; BoxGuy1.Y -= 1;
;
	dec     _BoxGuy1+1
;
; else if (pad1 & local_down && has_moved == 0)
;
	jmp     L289D
L2898:	lda     _local_down
	and     _pad1
	pha
	pla
	beq     L2561
	lda     _has_moved
	bne     L2561
;
; BoxGuy1.direction = DOWN;
;
	lda     #$03
	sta     _BoxGuy1+4
;
; BoxGuy1.Y += 1;
;
	inc     _BoxGuy1+1
;
; has_moved = 1;
;
L289D:	lda     #$01
	sta     _has_moved
;
; is_moving = 1;
;
	sta     _is_moving
;
; bg_collision();
;
L2561:	jsr     _bg_collision
;
; sprite_collision();
;
	jsr     _sprite_collision
;
; if (collision_D)
;
	lda     _collision_D
	beq     L256F
;
; BoxGuy1.Y -= 1;
;
	dec     _BoxGuy1+1
;
; if (collision_U)
;
L256F:	lda     _collision_U
	beq     L2573
;
; BoxGuy1.Y += 1;
;
	inc     _BoxGuy1+1
;
; }
;
L2573:	rts

.endproc

; ---------------------------------------------------------------
; void __near__ bg_collision (void)
; ---------------------------------------------------------------

.segment	"CODE"

.proc	_bg_collision: near

.segment	"CODE"

;
; collision_L = 0;
;
	lda     #$00
	sta     _collision_L
;
; collision_R = 0;
;
	sta     _collision_R
;
; collision_U = 0;
;
	sta     _collision_U
;
; collision_D = 0;
;
	sta     _collision_D
;
; temp_x = BoxGuy1.X; // left side
;
	lda     _BoxGuy1
	sta     _temp_x
;
; temp_y = BoxGuy1.Y; // top side
;
	lda     _BoxGuy1+1
	sta     _temp_y
;
; if (temp_y >= 0xf0)
;
	cmp     #$F0
;
; return;
;
	bcc     L28A7
;
; }
;
	rts
;
; coordinates = (temp_x >> 4) + (temp_y & 0xf0); // upper left
;
L28A7:	lda     _temp_x
	lsr     a
	lsr     a
	lsr     a
	lsr     a
	sta     ptr1
	lda     _temp_y
	and     #$F0
	clc
	adc     ptr1
	sta     _coordinates
;
; collision2 = c_map[coordinates];
;
	ldy     _coordinates
	lda     _c_map,y
	sta     _collision2
;
; if (metatile_colision_map[collision2])
;
	ldy     _collision2
	lda     _metatile_colision_map,y
	beq     L28A0
;
; ++collision_L;
;
	inc     _collision_L
;
; ++collision_U;
;
	inc     _collision_U
;
; if (metatile_colision_map[collision2] == GOAL_FLAG)
;
	ldy     _collision2
	lda     _metatile_colision_map,y
	cmp     #$02
	bne     L28A0
;
; init_mode_level_end();
;
	jsr     _init_mode_level_end
;
; temp_x = BoxGuy1.X + BoxGuy1.width; // right side
;
L28A0:	lda     _BoxGuy1
	clc
	adc     _BoxGuy1+2
	sta     _temp_x
;
; coordinates = (temp_x >> 4) + (temp_y & 0xf0); // upper right
;
	lsr     a
	lsr     a
	lsr     a
	lsr     a
	sta     ptr1
	lda     _temp_y
	and     #$F0
	clc
	adc     ptr1
	sta     _coordinates
;
; collision2 = c_map[coordinates];
;
	ldy     _coordinates
	lda     _c_map,y
	sta     _collision2
;
; if (metatile_colision_map[collision2])
;
	ldy     _collision2
	lda     _metatile_colision_map,y
	beq     L28A1
;
; ++collision_R;
;
	inc     _collision_R
;
; ++collision_U;
;
	inc     _collision_U
;
; if (metatile_colision_map[collision2] == GOAL_FLAG)
;
	ldy     _collision2
	lda     _metatile_colision_map,y
	cmp     #$02
	bne     L28A1
;
; init_mode_level_end();
;
	jsr     _init_mode_level_end
;
; temp_y = BoxGuy1.Y + BoxGuy1.height; // bottom side
;
L28A1:	lda     _BoxGuy1+1
	clc
	adc     _BoxGuy1+3
	sta     _temp_y
;
; if (temp_y >= 0xf0)
;
	cmp     #$F0
;
; return;
;
	bcs     L25DF
;
; coordinates = (temp_x >> 4) + (temp_y & 0xf0); // bottom right
;
	lda     _temp_x
	lsr     a
	lsr     a
	lsr     a
	lsr     a
	sta     ptr1
	lda     _temp_y
	and     #$F0
	clc
	adc     ptr1
	sta     _coordinates
;
; collision2 = c_map[coordinates];
;
	ldy     _coordinates
	lda     _c_map,y
	sta     _collision2
;
; if (metatile_colision_map[collision2])
;
	ldy     _collision2
	lda     _metatile_colision_map,y
	beq     L28A2
;
; ++collision_R;
;
	inc     _collision_R
;
; ++collision_D;
;
	inc     _collision_D
;
; if (metatile_colision_map[collision2] == GOAL_FLAG)
;
	ldy     _collision2
	lda     _metatile_colision_map,y
	cmp     #$02
	bne     L28A2
;
; init_mode_level_end();
;
	jsr     _init_mode_level_end
;
; temp_x = BoxGuy1.X; // left side
;
L28A2:	lda     _BoxGuy1
	sta     _temp_x
;
; coordinates = (temp_x >> 4) + (temp_y & 0xf0); // bottom left
;
	lsr     a
	lsr     a
	lsr     a
	lsr     a
	sta     ptr1
	lda     _temp_y
	and     #$F0
	clc
	adc     ptr1
	sta     _coordinates
;
; collision2 = c_map[coordinates];
;
	ldy     _coordinates
	lda     _c_map,y
	sta     _collision2
;
; if (metatile_colision_map[collision2])
;
	ldy     _collision2
	lda     _metatile_colision_map,y
	beq     L25DF
;
; ++collision_L;
;
	inc     _collision_L
;
; ++collision_D;
;
	inc     _collision_D
;
; if (metatile_colision_map[collision2] == GOAL_FLAG)
;
	ldy     _collision2
	lda     _metatile_colision_map,y
	cmp     #$02
;
; init_mode_level_end();
;
	jeq     _init_mode_level_end
;
; }
;
L25DF:	rts

.endproc

; ---------------------------------------------------------------
; void __near__ sprite_collision (void)
; ---------------------------------------------------------------

.segment	"CODE"

.proc	_sprite_collision: near

.segment	"CODE"

;
; if (level == GIMMICK_DUCK_HUNT && duck_exists)
;
	lda     _level
	cmp     #$05
	bne     L28A8
	lda     _duck_exists
	bne     L28A9
L28A8:	rts
;
; if (BoxGuy1.X >= 112 && BoxGuy1.X <= 144 && BoxGuy1.Y >= 128 && BoxGuy1.Y <= 176)
;
L28A9:	lda     _BoxGuy1
	cmp     #$70
	bcc     L28AB
	cmp     #$91
	bcs     L28AB
	lda     _BoxGuy1+1
	cmp     #$80
	bcc     L28AB
	cmp     #$B1
	bcc     L28AC
L28AB:	rts
;
; ++collision_U;
;
L28AC:	inc     _collision_U
;
; }
;
	rts

.endproc

; ---------------------------------------------------------------
; void __near__ level_up (void)
; ---------------------------------------------------------------

.segment	"CODE"

.proc	_level_up: near

.segment	"CODE"

;
; ++level;
;
	inc     _level
;
; if (level >= LAST_LEVEL)
;
	lda     _level
	cmp     #$11
	bcc     L25E9
;
; init_level();
;
	jsr     _init_level
;
; game_mode = MODE_GAME_OVER;
;
	lda     #$08
	sta     _game_mode
;
; level = 0;
;
	lda     #$00
	sta     _level
;
; else
;
	rts
;
; init_level();
;
L25E9:	jmp     _init_level

.endproc

; ---------------------------------------------------------------
; void __near__ init_level (void)
; ---------------------------------------------------------------

.segment	"CODE"

.proc	_init_level: near

.segment	"CODE"

;
; BoxGuy1.X = level_player_x[level];
;
	ldy     _level
	lda     _level_player_x,y
	sta     _BoxGuy1
;
; BoxGuy1.Y = level_player_y[level];
;
	ldy     _level
	lda     _level_player_y,y
	sta     _BoxGuy1+1
;
; oam_clear();
;
	jsr     _oam_clear
;
; ppu_off();
;
	jsr     _ppu_off
;
; game_mode = MODE_GAME;
;
	lda     #$01
	sta     _game_mode
;
; draw_bg();
;
	jsr     _draw_bg
;
; set_direction();
;
	jsr     _set_direction
;
; ppu_on_all();
;
	jsr     _ppu_on_all
;
; pal_fade_to(0, 4);
;
	lda     #$00
	jsr     pusha
	lda     #$04
	jmp     _pal_fade_to

.endproc

; ---------------------------------------------------------------
; void __near__ set_direction (void)
; ---------------------------------------------------------------

.segment	"CODE"

.proc	_set_direction: near

.segment	"CODE"

;
; local_up = PAD_UP;
;
	lda     #$08
	sta     _local_up
;
; local_down = PAD_DOWN;
;
	lda     #$04
	sta     _local_down
;
; local_left = PAD_LEFT;
;
	lda     #$02
	sta     _local_left
;
; local_right = PAD_RIGHT;
;
	lda     #$01
	sta     _local_right
;
; if (level == GIMMICK_NINETY_DEGREE) // gimmick level
;
	lda     _level
	cmp     #$04
	bne     L27EA
;
; local_up = PAD_LEFT;
;
	lda     #$02
	sta     _local_up
;
; local_down = PAD_RIGHT;
;
	lda     #$01
	sta     _local_down
;
; local_left = PAD_DOWN;
;
	lda     #$04
	sta     _local_left
;
; local_right = PAD_UP;
;
	lda     #$08
	sta     _local_right
;
; }
;
L27EA:	rts

.endproc

; ---------------------------------------------------------------
; void __near__ draw_player_sprite (void)
; ---------------------------------------------------------------

.segment	"CODE"

.proc	_draw_player_sprite: near

.segment	"CODE"

;
; ++player_moved_frames;
;
	inc     _player_moved_frames
;
; if (player_moved_frames > 32)
;
	lda     _player_moved_frames
	cmp     #$21
	bcc     L28B2
;
; player_moved_frames = 0;
;
	lda     #$00
	sta     _player_moved_frames
;
; switch (BoxGuy1.direction)
;
L28B2:	lda     _BoxGuy1+4
;
; }
;
	beq     L27FE
	cmp     #$01
	beq     L281B
	cmp     #$02
	jeq     L2838
	cmp     #$03
	jeq     L2855
	jmp     L2871
;
; if (is_moving)
;
L27FE:	lda     _is_moving
	beq     L27FF
;
; if (player_moved_frames < 8)
;
	lda     _player_moved_frames
	cmp     #$08
	bcs     L28B3
;
; pointer2 = perrywalkleft0_data;
;
	lda     #>(_perrywalkleft0_data)
	sta     _pointer2+1
	lda     #<(_perrywalkleft0_data)
;
; else if (player_moved_frames < 16)
;
	jmp     L28AE
L28B3:	lda     _player_moved_frames
	cmp     #$10
	bcs     L28B4
;
; pointer2 = perrywalkleft1_data;
;
	lda     #>(_perrywalkleft1_data)
	sta     _pointer2+1
	lda     #<(_perrywalkleft1_data)
;
; else if (player_moved_frames < 24)
;
	jmp     L28AE
L28B4:	lda     _player_moved_frames
	cmp     #$18
	bcs     L28B5
;
; pointer2 = perrywalkleft2_data;
;
	lda     #>(_perrywalkleft2_data)
	sta     _pointer2+1
	lda     #<(_perrywalkleft2_data)
;
; else if (player_moved_frames < 32)
;
	jmp     L28AE
L28B5:	lda     _player_moved_frames
	cmp     #$20
	bcs     L2810
;
; pointer2 = perrywalkleft1_data;
;
	lda     #>(_perrywalkleft1_data)
	sta     _pointer2+1
	lda     #<(_perrywalkleft1_data)
;
; else
;
	jmp     L28AE
;
; pointer2 = perrywalkleft0_data;
;
L2810:	lda     #>(_perrywalkleft0_data)
	sta     _pointer2+1
	lda     #<(_perrywalkleft0_data)
;
; else
;
	jmp     L28AE
;
; pointer2 = perrystandleft_data;
;
L27FF:	lda     #>(_perrystandleft_data)
	sta     _pointer2+1
	lda     #<(_perrystandleft_data)
;
; break;
;
	jmp     L28AE
;
; if (is_moving)
;
L281B:	lda     _is_moving
	jeq     L2871
;
; if (player_moved_frames < 8)
;
	lda     _player_moved_frames
	cmp     #$08
	bcs     L28B6
;
; pointer2 = perrywalkright0_data;
;
	lda     #>(_perrywalkright0_data)
	sta     _pointer2+1
	lda     #<(_perrywalkright0_data)
;
; else if (player_moved_frames < 16)
;
	jmp     L28AE
L28B6:	lda     _player_moved_frames
	cmp     #$10
	bcs     L28B7
;
; pointer2 = perrywalkright1_data;
;
	lda     #>(_perrywalkright1_data)
	sta     _pointer2+1
	lda     #<(_perrywalkright1_data)
;
; else if (player_moved_frames < 24)
;
	jmp     L28AE
L28B7:	lda     _player_moved_frames
	cmp     #$18
	bcs     L28B8
;
; pointer2 = perrywalkright2_data;
;
	lda     #>(_perrywalkright2_data)
	sta     _pointer2+1
	lda     #<(_perrywalkright2_data)
;
; else if (player_moved_frames < 32)
;
	jmp     L28AE
L28B8:	lda     _player_moved_frames
	cmp     #$20
	bcs     L282D
;
; pointer2 = perrywalkright1_data;
;
	lda     #>(_perrywalkright1_data)
	sta     _pointer2+1
	lda     #<(_perrywalkright1_data)
;
; else
;
	jmp     L28AE
;
; pointer2 = perrywalkright0_data;
;
L282D:	lda     #>(_perrywalkright0_data)
	sta     _pointer2+1
	lda     #<(_perrywalkright0_data)
;
; else
;
	jmp     L28AE
;
; if (is_moving)
;
L2838:	lda     _is_moving
	beq     L2839
;
; if (player_moved_frames < 8)
;
	lda     _player_moved_frames
	cmp     #$08
	bcs     L28B9
;
; pointer2 = perrywalkup0_data;
;
	lda     #>(_perrywalkup0_data)
	sta     _pointer2+1
	lda     #<(_perrywalkup0_data)
;
; else if (player_moved_frames < 16)
;
	jmp     L28AE
L28B9:	lda     _player_moved_frames
	cmp     #$10
	bcs     L28BA
;
; pointer2 = perrywalkup1_data;
;
	lda     #>(_perrywalkup1_data)
	sta     _pointer2+1
	lda     #<(_perrywalkup1_data)
;
; else if (player_moved_frames < 24)
;
	jmp     L28AE
L28BA:	lda     _player_moved_frames
	cmp     #$18
	bcs     L28BB
;
; pointer2 = perrywalkup2_data;
;
	lda     #>(_perrywalkup2_data)
	sta     _pointer2+1
	lda     #<(_perrywalkup2_data)
;
; else if (player_moved_frames < 32)
;
	jmp     L28AE
L28BB:	lda     _player_moved_frames
	cmp     #$20
	bcs     L284A
;
; pointer2 = perrywalkup1_data;
;
	lda     #>(_perrywalkup1_data)
	sta     _pointer2+1
	lda     #<(_perrywalkup1_data)
;
; else
;
	jmp     L28AE
;
; pointer2 = perrywalkup0_data;
;
L284A:	lda     #>(_perrywalkup0_data)
	sta     _pointer2+1
	lda     #<(_perrywalkup0_data)
;
; else
;
	jmp     L28AE
;
; pointer2 = perrywalkup0_data;
;
L2839:	lda     #>(_perrywalkup0_data)
	sta     _pointer2+1
	lda     #<(_perrywalkup0_data)
;
; break;
;
	jmp     L28AE
;
; if (is_moving)
;
L2855:	lda     _is_moving
	beq     L2856
;
; if (player_moved_frames < 8)
;
	lda     _player_moved_frames
	cmp     #$08
	bcs     L28BC
;
; pointer2 = perrywalkdown0_data;
;
	lda     #>(_perrywalkdown0_data)
	sta     _pointer2+1
	lda     #<(_perrywalkdown0_data)
;
; else if (player_moved_frames < 16)
;
	jmp     L28AE
L28BC:	lda     _player_moved_frames
	cmp     #$10
	bcs     L28BD
;
; pointer2 = perrywalkdown1_data;
;
	lda     #>(_perrywalkdown1_data)
	sta     _pointer2+1
	lda     #<(_perrywalkdown1_data)
;
; else if (player_moved_frames < 24)
;
	jmp     L28AE
L28BD:	lda     _player_moved_frames
	cmp     #$18
	bcs     L28BE
;
; pointer2 = perrywalkdown2_data;
;
	lda     #>(_perrywalkdown2_data)
	sta     _pointer2+1
	lda     #<(_perrywalkdown2_data)
;
; else if (player_moved_frames < 32)
;
	jmp     L28AE
L28BE:	lda     _player_moved_frames
	cmp     #$20
	bcs     L2867
;
; pointer2 = perrywalkdown1_data;
;
	lda     #>(_perrywalkdown1_data)
	sta     _pointer2+1
	lda     #<(_perrywalkdown1_data)
;
; else
;
	jmp     L28AE
;
; pointer2 = perrywalkdown0_data;
;
L2867:	lda     #>(_perrywalkdown0_data)
	sta     _pointer2+1
	lda     #<(_perrywalkdown0_data)
;
; else
;
	jmp     L28AE
;
; pointer2 = perrywalkdown0_data;
;
L2856:	lda     #>(_perrywalkdown0_data)
	sta     _pointer2+1
	lda     #<(_perrywalkdown0_data)
;
; break;
;
	jmp     L28AE
;
; pointer2 = perrystandright_data;
;
L2871:	lda     #>(_perrystandright_data)
	sta     _pointer2+1
	lda     #<(_perrystandright_data)
L28AE:	sta     _pointer2
;
; oam_meta_spr(BoxGuy1.X, BoxGuy1.Y, pointer2);
;
	jsr     decsp2
	lda     _BoxGuy1
	ldy     #$01
	sta     (sp),y
	lda     _BoxGuy1+1
	dey
	sta     (sp),y
	lda     _pointer2
	ldx     _pointer2+1
	jmp     _oam_meta_spr

.endproc

; ---------------------------------------------------------------
; void __near__ init_mode_title (void)
; ---------------------------------------------------------------

.segment	"CODE"

.proc	_init_mode_title: near

.segment	"CODE"

;
; ppu_off();
;
	jsr     _ppu_off
;
; clear_vram_buffer();
;
	jsr     _clear_vram_buffer
;
; set_data_pointer(title_0);
;
	lda     #<(_title_0)
	ldx     #>(_title_0)
	jsr     _set_data_pointer
;
; set_mt_pointer(titletiles);
;
	lda     #<(_titletiles)
	ldx     #>(_titletiles)
	jsr     _set_mt_pointer
;
; pal_bg(title_bg_palette);
;
	lda     #<(_title_bg_palette)
	ldx     #>(_title_bg_palette)
	jsr     _pal_bg
;
; for (y = 0;; y += 0x20)
;
	lda     #$00
L28C3:	sta     _y
;
; for (x = 0;; x += 0x20)
;
	lda     #$00
L28C2:	sta     _x
;
; address = get_ppu_addr(0, x, y);
;
	jsr     decsp2
	lda     #$00
	ldy     #$01
	sta     (sp),y
	lda     _x
	dey
	sta     (sp),y
	lda     _y
	jsr     _get_ppu_addr
	sta     _address
	stx     _address+1
;
; index = (y & 0xf0) + (x >> 4);
;
	lda     _y
	and     #$F0
	sta     ptr1
	lda     _x
	lsr     a
	lsr     a
	lsr     a
	lsr     a
	clc
	adc     ptr1
	sta     _index
;
; buffer_4_mt(address, index); // ppu_address, index to the data
;
	lda     _address
	ldx     _address+1
	jsr     pushax
	lda     _index
	jsr     _buffer_4_mt
;
; flush_vram_update2();
;
	jsr     _flush_vram_update2
;
; if (x == 0xe0)
;
	lda     _x
	cmp     #$E0
;
; break;
;
	beq     L28C4
;
; for (x = 0;; x += 0x20)
;
	lda     #$20
	clc
	adc     _x
	jmp     L28C2
;
; if (y == 0xe0)
;
L28C4:	lda     _y
	cmp     #$E0
;
; break;
;
	beq     L26EC
;
; for (y = 0;; y += 0x20)
;
	lda     #$20
	clc
	adc     _y
	jmp     L28C3
;
; ppu_on_all();
;
L26EC:	jsr     _ppu_on_all
;
; game_mode = MODE_TITLE;
;
	lda     #$00
	sta     _game_mode
;
; frame_count = 0;
;
	sta     _frame_count
;
; frame_count2 = 0;
;
	sta     _frame_count2
;
; BoxGuy1.X = 0;
;
	sta     _BoxGuy1
;
; BoxGuy1.Y = 138;
;
	lda     #$8A
	sta     _BoxGuy1+1
;
; BoxGuy1.direction = RIGHT;
;
	lda     #$01
	sta     _BoxGuy1+4
;
; }
;
	rts

.endproc

; ---------------------------------------------------------------
; void __near__ title_cutscene (void)
; ---------------------------------------------------------------

.segment	"CODE"

.proc	_title_cutscene: near

.segment	"CODE"

;
; oam_clear();
;
	jsr     _oam_clear
;
; oam_meta_spr(48, 72, eyewag0_data);
;
	jsr     decsp2
	lda     #$30
	ldy     #$01
	sta     (sp),y
	lda     #$48
	dey
	sta     (sp),y
	lda     #<(_eyewag0_data)
	ldx     #>(_eyewag0_data)
	jsr     _oam_meta_spr
;
; ++frame_count3;
;
	inc     _frame_count3
;
; ++frame_count4;
;
	inc     _frame_count4
;
; if (frame_count3 <= 10)
;
	lda     _frame_count3
	cmp     #$0B
	bcs     L28C7
;
; oam_meta_spr(48, 96, tonguewag1_data);
;
	jsr     decsp2
	lda     #$30
	ldy     #$01
	sta     (sp),y
	lda     #$60
	dey
	sta     (sp),y
	lda     #<(_tonguewag1_data)
	ldx     #>(_tonguewag1_data)
;
; else if (frame_count3 <= 20)
;
	jmp     L28C5
L28C7:	lda     _frame_count3
	cmp     #$15
	bcs     L28C8
;
; oam_meta_spr(48, 96, tonguewag2_data);
;
	jsr     decsp2
	lda     #$30
	ldy     #$01
	sta     (sp),y
	lda     #$60
	dey
	sta     (sp),y
	lda     #<(_tonguewag2_data)
	ldx     #>(_tonguewag2_data)
;
; else if (frame_count3 <= 30)
;
	jmp     L28C5
L28C8:	lda     _frame_count3
	cmp     #$1F
	bcs     L28C9
;
; oam_meta_spr(48, 96, tonguewag1_data);
;
	jsr     decsp2
	lda     #$30
	ldy     #$01
	sta     (sp),y
	lda     #$60
	dey
	sta     (sp),y
	lda     #<(_tonguewag1_data)
	ldx     #>(_tonguewag1_data)
;
; else if (frame_count3 <= 40)
;
	jmp     L28C5
L28C9:	lda     _frame_count3
	cmp     #$29
;
; else if (frame_count3 <= 50)
;
	bcc     L274B
	cmp     #$33
	bcs     L28CB
;
; oam_meta_spr(48, 96, tonguewag1_data);
;
	jsr     decsp2
	lda     #$30
	ldy     #$01
	sta     (sp),y
	lda     #$60
	dey
	sta     (sp),y
	lda     #<(_tonguewag1_data)
	ldx     #>(_tonguewag1_data)
;
; else if (frame_count3 <= 60)
;
	jmp     L28C5
L28CB:	lda     _frame_count3
	cmp     #$3D
	bcs     L28CC
;
; oam_meta_spr(48, 96, tonguewag2_data);
;
	jsr     decsp2
	lda     #$30
	ldy     #$01
	sta     (sp),y
	lda     #$60
	dey
	sta     (sp),y
	lda     #<(_tonguewag2_data)
	ldx     #>(_tonguewag2_data)
;
; else if (frame_count3 <= 70)
;
	jmp     L28C5
L28CC:	lda     _frame_count3
	cmp     #$47
	bcs     L274B
;
; oam_meta_spr(48, 96, tonguewag1_data);
;
	jsr     decsp2
	lda     #$30
	ldy     #$01
	sta     (sp),y
	lda     #$60
	dey
	sta     (sp),y
	lda     #<(_tonguewag1_data)
	ldx     #>(_tonguewag1_data)
;
; else
;
	jmp     L28C5
;
; oam_meta_spr(48, 96, tonguewag0_data);
;
L274B:	jsr     decsp2
	lda     #$30
	ldy     #$01
	sta     (sp),y
	lda     #$60
	dey
	sta     (sp),y
	lda     #<(_tonguewag0_data)
	ldx     #>(_tonguewag0_data)
L28C5:	jsr     _oam_meta_spr
;
; if (frame_count4 >= 160 && frame_count4 < 170)
;
	lda     _frame_count4
	cmp     #$A0
	bcc     L28D0
	cmp     #$AA
	bcs     L28D0
;
; oam_meta_spr(192, 96, tailwag0_data);
;
	jsr     decsp2
	lda     #$C0
	ldy     #$01
	sta     (sp),y
	lda     #$60
	dey
	sta     (sp),y
	lda     #<(_tailwag0_data)
	ldx     #>(_tailwag0_data)
;
; else if (frame_count4 < 180)
;
	jmp     L28C6
L28D0:	lda     _frame_count4
	cmp     #$B4
;
; else if (frame_count4 < 190)
;
	bcc     L2790
	cmp     #$BE
	bcs     L28D2
;
; oam_meta_spr(192, 96, tailwag2_data);
;
	jsr     decsp2
	lda     #$C0
	ldy     #$01
	sta     (sp),y
	lda     #$60
	dey
	sta     (sp),y
	lda     #<(_tailwag2_data)
	ldx     #>(_tailwag2_data)
;
; else if (frame_count4 < 200)
;
	jmp     L28C6
L28D2:	lda     _frame_count4
	cmp     #$C8
;
; else if (frame_count4 < 210)
;
	bcc     L2790
	cmp     #$D2
	bcs     L28D4
;
; oam_meta_spr(192, 96, tailwag0_data);
;
	jsr     decsp2
	lda     #$C0
	ldy     #$01
	sta     (sp),y
	lda     #$60
	dey
	sta     (sp),y
	lda     #<(_tailwag0_data)
	ldx     #>(_tailwag0_data)
;
; else if (frame_count4 < 220)
;
	jmp     L28C6
L28D4:	lda     _frame_count4
	cmp     #$DC
;
; else if (frame_count4 < 230)
;
	bcc     L2790
	cmp     #$E6
	bcs     L28D6
;
; oam_meta_spr(192, 96, tailwag2_data);
;
	jsr     decsp2
	lda     #$C0
	ldy     #$01
	sta     (sp),y
	lda     #$60
	dey
	sta     (sp),y
	lda     #<(_tailwag2_data)
	ldx     #>(_tailwag2_data)
;
; else if (frame_count4 < 240)
;
	jmp     L28C6
L28D6:	lda     _frame_count4
	cmp     #$F0
;
; else if (frame_count4 < 250)
;
	bcc     L2790
	cmp     #$FA
	bcs     L2790
;
; oam_meta_spr(192, 96, tailwag0_data);
;
	jsr     decsp2
	lda     #$C0
	ldy     #$01
	sta     (sp),y
	lda     #$60
	dey
	sta     (sp),y
	lda     #<(_tailwag0_data)
	ldx     #>(_tailwag0_data)
;
; else
;
	jmp     L28C6
;
; oam_meta_spr(192, 96, tailwag1_data);
;
L2790:	jsr     decsp2
	lda     #$C0
	ldy     #$01
	sta     (sp),y
	lda     #$60
	dey
	sta     (sp),y
	lda     #<(_tailwag1_data)
	ldx     #>(_tailwag1_data)
L28C6:	jsr     _oam_meta_spr
;
; if (frame_count > 254 && frame_count2 > 1 || BoxGuy1.X > 248)
;
	lda     _frame_count
	cmp     #$FF
	bcc     L28D8
	lda     _frame_count2
	cmp     #$02
	bcs     L28D9
L28D8:	lda     _BoxGuy1
	cmp     #$F9
	bcc     L28DA
;
; return;
;
L28D9:	rts
;
; ++frame_count;
;
L28DA:	inc     _frame_count
;
; if (frame_count > 200)
;
	lda     _frame_count
	cmp     #$C9
	bcc     L28DB
;
; ++frame_count2;
;
	inc     _frame_count2
;
; frame_count = 0;
;
	lda     #$00
	sta     _frame_count
;
; if (frame_count2 < 1)
;
L28DB:	lda     _frame_count2
;
; return;
;
	beq     L2719
;
; if (frame_count < 60)
;
	lda     _frame_count
	cmp     #$3C
	bcs     L28DC
;
; is_moving = 1;
;
	lda     #$01
	sta     _is_moving
;
; BoxGuy1.X += 1;
;
	inc     _BoxGuy1
;
; else if (frame_count < 80)
;
	jmp     _draw_player_sprite
L28DC:	lda     _frame_count
	cmp     #$50
	bcs     L28DD
;
; BoxGuy1.direction = LEFT;
;
	lda     #$00
	sta     _BoxGuy1+4
;
; is_moving = 0;
;
	sta     _is_moving
;
; else if (frame_count < 100)
;
	jmp     _draw_player_sprite
L28DD:	lda     _frame_count
	cmp     #$64
	bcs     L28DE
;
; BoxGuy1.direction = RIGHT;
;
	lda     #$01
	sta     _BoxGuy1+4
;
; else if (frame_count < 110)
;
	jmp     _draw_player_sprite
L28DE:	lda     _frame_count
	cmp     #$6E
	bcs     L28DF
;
; BoxGuy1.direction = LEFT;
;
	lda     #$00
	sta     _BoxGuy1+4
;
; is_moving = 0;
;
	sta     _is_moving
;
; else if (frame_count < 120)
;
	jmp     _draw_player_sprite
L28DF:	lda     _frame_count
	cmp     #$78
	bcs     L28E0
;
; BoxGuy1.direction = RIGHT;
;
	lda     #$01
	sta     _BoxGuy1+4
;
; else if (frame_count < 254 && BoxGuy1.X < 248)
;
	jmp     _draw_player_sprite
L28E0:	lda     _frame_count
	cmp     #$FE
	bcs     L27C7
	lda     _BoxGuy1
	cmp     #$F8
	jcs     _draw_player_sprite
;
; BoxGuy1.X += 2;
;
	lda     #$02
	clc
	adc     _BoxGuy1
	sta     _BoxGuy1
;
; draw_player_sprite();
;
L27C7:	jmp     _draw_player_sprite
;
; }
;
L2719:	rts

.endproc

; ---------------------------------------------------------------
; void __near__ init_mode_level_end (void)
; ---------------------------------------------------------------

.segment	"CODE"

.proc	_init_mode_level_end: near

.segment	"CODE"

;
; game_mode = MODE_LEVEL_END;
;
	lda     #$06
	sta     _game_mode
;
; }
;
	rts

.endproc

; ---------------------------------------------------------------
; void __near__ draw_shootable_box (void)
; ---------------------------------------------------------------

.segment	"CODE"

.proc	_draw_shootable_box: near

.segment	"CODE"

;
; if (duck_exists)
;
	lda     _duck_exists
	beq     L2486
;
; oam_meta_spr(112, 136, White_duck_data);
;
	jsr     decsp2
	lda     #$70
	ldy     #$01
	sta     (sp),y
	lda     #$88
	dey
	sta     (sp),y
	lda     #<(_White_duck_data)
	ldx     #>(_White_duck_data)
	jmp     _oam_meta_spr
;
; }
;
L2486:	rts

.endproc

; ---------------------------------------------------------------
; void __near__ process_powerpad (void)
; ---------------------------------------------------------------

.segment	"CODE"

.proc	_process_powerpad: near

.segment	"CODE"

;
; powerpad_new = (powerpad_cur^powerpad_old)&powerpad_cur;
;
	lda     _powerpad_old
	eor     _powerpad_cur
	sta     ptr1
	lda     _powerpad_old+1
	eor     _powerpad_cur+1
	sta     ptr1+1
	lda     _powerpad_cur
	and     ptr1
	sta     _powerpad_new
	lda     _powerpad_cur+1
	and     ptr1+1
	sta     _powerpad_new+1
;
; powerpad_old = powerpad_cur;
;
	lda     _powerpad_cur+1
	sta     _powerpad_old+1
	lda     _powerpad_cur
	sta     _powerpad_old
;
; } 
;
	rts

.endproc

; ---------------------------------------------------------------
; void __near__ main (void)
; ---------------------------------------------------------------

.segment	"CODE"

.proc	_main: near

.segment	"CODE"

;
; ppu_off(); // screen off
;
	jsr     _ppu_off
;
; pal_bg(palette_perrytileset_a);
;
	lda     #<(_palette_perrytileset_a)
	ldx     #>(_palette_perrytileset_a)
	jsr     _pal_bg
;
; pal_spr(palette_perrypuzzlesprites_a);
;
	lda     #<(_palette_perrypuzzlesprites_a)
	ldx     #>(_palette_perrypuzzlesprites_a)
	jsr     _pal_spr
;
; bank_spr(1);
;
	lda     #$01
	jsr     _bank_spr
;
; set_scroll_y(0xff); // shift the bg down 1 pixel
;
	ldx     #$00
	lda     #$FF
	jsr     _set_scroll_y
;
; set_vram_buffer();
;
	jsr     _set_vram_buffer
;
; ppu_wait_nmi();
;
	jsr     _ppu_wait_nmi
;
; init_mode_title();
;
	jsr     _init_mode_title
;
; if (game_mode == MODE_TITLE)
;
L28F6:	lda     _game_mode
	bne     L28F7
;
; ppu_wait_nmi();
;
	jsr     _ppu_wait_nmi
;
; pad1 = pad_poll(0);
;
	lda     #$00
	jsr     _pad_poll
	sta     _pad1
;
; pad1_new = get_pad_new(0);
;
	lda     #$00
	jsr     _get_pad_new
	sta     _pad1_new
;
; title_cutscene();
;
	jsr     _title_cutscene
;
; if (pad1_new & PAD_START)
;
	lda     _pad1_new
	and     #$10
	beq     L28F6
;
; duck_exists = 1;
;
	lda     #$01
	sta     _duck_exists
;
; scroll_x = 0;
;
	lda     #$00
	sta     _scroll_x
	sta     _scroll_x+1
;
; level = GIMMICK_UNPLUG_CONTROLLER; // debug this value
;
	lda     #$08
	sta     _level
;
; pal_bg(palette_perrytileset_a);
;
	lda     #<(_palette_perrytileset_a)
	ldx     #>(_palette_perrytileset_a)
	jsr     _pal_bg
;
; init_level();
;
	jsr     _init_level
;
; game_mode = MODE_GAME;
;
	lda     #$01
	sta     _game_mode
;
; else if (game_mode == MODE_GAME_OVER)
;
	jmp     L28F6
L28F7:	lda     _game_mode
	cmp     #$08
	bne     L28F8
;
; ppu_wait_nmi();
;
	jsr     _ppu_wait_nmi
;
; pad1 = pad_poll(0);
;
	lda     #$00
	jsr     _pad_poll
	sta     _pad1
;
; pad1_new = get_pad_new(0);
;
	lda     #$00
	jsr     _get_pad_new
	sta     _pad1_new
;
; if (pad1_new & PAD_START)
;
	and     #$10
	beq     L28F6
;
; game_mode = MODE_GAME;
;
	lda     #$01
	sta     _game_mode
;
; else if (game_mode == MODE_LEVEL_SELECT)
;
	jmp     L28F6
L28F8:	lda     _game_mode
	cmp     #$07
	bne     L28F9
;
; ppu_wait_nmi();
;
	jsr     _ppu_wait_nmi
;
; pad1 = pad_poll(0);
;
	lda     #$00
	jsr     _pad_poll
	sta     _pad1
;
; pad1_new = get_pad_new(0);
;
	lda     #$00
	jsr     _get_pad_new
	sta     _pad1_new
;
; if (pad1_new & PAD_START)
;
	and     #$10
	jeq     L28F6
;
; game_mode = MODE_GAME;
;
	lda     #$01
	sta     _game_mode
;
; else if (game_mode == MODE_GAME)
;
	jmp     L28F6
L28F9:	lda     _game_mode
	cmp     #$01
	jne     L2929
;
; ppu_wait_nmi();
;
	jsr     _ppu_wait_nmi
;
; if (level == GIMMICK_TWO_PLAYER)
;
	lda     _level
	cmp     #$03
	bne     L232D
;
; pad1 = pad_poll(1);     // read the first controller
;
	lda     #$01
	jsr     _pad_poll
	sta     _pad1
;
; pad1_new = get_pad_new(1); // newly pressed button. do pad_poll first
;
	lda     #$01
;
; else
;
	jmp     L292C
;
; pad1 = pad_poll(0);     // read the first controller
;
L232D:	lda     #$00
	jsr     _pad_poll
	sta     _pad1
;
; pad1_new = get_pad_new(0); // newly pressed button. do pad_poll first
;
	lda     #$00
L292C:	jsr     _get_pad_new
	sta     _pad1_new
;
; if (level == GIMMICK_DUCK_HUNT)
;
	lda     _level
	cmp     #$05
	bne     L28FA
;
; zapper_ready = pad2_zapper ^ 1; // XOR last frame, make sure not held down still
;
	lda     _pad2_zapper
	eor     #$01
	sta     _zapper_ready
;
; pad2_zapper = zap_shoot(1); // controller slot 2
;
	lda     #$01
	jsr     _zap_shoot
	sta     _pad2_zapper
;
; if ((pad2_zapper) && (zapper_ready))
;
	lda     _pad2_zapper
	beq     L28FA
	lda     _zapper_ready
	beq     L28FA
;
; oam_clear();
;
	jsr     _oam_clear
;
; draw_shootable_box(); // redraw the star as a box
;
	jsr     _draw_shootable_box
;
; ppu_mask(0x16);    // BG off, won't happen till NEXT frame
;
	lda     #$16
	jsr     _ppu_mask
;
; ppu_wait_nmi(); // wait till the top of the next frame
;
	jsr     _ppu_wait_nmi
;
; draw_bg();
;
	jsr     _draw_bg
;
; oam_clear();  // clear the NEXT frame
;
	jsr     _oam_clear
;
; ppu_mask(0x1e); // bg on, won't happen till NEXT frame
;
	lda     #$1E
	jsr     _ppu_mask
;
; hit_detected = zap_read(1); // look for light in zapper, port 2
;
	lda     #$01
	jsr     _zap_read
	sta     _hit_detected
;
; if (hit_detected)
;
	lda     _hit_detected
	beq     L28FA
;
; duck_exists = 0;
;
	lda     #$00
	sta     _duck_exists
;
; if (level == GIMMICK_SCREEN_SCROLL)
;
L28FA:	lda     _level
	cmp     #$06
	bne     L28FE
;
; ++frame_count;
;
	inc     _frame_count
;
; if (frame_count == 20)
;
	lda     _frame_count
	cmp     #$14
	bne     L235C
;
; if (scroll_x > 0)
;
	lda     _scroll_x
	ora     _scroll_x+1
	beq     L28FC
;
; --scroll_x;
;
	lda     _scroll_x
	sec
	sbc     #$01
	sta     _scroll_x
	bcs     L2362
	dec     _scroll_x+1
;
; frame_count = 0;
;
L2362:	lda     #$00
L28FC:	sta     _frame_count
;
; set_scroll_x(scroll_x);
;
L235C:	lda     _scroll_x
	ldx     _scroll_x+1
	jsr     _set_scroll_x
;
; if (pad1_new & PAD_A || pad1_new & PAD_B)
;
	lda     _pad1_new
	and     #$80
	bne     L28FD
	lda     _pad1_new
	and     #$40
	beq     L28FE
;
; if (scroll_x < 256)
;
L28FD:	ldx     _scroll_x+1
	cpx     #$01
	bcs     L28FE
;
; scroll_x += 1;
;
	inc     _scroll_x
	bne     L28FE
	inc     _scroll_x+1
;
; if (level == GIMMICK_TURBO_FLAGS)
;
L28FE:	lda     _level
	cmp     #$07
	jne     L2908
;
; ++frame_count;
;
	inc     _frame_count
;
; if (frame_count >= 60)
;
	lda     _frame_count
	cmp     #$3C
	bcc     L28FF
;
; frame_count = 0;
;
	lda     #$00
	sta     _frame_count
;
; last_turbo_a_rate = turbo_a_rate;
;
	lda     _turbo_a_rate
	sta     _last_turbo_a_rate
;
; last_turbo_b_rate = turbo_b_rate;
;
	lda     _turbo_b_rate
	sta     _last_turbo_b_rate
;
; turbo_a_rate = 0;
;
	lda     #$00
	sta     _turbo_a_rate
;
; turbo_b_rate = 0;
;
	sta     _turbo_b_rate
;
; if (frame_count % 10 == 0)
;
L28FF:	lda     _frame_count
	jsr     pusha0
	lda     #$0A
	jsr     tosumoda0
	cpx     #$00
	bne     L2902
	cmp     #$00
	bne     L2902
;
; if (last_turbo_a_rate > 0)
;
	lda     _last_turbo_a_rate
	beq     L2900
;
; if (flag_a > 0)
;
	lda     _flag_a
	beq     L2902
;
; --flag_a;
;
	dec     _flag_a
;
; else
;
	jmp     L2902
;
; if (flag_a > 4)
;
L2900:	lda     _flag_a
	cmp     #$05
	txa
	bcc     L28F4
;
; flag_a -= 4;
;
	lda     _flag_a
	sec
	sbc     #$04
;
; flag_a = 0;
;
L28F4:	sta     _flag_a
;
; if (frame_count == 25 || frame_count == 50)
;
L2902:	lda     _frame_count
	cmp     #$19
	beq     L2903
	cmp     #$32
	bne     L2906
;
; if (last_turbo_b_rate > 0)
;
L2903:	lda     _last_turbo_b_rate
	beq     L2904
;
; if (flag_b > 0)
;
	lda     _flag_b
	beq     L2906
;
; --flag_b;
;
	dec     _flag_b
;
; else
;
	jmp     L2906
;
; if (flag_b > 4)
;
L2904:	lda     _flag_b
	cmp     #$05
	lda     #$00
	bcc     L28F5
;
; flag_b -= 4;
;
	lda     _flag_b
	sec
	sbc     #$04
;
; flag_b = 0;
;
L28F5:	sta     _flag_b
;
; if (pad1_new & PAD_A)
;
L2906:	lda     _pad1_new
	and     #$80
	beq     L2907
;
; ++turbo_a_rate;
;
	inc     _turbo_a_rate
;
; if (flag_a < 110)
;
	lda     _flag_a
	cmp     #$6E
	bcs     L2907
;
; ++flag_a;
;
	inc     _flag_a
;
; if (pad1_new & PAD_B)
;
L2907:	lda     _pad1_new
	and     #$40
	beq     L2908
;
; ++turbo_b_rate;
;
	inc     _turbo_b_rate
;
; if (flag_b < 110)
;
	lda     _flag_b
	cmp     #$6E
	bcs     L2908
;
; ++flag_b;
;
	inc     _flag_b
;
; if(level==GIMMICK_UNPLUG_CONTROLLER){
;
L2908:	lda     _level
	cmp     #$08
	jne     L23AA
;
; one_vram_buffer(pad1&0b00000001 ? 49 : 48, NTADR_A(9, 1));
;
	lda     _pad1
	and     #$01
	beq     L2909
	lda     #$31
	jmp     L290A
L2909:	lda     #$30
L290A:	jsr     pusha
	ldx     #$20
	lda     #$29
	jsr     _one_vram_buffer
;
; one_vram_buffer(pad1&0b00000010 ? 49 : 48, NTADR_A(10, 1));
;
	lda     _pad1
	and     #$02
	beq     L290B
	lda     #$31
	jmp     L290C
L290B:	lda     #$30
L290C:	jsr     pusha
	ldx     #$20
	lda     #$2A
	jsr     _one_vram_buffer
;
; one_vram_buffer(pad1&0b00000100 ? 49 : 48, NTADR_A(11, 1));
;
	lda     _pad1
	and     #$04
	beq     L290D
	lda     #$31
	jmp     L290E
L290D:	lda     #$30
L290E:	jsr     pusha
	ldx     #$20
	lda     #$2B
	jsr     _one_vram_buffer
;
; one_vram_buffer(pad1&0b00001000 ? 49 : 48, NTADR_A(12, 1));
;
	lda     _pad1
	and     #$08
	beq     L290F
	lda     #$31
	jmp     L2910
L290F:	lda     #$30
L2910:	jsr     pusha
	ldx     #$20
	lda     #$2C
	jsr     _one_vram_buffer
;
; one_vram_buffer(pad1&0b00010000 ? 49 : 48, NTADR_A(13, 1));
;
	lda     _pad1
	and     #$10
	beq     L2911
	lda     #$31
	jmp     L2912
L2911:	lda     #$30
L2912:	jsr     pusha
	ldx     #$20
	lda     #$2D
	jsr     _one_vram_buffer
;
; one_vram_buffer(pad1&0b00100000 ? 49 : 48, NTADR_A(14, 1));
;
	lda     _pad1
	and     #$20
	beq     L2913
	lda     #$31
	jmp     L2914
L2913:	lda     #$30
L2914:	jsr     pusha
	ldx     #$20
	lda     #$2E
	jsr     _one_vram_buffer
;
; one_vram_buffer(pad1&0b01000000 ? 49 : 48, NTADR_A(15, 1));
;
	lda     _pad1
	and     #$40
	beq     L2915
	lda     #$31
	jmp     L2916
L2915:	lda     #$30
L2916:	jsr     pusha
	ldx     #$20
	lda     #$2F
	jsr     _one_vram_buffer
;
; one_vram_buffer(pad1&0b10000000 ? 49 : 48, NTADR_A(16, 1)); 
;
	lda     _pad1
	and     #$80
	beq     L2917
	lda     #$31
	jmp     L2918
L2917:	lda     #$30
L2918:	jsr     pusha
	ldx     #$20
	lda     #$30
	jsr     _one_vram_buffer
;
; one_vram_buffer(pad1_new&0b00000001 ? 49 : 48, NTADR_A(9, 2));
;
	lda     _pad1_new
	and     #$01
	beq     L2919
	lda     #$31
	jmp     L291A
L2919:	lda     #$30
L291A:	jsr     pusha
	ldx     #$20
	lda     #$49
	jsr     _one_vram_buffer
;
; one_vram_buffer(pad1_new&0b00000010 ? 49 : 48, NTADR_A(10, 2));
;
	lda     _pad1_new
	and     #$02
	beq     L291B
	lda     #$31
	jmp     L291C
L291B:	lda     #$30
L291C:	jsr     pusha
	ldx     #$20
	lda     #$4A
	jsr     _one_vram_buffer
;
; one_vram_buffer(pad1_new&0b00000100 ? 49 : 48, NTADR_A(11, 2));
;
	lda     _pad1_new
	and     #$04
	beq     L291D
	lda     #$31
	jmp     L291E
L291D:	lda     #$30
L291E:	jsr     pusha
	ldx     #$20
	lda     #$4B
	jsr     _one_vram_buffer
;
; one_vram_buffer(pad1_new&0b00001000 ? 49 : 48, NTADR_A(12, 2));
;
	lda     _pad1_new
	and     #$08
	beq     L291F
	lda     #$31
	jmp     L2920
L291F:	lda     #$30
L2920:	jsr     pusha
	ldx     #$20
	lda     #$4C
	jsr     _one_vram_buffer
;
; one_vram_buffer(pad1_new&0b00010000 ? 49 : 48, NTADR_A(13, 2));
;
	lda     _pad1_new
	and     #$10
	beq     L2921
	lda     #$31
	jmp     L2922
L2921:	lda     #$30
L2922:	jsr     pusha
	ldx     #$20
	lda     #$4D
	jsr     _one_vram_buffer
;
; one_vram_buffer(pad1_new&0b00100000 ? 49 : 48, NTADR_A(14, 2));
;
	lda     _pad1_new
	and     #$20
	beq     L2923
	lda     #$31
	jmp     L2924
L2923:	lda     #$30
L2924:	jsr     pusha
	ldx     #$20
	lda     #$4E
	jsr     _one_vram_buffer
;
; one_vram_buffer(pad1_new&0b01000000 ? 49 : 48, NTADR_A(15, 2));
;
	lda     _pad1_new
	and     #$40
	beq     L2925
	lda     #$31
	jmp     L2926
L2925:	lda     #$30
L2926:	jsr     pusha
	ldx     #$20
	lda     #$4F
	jsr     _one_vram_buffer
;
; one_vram_buffer(pad1_new&0b10000000 ? 49 : 48, NTADR_A(16, 2)); 
;
	lda     _pad1_new
	and     #$80
	beq     L2927
	lda     #$31
	jmp     L2928
L2927:	lda     #$30
L2928:	jsr     pusha
	ldx     #$20
	lda     #$50
	jsr     _one_vram_buffer
;
; powerpad_cur = read_powerpad(1);
;
L23AA:	lda     #$01
	jsr     _read_powerpad
	sta     _powerpad_cur
	stx     _powerpad_cur+1
;
; process_powerpad(); // goes after the read
;
	jsr     _process_powerpad
;
; movement();
;
	jsr     _movement
;
; draw_sprites();
;
	jsr     _draw_sprites
;
; else if (game_mode == MODE_LEVEL_END)
;
	jmp     L28F6
L2929:	lda     _game_mode
	cmp     #$06
	bne     L292B
;
; for (index = 0; index < 100; ++index)
;
	lda     #$00
	sta     _index
L292A:	lda     _index
	cmp     #$64
	bcs     L2476
;
; ppu_wait_nmi();
;
	jsr     _ppu_wait_nmi
;
; for (index = 0; index < 100; ++index)
;
	inc     _index
	jmp     L292A
;
; pal_fade_to(4, 0); // fade to black
;
L2476:	lda     #$04
	jsr     pusha
	lda     #$00
	jsr     _pal_fade_to
;
; level_up();
;
	jsr     _level_up
;
; else
;
	jmp     L28F6
;
; game_mode = MODE_TITLE;
;
L292B:	lda     #$00
	sta     _game_mode
;
; while (1)
;
	jmp     L28F6

.endproc

